(lp0
(lp1
I0
aI0
aI1
aI0
aI0
aI0
aI0
aI0
aI0
aI0
aI0
aI0
aI0
aF0.5
aa(lp2
I0
aI0
aI1
aI0
aI0
aI0
aI1
aI0
aI0
aI0
aF1.21
aF1.4
aI3
aF0.5
aa(lp3
I0
aI0
aI1
aI0
aI0
aI0
aI0
aI0
aI0
aI0
aF1.21
aF1.56
aI2
aF0.5
aa.(lp0
(lp1
I0
aI0
aI0
aI0
aI0
aI0
aI0
aI0
aI0
aI0
aI0
aI0
aI0
aF1.0
aa(lp2
I0
aI0
aI0
aI0
aI0
aI1
aI0
aI0
aI0
aI0
aF2.45
aF1.48
aI3
aF1.0
aa(lp3
I0
aI0
aI0
aI0
aI0
aI1
aI1
aI0
aI0
aI0
aF2.4
aF1.88
aI2
aF1.0
aa(lp4
I0
aI0
aI0
aI0
aI0
aI0
aI1
aI0
aI0
aI0
aF2.37
aF1.96
aI2
aI1
aa.(lp0
(lp1
I0
aI0
aI0
aI0
aI0
aI0
aI0
aI0
aI0
aI0
aI0
aI0
aI0
aF0.75
aa(lp2
I0
aI0
aI0
aI0
aI0
aI1
aI0
aI0
aI0
aI0
aF0.81
aF1.56
aI3
aF0.75
aa(lp3
I0
aI0
aI0
aI0
aI0
aI0
aI0
aI1
aI0
aI0
aF0.76
aF1.8
aI2
aF0.75
aa(lp4
I0
aI0
aI0
aI0
aI0
aI1
aI0
aI0
aI0
aI0
aF0.73
aF2.04
aI2
aF0.5
aa.(lp0
(lp1
I0
aI0
aI0
aI0
aI0
aI2
aI0
aI0
aI0
aI0
aF1.03
aF1.68
aI3
aF0.5
aa(lp2
I0
aI0
aI0
aI0
aI0
aI1
aI0
aI0
aI0
aI0
aF0.87
aF2.64
aI2
aF0.75
aa(lp3
I0
aI0
aI0
aI0
aI0
aI1
aI0
aI0
aI0
aI0
aF0.44
aF5.2
aI2
aF0.75
aa(lp4
I0
aI0
aI0
aI0
aI0
aI0
aI0
aI0
aI0
aI1
aF0.0
aF7.32
aI2
aI1
aa.(lp0
(lp1
I0
aI0
aI0
aI0
aI0
aI0
aI1
aI0
aI0
aI0
aF2.87
aF0.88
aI3
aF1.0
aa(lp2
I0
aI0
aI0
aI0
aI0
aI0
aI1
aI0
aI0
aI0
aF2.71
aF2.16
aI3
aF1.0
aa(lp3
I0
aI0
aI0
aI0
aI0
aI0
aI1
aI0
aI0
aI0
aF2.28
aF3.92
aI2
aF1.0
aa(lp4
I0
aI0
aI0
aI0
aI0
aI0
aI2
aI0
aI0
aI0
aF1.75
aF8.12
aI2
aI1
aa.(lp0
(lp1
I0
aI1
aI0
aI0
aI0
aI1
aI0
aI0
aI0
aI0
aF0.55
aF1.28
aI3
aF0.75
aa(lp2
I0
aI1
aI0
aI0
aI0
aI0
aI0
aI0
aI0
aI0
aF0.55
aF2.16
aI2
aF0.5
aa.(lp0
(lp1
I0
aI0
aI0
aI0
aI0
aI1
aI0
aI0
aI0
aI0
aF2.56
aF0.4
aI2
aF0.5
aa(lp2
I0
aI0
aI0
aI0
aI0
aI0
aI1
aI0
aI0
aI0
aF2.51
aF0.56
aI2
aI1
aa(lp3
I0
aI0
aI0
aI0
aI0
aI0
aI0
aI0
aI0
aI0
aI0
aI0
aI0
aI1
aa(lp4
I0
aI0
aI0
aI0
aI0
aI0
aI0
aI0
aI0
aI0
aI0
aI0
aI0
aI1
aa.(lp0
(lp1
I0
aI1
aI0
aI0
aI0
aI1
aI0
aI0
aI0
aI0
aF1.79
aF0.4
aI3
aF0.75
aa(lp2
I0
aI1
aI0
aI0
aI0
aI0
aI0
aI0
aI0
aI0
aF1.79
aF0.56
aI1
aF0.5
aa.(lp0
(lp1
I1
aI0
aI0
aI0
aI0
aI0
aI0
aI0
aI0
aI0
aF0.52
aF0.4
aI2
aF1.0
aa.(lp0
(lp1
I0
aI0
aI1
aI0
aI0
aI2
aI0
aI0
aI0
aI0
aF2.48
aF1.28
aI2
aF0.75
aa(lp2
I0
aI0
aI1
aI0
aI0
aI1
aI1
aI0
aI0
aI0
aF2.32
aF2.24
aI2
aF0.75
aa(lp3
I0
aI0
aI1
aI0
aI0
aI0
aI0
aI0
aI0
aI0
aF2.32
aF2.24
aI1
aF0.75
aa.(lp0
(lp1
I0
aI0
aI0
aI0
aI0
aI0
aI1
aI0
aI0
aI0
aF1.57
aF0.8
aI2
aF1.0
aa(lp2
I0
aI0
aI0
aI0
aI0
aI0
aI1
aI0
aI0
aI0
aF1.41
aF1.92
aI2
aF1.0
aa(lp3
I0
aI0
aI0
aI0
aI0
aI1
aI0
aI0
aI0
aI0
aF1.41
aF2.24
aI1
aI1
aa(lp4
I0
aI0
aI0
aI0
aI0
aI0
aI0
aI0
aI0
aI0
aI0
aI0
aI0
aI1
aa.(lp0
(lp1
I1
aI0
aI0
aI0
aI0
aI0
aI0
aI0
aI0
aI0
aF0.52
aF0.24
aI2
aF0.5
aa.(lp0
(lp1
I0
aI0
aI0
aI0
aI0
aI2
aI0
aI0
aI0
aI0
aF2.11
aF1.6
aI3
aF0.75
aa(lp2
I0
aI0
aI0
aI0
aI0
aI1
aI0
aI0
aI0
aI0
aF1.79
aF4.76
aI3
aF1.0
aa(lp3
I0
aI0
aI0
aI0
aI0
aI1
aI0
aI0
aI0
aI0
aF0.93
aF9.88
aI3
aF1.0
aa(lp4
I0
aI0
aI0
aI0
aI0
aI1
aI0
aI0
aI0
aI0
aF0.4
aF13.08
aI3
aI1
aa.(lp0
(lp1
I0
aI0
aI0
aI0
aI0
aI2
aI0
aI0
aI0
aI0
aF1.95
aF1.92
aI3
aF0.5
aa(lp2
I0
aI0
aI0
aI0
aI0
aI0
aI1
aI0
aI0
aI0
aF1.63
aF2.88
aI3
aF0.75
aa(lp3
I0
aI0
aI0
aI0
aI0
aI0
aI1
aI0
aI0
aI0
aF0.77
aF7.32
aI3
aF0.75
aa(lp4
I0
aI0
aI0
aI0
aI0
aI0
aI1
aI0
aI0
aI0
aF0.24
aF11.48
aI3
aF0.75
aa.(lp0
(lp1
I0
aI0
aI0
aI0
aI0
aI0
aI0
aI1
aI0
aI0
aF0.31
aF1.28
aI3
aF1.0
aa(lp2
I0
aI0
aI0
aI0
aI0
aI0
aI0
aI0
aI0
aI1
aF0.0
aF3.8
aI3
aF0.5
aa(lp3
I0
aI0
aI0
aI0
aI0
aI0
aI0
aI0
aI0
aI0
aI0
aI0
aI0
aF0.5
aa(lp4
I0
aI0
aI0
aI0
aI0
aI0
aI0
aI0
aI0
aI0
aI0
aI0
aI0
aF0.5
aa.