(lp0
(lp1
I0
aI0
aI1
aI0
aI0
aI1
aI0
aI0
aI0
aI0
aF2.44
aF0.1
aI3
aI0
aa(lp2
I0
aI0
aI1
aI0
aI0
aI1
aI0
aI0
aI0
aI0
aF2.43
aF0.24
aI3
aI0
aa(lp3
I0
aI0
aI1
aI0
aI0
aI0
aI0
aI0
aI0
aI0
aF2.43
aF0.28
aI1
aI0
aa.(lp0
(lp1
I0
aI0
aI1
aI0
aI0
aI1
aI0
aI0
aI0
aI0
aF0.17
aF0.12
aI3
aI0
aa(lp2
I0
aI0
aI1
aI0
aI0
aI0
aI1
aI0
aI0
aI0
aF0.16
aF0.16
aI3
aI0
aa(lp3
I0
aI0
aI1
aI0
aI0
aI0
aI0
aI0
aI0
aI0
aF0.16
aF0.24
aI2
aI0
aa.(lp0
(lp1
I0
aI0
aI0
aI0
aI0
aI1
aI0
aI0
aI0
aI0
aF2.35
aF0.12
aI3
aI1
aa(lp2
I0
aI0
aI0
aI0
aI0
aI1
aI0
aI0
aI0
aI0
aF2.33
aF0.2
aI3
aI1
aa(lp3
I0
aI0
aI0
aI0
aI0
aI0
aI1
aI0
aI0
aI0
aF2.32
aF0.28
aI2
aI1
aa(lp4
I0
aI0
aI0
aI0
aI0
aI0
aI0
aI0
aI0
aI0
aI0
aI0
aI0
aI1
aa.(lp0
(lp1
I0
aI0
aI1
aI0
aI0
aI1
aI0
aI0
aI0
aI0
aF2.4
aF0.24
aI3
aI1
aa(lp2
I0
aI0
aI1
aI0
aI0
aI1
aI0
aI0
aI0
aI0
aF2.37
aF0.4
aI3
aI0
aa(lp3
I0
aI0
aI1
aI0
aI0
aI0
aI0
aI0
aI0
aI0
aF2.37
aF0.56
aI2
aI0
aa.(lp0
(lp1
I0
aI0
aI1
aI0
aI0
aI1
aI0
aI0
aI0
aI0
aF0.13
aF0.2
aI3
aI0
aa(lp2
I0
aI0
aI1
aI0
aI0
aI1
aI0
aI0
aI0
aI0
aF0.11
aF0.48
aI3
aI0
aa(lp3
I0
aI0
aI1
aI0
aI0
aI0
aI0
aI0
aI0
aI0
aF0.11
aF0.56
aI1
aI0
aa.(lp0
(lp1
I0
aI0
aI0
aI0
aI0
aI1
aI0
aI0
aI0
aI0
aF2.39
aF0.24
aI3
aI0
aa(lp2
I0
aI0
aI0
aI0
aI0
aI0
aI1
aI0
aI0
aI0
aF2.36
aF0.32
aI3
aI1
aa(lp3
I0
aI0
aI0
aI0
aI0
aI0
aI1
aI0
aI0
aI0
aF2.33
aF0.56
aI3
aI1
aa(lp4
I0
aI0
aI0
aI0
aI0
aI0
aI0
aI0
aI0
aI0
aI0
aI0
aI0
aI1
aa.(lp0
(lp1
I0
aI0
aI1
aI0
aI0
aI1
aI0
aI0
aI0
aI0
aF2.35
aF0.24
aI3
aI0
aa(lp2
I0
aI0
aI1
aI0
aI0
aI0
aI1
aI0
aI0
aI0
aF2.32
aF0.32
aI3
aI0
aa(lp3
I0
aI0
aI1
aI0
aI0
aI0
aI0
aI0
aI0
aI0
aF2.32
aF0.48
aI2
aI0
aa.(lp0
(lp1
I0
aI0
aI1
aI0
aI0
aI1
aI0
aI0
aI0
aI0
aF0.08
aF0.24
aI3
aI0
aa(lp2
I0
aI0
aI1
aI0
aI0
aI1
aI0
aI0
aI0
aI0
aF0.05
aF0.4
aI3
aI0
aa(lp3
I0
aI0
aI1
aI0
aI0
aI0
aI0
aI0
aI0
aI0
aF0.05
aF0.48
aI1
aI0
aa.(lp0
(lp1
I0
aI0
aI0
aI0
aI0
aI1
aI0
aI0
aI0
aI0
aF2.49
aF0.2
aI3
aI1
aa(lp2
I0
aI0
aI0
aI0
aI0
aI1
aI0
aI0
aI0
aI0
aF2.47
aF0.48
aI3
aI1
aa(lp3
I0
aI0
aI0
aI0
aI0
aI1
aI0
aI0
aI0
aI0
aF2.47
aF0.48
aI1
aI1
aa(lp4
I0
aI0
aI0
aI0
aI0
aI0
aI0
aI0
aI0
aI0
aI0
aI0
aI0
aI1
aa.(lp0
(lp1
I0
aI0
aI0
aI0
aI0
aI1
aI0
aI0
aI0
aI0
aF2.29
aF0.2
aI3
aI1
aa(lp2
I0
aI0
aI0
aI0
aI0
aI1
aI0
aI0
aI0
aI0
aF2.27
aF0.48
aI3
aI1
aa(lp3
I0
aI0
aI0
aI0
aI0
aI1
aI0
aI0
aI0
aI0
aF2.27
aF0.48
aI2
aI1
aa(lp4
I0
aI0
aI0
aI0
aI0
aI0
aI0
aI0
aI0
aI0
aI0
aI0
aI0
aI1
aa.(lp0
(lp1
I0
aI0
aI0
aI0
aI0
aI1
aI0
aI0
aI0
aI0
aF0.03
aF0.24
aI3
aI0
aa(lp2
I0
aI0
aI0
aI0
aI0
aI0
aI0
aI0
aI0
aI1
aF0.0
aF0.32
aI3
aI0
aa(lp3
I0
aI0
aI0
aI0
aI0
aI0
aI0
aI0
aI0
aI0
aI0
aI0
aI0
aI0
aa(lp4
I0
aI0
aI0
aI0
aI0
aI0
aI0
aI0
aI0
aI0
aI0
aI0
aI0
aI0
aa.(lp0
(lp1
I0
aI0
aI1
aI0
aI0
aI1
aI0
aI0
aI0
aI0
aF2.6
aF0.24
aI3
aI0
aa(lp2
I0
aI0
aI1
aI0
aI0
aI1
aI0
aI0
aI0
aI0
aF2.57
aF0.4
aI3
aI0
aa(lp3
I0
aI0
aI1
aI0
aI0
aI0
aI0
aI0
aI0
aI0
aF2.57
aF0.48
aI2
aI0
aa.(lp0
(lp1
I0
aI0
aI1
aI0
aI0
aI1
aI0
aI0
aI0
aI0
aF0.99
aF0.08
aI4
aI0
aa(lp2
I0
aI0
aI1
aI0
aI0
aI1
aI1
aI0
aI0
aI0
aF0.87
aF1.18
aI4
aI0
aa(lp3
I0
aI0
aI1
aI0
aI0
aI0
aI0
aI0
aI0
aI0
aF0.87
aF1.52
aI3
aI0
aa.(lp0
(lp1
I0
aI0
aI0
aI0
aI0
aI1
aI0
aI0
aI0
aI0
aF0.99
aF0.05
aI5
aI1
aa(lp2
I0
aI0
aI0
aI0
aI0
aI0
aI1
aI0
aI0
aI0
aF0.87
aF0.48
aI4
aI0
aa(lp3
I0
aI0
aI0
aI0
aI0
aI0
aI1
aI0
aI0
aI0
aF0.67
aF2.12
aI2
aI0
aa(lp4
I0
aI0
aI0
aI0
aI0
aI0
aI1
aI0
aI0
aI0
aF0.67
aF2.74
aI2
aI0
aa.(lp0
(lp1
I1
aI0
aI0
aI0
aI0
aI0
aI0
aI0
aI0
aI0
aF1.0
aF0.07
aI4
aI0
aa.(lp0
(lp1
I0
aI0
aI1
aI0
aI0
aI1
aI0
aI0
aI0
aI0
aF0.99
aF0.08
aI4
aI0
aa(lp2
I0
aI0
aI1
aI0
aI0
aI2
aI0
aI0
aI0
aI0
aF0.87
aF1.52
aI4
aI0
aa(lp3
I0
aI0
aI1
aI0
aI0
aI0
aI0
aI0
aI0
aI0
aF0.87
aF1.52
aI2
aI0
aa.(lp0
(lp1
I0
aI0
aI0
aI0
aI0
aI1
aI0
aI0
aI0
aI0
aF0.99
aF0.07
aI5
aI0
aa(lp2
I0
aI0
aI0
aI0
aI0
aI1
aI0
aI0
aI0
aI0
aF0.87
aF0.84
aI4
aI1
aa(lp3
I0
aI0
aI0
aI0
aI0
aI1
aI0
aI0
aI0
aI0
aF0.67
aF2.72
aI2
aI1
aa(lp4
I0
aI0
aI0
aI0
aI0
aI1
aI0
aI0
aI0
aI0
aF0.67
aF2.76
aI2
aI1
aa.(lp0
(lp1
I0
aI0
aI1
aI0
aI0
aI2
aI0
aI0
aI0
aI0
aF0.75
aF1.54
aI5
aI0
aa(lp2
I0
aI0
aI1
aI0
aI0
aI1
aI0
aI0
aI0
aI0
aF0.74
aF2.0
aI5
aI0
aa(lp3
I0
aI0
aI1
aI0
aI0
aI0
aI0
aI0
aI0
aI0
aF0.74
aF2.04
aI2
aI0
aa.(lp0
(lp1
I0
aI0
aI1
aI0
aI0
aI0
aI1
aI0
aI0
aI0
aF0.54
aF0.46
aI5
aI0
aa(lp2
I0
aI0
aI1
aI0
aI0
aI1
aI0
aI0
aI0
aI0
aF0.53
aF1.94
aI5
aI0
aa(lp3
I0
aI0
aI1
aI0
aI0
aI0
aI0
aI0
aI0
aI0
aF0.53
aF2.0
aI3
aI0
aa.(lp0
(lp1
I0
aI0
aI0
aI0
aI0
aI2
aI0
aI0
aI0
aI0
aF0.87
aF1.18
aI5
aI1
aa(lp2
I0
aI0
aI0
aI0
aI0
aI1
aI0
aI0
aI0
aI0
aF0.87
aF1.98
aI5
aI1
aa(lp3
I0
aI0
aI0
aI0
aI0
aI1
aI0
aI0
aI0
aI0
aF0.86
aF2.04
aI3
aI1
aa(lp4
I0
aI0
aI0
aI0
aI0
aI1
aI0
aI0
aI0
aI0
aF0.85
aF2.08
aI2
aI1
aa.(lp0
(lp1
I0
aI0
aI1
aI0
aI0
aI2
aI0
aI0
aI0
aI0
aF0.75
aF1.9
aI5
aI0
aa(lp2
I0
aI0
aI1
aI0
aI0
aI0
aI1
aI0
aI0
aI0
aF0.74
aF1.92
aI5
aI0
aa(lp3
I0
aI0
aI1
aI0
aI0
aI0
aI0
aI0
aI0
aI0
aF0.74
aF2.0
aI4
aI0
aa.(lp0
(lp1
I0
aI0
aI0
aI0
aI0
aI2
aI0
aI0
aI0
aI0
aF1.46
aF0.82
aI5
aI0
aa(lp2
I0
aI0
aI0
aI0
aI0
aI1
aI0
aI0
aI0
aI0
aF1.45
aF1.96
aI5
aI0
aa(lp3
I0
aI0
aI0
aI0
aI0
aI0
aI1
aI0
aI0
aI0
aF1.45
aF2.02
aI3
aI0
aa(lp4
I0
aI0
aI0
aI0
aI0
aI0
aI1
aI0
aI0
aI0
aF1.44
aF2.06
aI2
aI0
aa.(lp0
(lp1
I0
aI0
aI1
aI0
aI0
aI1
aI0
aI0
aI0
aI0
aF0.73
aF0.05
aI4
aI0
aa(lp2
I0
aI0
aI1
aI0
aI0
aI1
aI0
aI0
aI0
aI0
aF0.61
aF0.8
aI3
aI0
aa(lp3
I0
aI0
aI1
aI0
aI0
aI0
aI0
aI0
aI0
aI0
aF0.61
aF1.76
aI2
aI0
aa.(lp0
(lp1
I0
aI0
aI0
aI0
aI0
aI1
aI0
aI0
aI0
aI0
aF0.53
aF0.08
aI4
aI0
aa(lp2
I0
aI0
aI0
aI0
aI0
aI0
aI1
aI0
aI0
aI0
aF0.41
aF0.44
aI4
aI0
aa(lp3
I0
aI0
aI0
aI0
aI0
aI0
aI1
aI0
aI0
aI0
aF0.21
aF1.76
aI3
aI1
aa(lp4
I0
aI0
aI0
aI0
aI0
aI0
aI0
aI0
aI0
aI0
aI0
aI0
aI0
aI1
aa.(lp0
(lp1
I1
aI0
aI0
aI0
aI0
aI0
aI0
aI0
aI0
aI0
aF1.55
aF0.03
aI4
aI0
aa.(lp0
(lp1
I0
aI0
aI1
aI0
aI0
aI1
aI0
aI0
aI0
aI0
aF0.73
aF0.07
aI4
aI1
aa(lp2
I0
aI0
aI1
aI0
aI0
aI1
aI0
aI0
aI0
aI0
aF0.61
aF1.16
aI3
aI0
aa(lp3
I0
aI0
aI1
aI0
aI0
aI0
aI0
aI0
aI0
aI0
aF0.61
aF1.76
aI1
aI0
aa.(lp0
(lp1
I0
aI1
aI0
aI0
aI0
aI1
aI0
aI0
aI0
aI0
aF1.43
aF0.08
aI4
aI0
aa(lp2
I0
aI1
aI0
aI0
aI0
aI0
aI0
aI0
aI0
aI0
aF1.43
aF0.44
aI3
aI0
aa.(lp0
(lp1
I0
aI0
aI0
aI0
aI0
aI2
aI0
aI0
aI0
aI0
aF0.49
aF1.46
aI5
aI1
aa(lp2
I0
aI0
aI0
aI0
aI0
aI0
aI1
aI0
aI0
aI0
aF0.49
aF1.82
aI3
aI1
aa(lp3
I0
aI0
aI0
aI0
aI0
aI0
aI1
aI0
aI0
aI0
aF0.48
aF1.86
aI2
aI1
aa(lp4
I0
aI0
aI0
aI0
aI0
aI0
aI0
aI0
aI0
aI0
aI0
aI0
aI0
aI1
aa.(lp0
(lp1
I0
aI1
aI0
aI0
aI0
aI0
aI1
aI0
aI0
aI0
aF0.67
aF0.43
aI5
aI0
aa(lp2
I0
aI1
aI0
aI0
aI0
aI0
aI0
aI0
aI0
aI0
aF0.67
aF1.84
aI2
aI0
aa.(lp0
(lp1
I0
aI1
aI0
aI0
aI0
aI1
aI0
aI0
aI0
aI0
aF1.43
aF1.12
aI5
aI0
aa(lp2
I0
aI1
aI0
aI0
aI0
aI0
aI0
aI0
aI0
aI0
aF1.43
aF1.8
aI3
aI0
aa.(lp0
(lp1
I0
aI0
aI1
aI0
aI0
aI2
aI0
aI0
aI0
aI0
aF0.49
aF1.8
aI5
aI0
aa(lp2
I0
aI0
aI1
aI0
aI0
aI1
aI0
aI0
aI0
aI0
aF0.49
aF1.84
aI3
aI0
aa(lp3
I0
aI0
aI1
aI0
aI0
aI0
aI0
aI0
aI0
aI0
aF0.49
aF1.86
aI1
aI0
aa.(lp0
(lp1
I0
aI1
aI0
aI0
aI0
aI1
aI0
aI0
aI0
aI0
aF1.31
aF0.78
aI5
aI0
aa(lp2
I0
aI1
aI0
aI0
aI0
aI0
aI0
aI0
aI0
aI0
aF1.31
aF1.8
aI4
aI0
aa.(lp0
(lp1
I0
aI0
aI0
aI0
aI0
aI1
aI0
aI0
aI0
aI0
aF0.98
aF1.1
aI4
aI0
aa(lp2
I0
aI0
aI0
aI0
aI0
aI2
aI0
aI0
aI0
aI0
aF0.86
aF2.54
aI4
aI0
aa(lp3
I0
aI0
aI0
aI0
aI0
aI2
aI0
aI0
aI0
aI0
aF0.54
aF5.78
aI4
aI0
aa(lp4
I0
aI0
aI0
aI0
aI0
aI2
aI0
aI0
aI0
aI0
aF0.43
aF7.52
aI4
aI1
aa.(lp0
(lp1
I0
aI0
aI0
aI0
aI0
aI0
aI1
aI0
aI0
aI0
aF0.55
aF0.41
aI5
aI0
aa(lp2
I0
aI0
aI0
aI0
aI0
aI0
aI1
aI0
aI0
aI0
aF0.43
aF1.86
aI4
aI0
aa(lp3
I0
aI0
aI0
aI0
aI0
aI0
aI1
aI0
aI0
aI0
aF0.11
aF3.9
aI4
aI0
aa(lp4
I0
aI0
aI0
aI0
aI0
aI0
aI0
aI0
aI0
aI1
aF0.0
aF6.88
aI4
aI0
aa.(lp0
(lp1
I0
aI0
aI0
aI0
aI0
aI1
aI0
aI0
aI0
aI0
aF1.31
aF0.76
aI4
aI0
aa(lp2
I0
aI0
aI0
aI0
aI0
aI1
aI1
aI0
aI0
aI0
aF1.19
aF2.2
aI4
aI0
aa(lp3
I0
aI0
aI0
aI0
aI0
aI1
aI1
aI0
aI0
aI0
aF0.87
aF4.84
aI4
aI0
aa(lp4
I0
aI0
aI0
aI0
aI0
aI1
aI1
aI0
aI0
aI0
aF0.75
aF7.2
aI4
aI0
aa.(lp0
(lp1
I0
aI0
aI0
aI0
aI0
aI2
aI0
aI0
aI0
aI0
aF0.37
aF1.44
aI4
aI1
aa(lp2
I0
aI0
aI0
aI0
aI0
aI2
aI0
aI0
aI0
aI0
aF0.25
aF2.88
aI4
aI1
aa(lp3
I0
aI0
aI0
aI0
aI0
aI1
aI0
aI0
aI0
aI1
aF0.0
aF6.5
aI4
aI1
aa(lp4
I0
aI0
aI0
aI0
aI0
aI0
aI0
aI0
aI0
aI0
aI0
aI0
aI0
aI0
aa.(lp0
(lp1
I1
aI0
aI0
aI0
aI0
aI0
aI0
aI0
aI0
aI0
aF1.31
aF0.41
aI4
aI0
aa.(lp0
(lp1
I0
aI0
aI0
aI0
aI0
aI1
aI0
aI0
aI0
aI0
aF2.92
aF0.08
aI2
aI0
aa(lp2
I0
aI0
aI0
aI0
aI0
aI0
aI1
aI0
aI0
aI0
aF2.91
aF0.12
aI2
aI1
aa(lp3
I0
aI0
aI0
aI0
aI0
aI0
aI0
aI0
aI0
aI0
aI0
aI0
aI0
aI1
aa(lp4
I0
aI0
aI0
aI0
aI0
aI0
aI0
aI0
aI0
aI0
aI0
aI0
aI0
aI1
aa.(lp0
(lp1
I1
aI0
aI0
aI0
aI0
aI0
aI0
aI0
aI0
aI0
aF0.75
aF0.06
aI2
aI1
aa.(lp0
(lp1
I0
aI1
aI0
aI0
aI0
aI1
aI0
aI0
aI0
aI0
aF1.3
aF0.08
aI2
aI0
aa(lp2
I0
aI1
aI0
aI0
aI0
aI0
aI0
aI0
aI0
aI0
aF1.3
aF0.12
aI1
aI0
aa.(lp0
(lp1
I0
aI0
aI0
aI0
aI0
aI1
aI0
aI0
aI0
aI0
aF2.93
aF0.1
aI3
aI1
aa(lp2
I0
aI0
aI0
aI0
aI0
aI1
aI0
aI0
aI0
aI0
aF2.93
aF0.12
aI1
aI1
aa(lp3
I0
aI0
aI0
aI0
aI0
aI0
aI0
aI0
aI0
aI0
aI0
aI0
aI0
aI1
aa(lp4
I0
aI0
aI0
aI0
aI0
aI0
aI0
aI0
aI0
aI0
aI0
aI0
aI0
aI1
aa.(lp0
(lp1
I1
aI0
aI0
aI0
aI0
aI0
aI0
aI0
aI0
aI0
aF0.74
aF0.12
aI2
aI0
aa.(lp0
(lp1
I0
aI1
aI0
aI0
aI0
aI1
aI0
aI0
aI0
aI0
aF1.29
aF0.12
aI3
aI0
aa(lp2
I0
aI1
aI0
aI0
aI0
aI0
aI0
aI0
aI0
aI0
aF1.29
aF0.12
aI1
aI0
aa.(lp0
(lp1
I0
aI0
aI1
aI0
aI0
aI1
aI0
aI0
aI0
aI0
aF2.96
aF0.1
aI2
aI0
aa(lp2
I0
aI0
aI1
aI0
aI0
aI0
aI1
aI0
aI0
aI0
aF2.95
aF0.14
aI2
aI0
aa(lp3
I0
aI0
aI1
aI0
aI0
aI0
aI0
aI0
aI0
aI0
aF2.95
aF0.18
aI1
aI0
aa.(lp0
(lp1
I1
aI0
aI0
aI0
aI0
aI0
aI0
aI0
aI0
aI0
aF0.73
aF0.1
aI2
aI0
aa.(lp0
(lp1
I0
aI0
aI0
aI0
aI0
aI1
aI0
aI0
aI0
aI0
aF1.27
aF0.1
aI3
aI1
aa(lp2
I0
aI0
aI0
aI0
aI0
aI1
aI0
aI0
aI0
aI0
aF1.26
aF0.18
aI2
aI1
aa(lp3
I0
aI0
aI0
aI0
aI0
aI1
aI0
aI0
aI0
aI0
aF1.26
aF0.18
aI1
aI1
aa(lp4
I0
aI0
aI0
aI0
aI0
aI0
aI0
aI0
aI0
aI0
aI0
aI0
aI0
aI1
aa.(lp0
(lp1
I0
aI0
aI0
aI0
aI0
aI1
aI0
aI0
aI0
aI0
aF2.92
aF0.16
aI2
aI0
aa(lp2
I0
aI0
aI0
aI0
aI0
aI0
aI1
aI0
aI0
aI0
aF2.89
aF0.24
aI2
aI1
aa(lp3
I0
aI0
aI0
aI0
aI0
aI0
aI0
aI0
aI0
aI0
aI0
aI0
aI0
aI1
aa(lp4
I0
aI0
aI0
aI0
aI0
aI0
aI0
aI0
aI0
aI0
aI0
aI0
aI0
aI1
aa.(lp0
(lp1
I1
aI0
aI0
aI0
aI0
aI0
aI0
aI0
aI0
aI0
aF0.73
aF0.12
aI2
aI0
aa.(lp0
(lp1
I0
aI1
aI0
aI0
aI0
aI1
aI0
aI0
aI0
aI0
aF1.29
aF0.16
aI2
aI1
aa(lp2
I0
aI1
aI0
aI0
aI0
aI0
aI0
aI0
aI0
aI0
aF1.29
aF0.24
aI1
aI0
aa.(lp0
(lp1
I0
aI0
aI0
aI0
aI0
aI1
aI0
aI0
aI0
aI0
aF2.95
aF0.2
aI3
aI0
aa(lp2
I0
aI0
aI0
aI0
aI0
aI1
aI0
aI0
aI0
aI0
aF2.95
aF0.24
aI1
aI1
aa(lp3
I0
aI0
aI0
aI0
aI0
aI0
aI0
aI0
aI0
aI0
aI0
aI0
aI0
aI1
aa(lp4
I0
aI0
aI0
aI0
aI0
aI0
aI0
aI0
aI0
aI0
aI0
aI0
aI0
aI1
aa.(lp0
(lp1
I1
aI0
aI0
aI0
aI0
aI0
aI0
aI0
aI0
aI0
aF0.71
aF0.24
aI2
aI0
aa.(lp0
(lp1
I0
aI1
aI0
aI0
aI0
aI1
aI0
aI0
aI0
aI0
aF1.27
aF0.24
aI3
aI1
aa(lp2
I0
aI1
aI0
aI0
aI0
aI0
aI0
aI0
aI0
aI0
aF1.27
aF0.24
aI1
aI0
aa.(lp0
(lp1
I0
aI0
aI0
aI0
aI0
aI1
aI0
aI0
aI0
aI0
aF3.0
aF0.24
aI3
aI1
aa(lp2
I0
aI0
aI0
aI0
aI0
aI0
aI1
aI0
aI0
aI0
aF2.97
aF0.32
aI2
aI1
aa(lp3
I0
aI0
aI0
aI0
aI0
aI0
aI0
aI0
aI0
aI0
aI0
aI0
aI0
aI1
aa(lp4
I0
aI0
aI0
aI0
aI0
aI0
aI0
aI0
aI0
aI0
aI0
aI0
aI0
aI1
aa.(lp0
(lp1
I0
aI1
aI0
aI0
aI0
aI1
aI0
aI0
aI0
aI0
aF0.68
aF0.24
aI3
aI0
aa(lp2
I0
aI1
aI0
aI0
aI0
aI0
aI0
aI0
aI0
aI0
aF0.68
aF0.24
aI2
aI0
aa.(lp0
(lp1
I0
aI1
aI0
aI0
aI0
aI1
aI0
aI0
aI0
aI0
aF1.24
aF0.2
aI3
aI0
aa(lp2
I0
aI1
aI0
aI0
aI0
aI0
aI0
aI0
aI0
aI0
aF1.24
aF0.32
aI1
aI0
aa.(lp0
(lp1
I0
aI0
aI1
aI0
aI0
aI1
aI0
aI0
aI0
aI0
aF3.08
aF0.4
aI3
aI0
aa(lp2
I0
aI0
aI1
aI0
aI0
aI1
aI0
aI0
aI0
aI0
aF3.03
aF0.8
aI2
aI0
aa(lp3
I0
aI0
aI1
aI0
aI0
aI0
aI0
aI0
aI0
aI0
aF3.03
aF0.96
aI1
aI0
aa.(lp0
(lp1
I1
aI0
aI0
aI0
aI0
aI0
aI0
aI0
aI0
aI0
aF0.63
aF0.48
aI2
aI0
aa.(lp0
(lp1
I0
aI0
aI0
aI0
aI0
aI1
aI0
aI0
aI0
aI0
aF1.13
aF0.48
aI3
aI1
aa(lp2
I0
aI0
aI0
aI0
aI0
aI0
aI1
aI0
aI0
aI0
aF1.08
aF0.64
aI2
aI1
aa(lp3
I0
aI0
aI0
aI0
aI0
aI0
aI1
aI0
aI0
aI0
aF1.03
aF0.96
aI2
aI1
aa(lp4
I0
aI0
aI0
aI0
aI0
aI0
aI0
aI0
aI0
aI0
aI0
aI0
aI0
aI1
aa.(lp0
(lp1
I0
aI0
aI0
aI0
aI0
aI1
aI0
aI0
aI0
aI0
aF2.97
aF0.48
aI3
aI0
aa(lp2
I0
aI0
aI0
aI0
aI0
aI1
aI0
aI0
aI0
aI0
aF2.92
aF0.8
aI3
aI1
aa(lp3
I0
aI0
aI0
aI0
aI0
aI1
aI0
aI0
aI0
aI0
aF2.87
aF1.12
aI2
aI1
aa(lp4
I0
aI0
aI0
aI0
aI0
aI1
aI0
aI0
aI0
aI0
aF2.87
aF1.12
aI1
aI1
aa.(lp0
(lp1
I0
aI0
aI0
aI1
aI0
aI1
aI0
aI0
aI0
aI0
aF0.57
aF0.48
aI3
aI1
aa(lp2
I0
aI0
aI0
aI1
aI0
aI0
aI1
aI0
aI0
aI0
aF0.52
aF0.64
aI3
aI0
aa(lp3
I0
aI0
aI0
aI1
aI0
aI0
aI1
aI0
aI0
aI0
aF0.47
aF0.96
aI2
aI0
aa(lp4
I0
aI0
aI0
aI1
aI0
aI0
aI0
aI0
aI0
aI0
aF0.47
aF1.12
aI1
aI0
aa.(lp0
(lp1
I0
aI1
aI0
aI0
aI0
aI1
aI0
aI0
aI0
aI0
aF1.29
aF0.4
aI3
aI0
aa(lp2
I0
aI1
aI0
aI0
aI0
aI0
aI0
aI0
aI0
aI0
aF1.29
aF0.8
aI2
aI0
aa.(lp0
(lp1
I0
aI0
aI0
aI0
aI0
aI1
aI0
aI0
aI0
aI0
aF3.13
aF0.96
aI3
aI0
aa(lp2
I0
aI0
aI0
aI0
aI0
aI0
aI1
aI0
aI0
aI0
aF3.03
aF1.28
aI3
aI1
aa(lp3
I0
aI0
aI0
aI0
aI0
aI0
aI1
aI0
aI0
aI0
aF2.92
aF1.92
aI2
aI1
aa(lp4
I0
aI0
aI0
aI0
aI0
aI0
aI1
aI0
aI0
aI0
aF2.81
aF2.56
aI2
aI0
aa.(lp0
(lp1
I0
aI0
aI0
aI0
aI0
aI1
aI0
aI0
aI0
aI0
aF0.36
aF0.8
aI3
aI1
aa(lp2
I0
aI0
aI0
aI0
aI0
aI1
aI0
aI0
aI0
aI0
aF0.25
aF1.6
aI2
aI0
aa(lp3
I0
aI0
aI0
aI0
aI0
aI1
aI0
aI0
aI0
aI0
aF0.15
aF2.24
aI2
aI0
aa(lp4
I0
aI0
aI0
aI0
aI0
aI1
aI0
aI0
aI0
aI0
aF0.04
aF2.88
aI2
aI1
aa.(lp0
(lp1
I0
aI1
aI0
aI0
aI0
aI1
aI0
aI0
aI0
aI0
aF1.19
aF0.96
aI3
aI0
aa(lp2
I0
aI1
aI0
aI0
aI0
aI0
aI0
aI0
aI0
aI0
aF1.19
aF1.28
aI2
aI0
aa.(lp0
(lp1
I0
aI0
aI0
aI0
aI0
aI1
aI0
aI0
aI0
aI0
aF2.71
aF0.8
aI3
aI0
aa(lp2
I0
aI0
aI0
aI0
aI0
aI1
aI0
aI0
aI0
aI0
aF2.6
aF1.44
aI2
aI0
aa(lp3
I0
aI0
aI0
aI0
aI0
aI1
aI0
aI0
aI0
aI0
aF2.49
aF2.08
aI2
aI0
aa(lp4
I0
aI0
aI0
aI0
aI0
aI1
aI0
aI0
aI0
aI0
aF2.39
aF2.72
aI2
aI0
aa.(lp0
(lp1
I0
aI0
aI0
aI0
aI0
aI1
aI0
aI0
aI0
aI0
aF0.89
aF0.8
aI2
aI1
aa(lp2
I0
aI0
aI0
aI0
aI0
aI0
aI1
aI0
aI0
aI0
aF0.79
aF1.12
aI2
aI1
aa(lp3
I0
aI0
aI0
aI0
aI0
aI0
aI1
aI0
aI0
aI0
aF0.68
aF1.76
aI2
aI1
aa(lp4
I0
aI0
aI0
aI0
aI0
aI0
aI1
aI0
aI0
aI0
aF0.57
aF2.4
aI2
aI1
aa.(lp0
(lp1
I1
aI0
aI0
aI0
aI0
aI0
aI0
aI0
aI0
aI0
aF1.13
aF0.8
aI2
aI0
aa.(lp0
(lp1
I0
aI0
aI1
aI0
aI0
aI1
aI0
aI0
aI0
aI0
aF2.28
aF0.96
aI3
aI0
aa(lp2
I0
aI0
aI1
aI0
aI0
aI1
aI0
aI0
aI0
aI0
aF2.17
aF1.6
aI3
aI0
aa(lp3
I0
aI0
aI1
aI0
aI0
aI0
aI0
aI0
aI0
aI0
aF2.17
aF1.92
aI1
aI0
aa.(lp0
(lp1
I0
aI0
aI0
aI0
aI0
aI1
aI0
aI0
aI0
aI0
aF1.37
aF0.96
aI3
aI1
aa(lp2
I0
aI0
aI0
aI0
aI0
aI0
aI1
aI0
aI0
aI0
aF1.27
aF1.28
aI3
aI1
aa(lp3
I0
aI0
aI0
aI0
aI0
aI0
aI1
aI0
aI0
aI0
aF1.16
aF1.92
aI2
aI1
aa(lp4
I0
aI0
aI0
aI0
aI0
aI0
aI0
aI0
aI0
aI0
aI0
aI0
aI0
aI1
aa.(lp0
(lp1
I0
aI1
aI0
aI0
aI0
aI1
aI0
aI0
aI0
aI0
aF1.03
aF0.8
aI3
aI0
aa(lp2
I0
aI1
aI0
aI0
aI0
aI0
aI0
aI0
aI0
aI0
aF1.03
aF1.6
aI2
aI0
aa.(lp0
(lp1
I0
aI0
aI0
aI0
aI0
aI1
aI0
aI0
aI0
aI0
aF1.96
aF1.92
aI3
aI0
aa(lp2
I0
aI0
aI0
aI0
aI0
aI0
aI1
aI0
aI0
aI0
aF1.75
aF2.56
aI3
aI1
aa(lp3
I0
aI0
aI0
aI0
aI0
aI0
aI1
aI0
aI0
aI0
aF1.53
aF3.84
aI2
aI1
aa(lp4
I0
aI0
aI0
aI0
aI0
aI0
aI1
aI0
aI0
aI0
aF1.32
aF5.12
aI2
aI1
aa.(lp0
(lp1
I0
aI0
aI0
aI0
aI0
aI1
aI0
aI0
aI0
aI0
aF1.59
aF1.6
aI3
aI1
aa(lp2
I0
aI0
aI0
aI0
aI0
aI1
aI0
aI0
aI0
aI0
aF1.37
aF3.2
aI2
aI0
aa(lp3
I0
aI0
aI0
aI0
aI0
aI1
aI0
aI0
aI0
aI0
aF1.16
aF4.48
aI2
aI0
aa(lp4
I0
aI0
aI0
aI0
aI0
aI1
aI0
aI0
aI0
aI0
aF0.95
aF5.76
aI2
aI0
aa.(lp0
(lp1
I0
aI1
aI0
aI0
aI0
aI1
aI0
aI0
aI0
aI0
aF0.81
aF1.92
aI3
aI0
aa(lp2
I0
aI1
aI0
aI0
aI0
aI0
aI0
aI0
aI0
aI0
aF0.81
aF2.56
aI2
aI0
aa.(lp0
(lp1
I0
aI0
aI0
aI0
aI0
aI1
aI0
aI0
aI0
aI0
aF3.03
aF1.6
aI3
aI0
aa(lp2
I0
aI0
aI0
aI0
aI0
aI1
aI0
aI0
aI0
aI0
aF3.03
aF1.92
aI1
aI1
aa(lp3
I0
aI0
aI0
aI0
aI0
aI0
aI0
aI0
aI0
aI0
aI0
aI0
aI0
aI1
aa(lp4
I0
aI0
aI0
aI0
aI0
aI0
aI0
aI0
aI0
aI0
aI0
aI0
aI0
aI1
aa.(lp0
(lp1
I1
aI0
aI0
aI0
aI0
aI0
aI0
aI0
aI0
aI0
aF0.73
aF1.92
aI2
aI0
aa.(lp0
(lp1
I0
aI1
aI0
aI0
aI0
aI1
aI0
aI0
aI0
aI0
aF0.6
aF1.92
aI3
aI1
aa(lp2
I0
aI1
aI0
aI0
aI0
aI0
aI0
aI0
aI0
aI0
aF0.6
aF1.92
aI1
aI0
aa.(lp0
(lp1
I0
aI0
aI0
aI0
aI0
aI1
aI0
aI0
aI0
aI0
aF3.56
aF1.92
aI3
aI0
aa(lp2
I0
aI0
aI0
aI0
aI0
aI0
aI1
aI0
aI0
aI0
aF3.35
aF2.56
aI3
aI1
aa(lp3
I0
aI0
aI0
aI0
aI0
aI0
aI0
aI0
aI0
aI0
aI0
aI0
aI0
aI1
aa(lp4
I0
aI0
aI0
aI0
aI0
aI0
aI0
aI0
aI0
aI0
aI0
aI0
aI0
aI1
aa.(lp0
(lp1
I0
aI1
aI0
aI0
aI0
aI1
aI0
aI0
aI0
aI0
aF0.41
aF1.6
aI3
aI1
aa(lp2
I0
aI1
aI0
aI0
aI0
aI0
aI0
aI0
aI0
aI0
aF0.41
aF2.56
aI1
aI0
aa.(lp0
(lp1
I0
aI1
aI0
aI0
aI0
aI1
aI0
aI0
aI0
aI0
aF0.39
aF1.92
aI3
aI0
aa(lp2
I0
aI1
aI0
aI0
aI0
aI0
aI0
aI0
aI0
aI0
aF0.39
aF2.56
aI2
aI0
aa.(lp0
(lp1
I0
aI0
aI0
aI0
aI0
aI1
aI0
aI0
aI0
aI0
aF3.99
aF1.6
aI3
aI0
aa(lp2
I0
aI0
aI0
aI0
aI0
aI1
aI0
aI0
aI0
aI0
aF3.99
aF1.6
aI1
aI1
aa(lp3
I0
aI0
aI0
aI0
aI0
aI0
aI0
aI0
aI0
aI0
aI0
aI0
aI0
aI1
aa(lp4
I0
aI0
aI0
aI0
aI0
aI0
aI0
aI0
aI0
aI0
aI0
aI0
aI0
aI1
aa.(lp0
(lp1
I0
aI1
aI0
aI0
aI0
aI1
aI0
aI0
aI0
aI0
aF0.2
aF1.6
aI2
aI1
aa(lp2
I0
aI1
aI0
aI0
aI0
aI0
aI0
aI0
aI0
aI0
aF0.2
aF1.6
aI1
aI0
aa.(lp0
(lp1
I1
aI0
aI0
aI0
aI0
aI0
aI0
aI0
aI0
aI0
aF0.28
aF1.6
aI2
aI0
aa.(lp0
(lp1
I0
aI0
aI0
aI0
aI0
aI1
aI0
aI0
aI0
aI0
aF4.24
aF0.92
aI3
aI0
aa(lp2
I0
aI0
aI0
aI0
aI0
aI1
aI0
aI0
aI0
aI0
aF4.24
aF0.92
aI2
aI1
aa(lp3
I0
aI0
aI0
aI0
aI0
aI0
aI0
aI0
aI0
aI0
aI0
aI0
aI0
aI1
aa(lp4
I0
aI0
aI0
aI0
aI0
aI0
aI0
aI0
aI0
aI0
aI0
aI0
aI0
aI1
aa.(lp0
(lp1
I0
aI1
aI0
aI0
aI0
aI1
aI0
aI0
aI0
aI0
aF0.45
aF0.92
aI3
aI1
aa(lp2
I0
aI1
aI0
aI0
aI0
aI0
aI0
aI0
aI0
aI0
aF0.45
aF0.92
aI2
aI0
aa.(lp0
(lp1
I0
aI0
aI1
aI0
aI0
aI1
aI0
aI0
aI0
aI0
aF0.99
aF0.09
aI5
aI0
aa(lp2
I0
aI0
aI1
aI0
aI0
aI1
aI0
aI0
aI0
aI0
aF0.99
aF0.18
aI4
aI0
aa(lp3
I0
aI0
aI1
aI0
aI0
aI0
aI0
aI0
aI0
aI0
aF0.99
aF0.2
aI1
aI0
aa.(lp0
(lp1
I0
aI1
aI0
aI0
aI0
aI1
aI0
aI0
aI0
aI0
aF0.99
aF0.1
aI5
aI0
aa(lp2
I0
aI1
aI0
aI0
aI0
aI0
aI0
aI0
aI0
aI0
aF0.99
aF0.12
aI4
aI0
aa.(lp0
(lp1
I0
aI0
aI0
aI0
aI0
aI1
aI0
aI0
aI0
aI0
aF0.99
aF0.05
aI5
aI1
aa(lp2
I0
aI0
aI0
aI0
aI0
aI1
aI0
aI0
aI0
aI0
aF0.99
aF0.14
aI4
aI1
aa(lp3
I0
aI0
aI0
aI0
aI0
aI0
aI1
aI0
aI0
aI0
aF0.98
aF0.2
aI3
aI1
aa(lp4
I0
aI0
aI0
aI0
aI0
aI0
aI0
aI0
aI0
aI0
aI0
aI0
aI0
aI1
aa.(lp0
(lp1
I0
aI0
aI1
aI0
aI0
aI1
aI0
aI0
aI0
aI0
aF0.99
aF0.07
aI5
aI0
aa(lp2
I0
aI0
aI1
aI0
aI0
aI1
aI0
aI0
aI0
aI0
aF0.99
aF0.16
aI4
aI0
aa(lp3
I0
aI0
aI1
aI0
aI0
aI0
aI0
aI0
aI0
aI0
aF0.99
aF0.2
aI2
aI0
aa.(lp0
(lp1
I0
aI0
aI1
aI0
aI0
aI1
aI0
aI0
aI0
aI0
aF0.99
aF0.1
aI5
aI0
aa(lp2
I0
aI0
aI1
aI0
aI0
aI0
aI1
aI0
aI0
aI0
aF0.99
aF0.12
aI5
aI0
aa(lp3
I0
aI0
aI1
aI0
aI0
aI0
aI0
aI0
aI0
aI0
aF0.99
aF0.18
aI3
aI0
aa.(lp0
(lp1
I0
aI0
aI0
aI0
aI0
aI1
aI0
aI0
aI0
aI0
aF0.98
aF0.07
aI5
aI0
aa(lp2
I0
aI0
aI0
aI0
aI0
aI1
aI0
aI0
aI0
aI0
aF0.97
aF0.14
aI3
aI0
aa(lp3
I0
aI0
aI0
aI0
aI0
aI1
aI0
aI0
aI0
aI0
aF0.97
aF0.2
aI3
aI0
aa(lp4
I0
aI0
aI0
aI0
aI0
aI1
aI0
aI0
aI0
aI0
aF0.96
aF0.24
aI2
aI0
aa.(lp0
(lp1
I0
aI1
aI0
aI0
aI0
aI1
aI0
aI0
aI0
aI0
aF0.99
aF0.1
aI5
aI0
aa(lp2
I0
aI1
aI0
aI0
aI0
aI0
aI0
aI0
aI0
aI0
aF0.99
aF0.1
aI3
aI0
aa.(lp0
(lp1
I1
aI0
aI0
aI0
aI0
aI0
aI0
aI0
aI0
aI0
aF1.04
aF0.1
aI4
aI0
aa.(lp0
(lp1
I0
aI0
aI0
aI0
aI0
aI1
aI0
aI0
aI0
aI0
aF0.98
aF0.05
aI5
aI0
aa(lp2
I0
aI0
aI0
aI0
aI0
aI0
aI1
aI0
aI0
aI0
aF0.97
aF0.12
aI3
aI0
aa(lp3
I0
aI0
aI0
aI0
aI0
aI0
aI1
aI0
aI0
aI0
aF0.97
aF0.18
aI3
aI0
aa(lp4
I0
aI0
aI0
aI0
aI0
aI0
aI1
aI0
aI0
aI0
aF0.96
aF0.22
aI2
aI1
aa.(lp0
(lp1
I0
aI0
aI1
aI0
aI0
aI1
aI0
aI0
aI0
aI0
aF0.98
aF0.09
aI5
aI1
aa(lp2
I0
aI0
aI1
aI0
aI0
aI1
aI0
aI0
aI0
aI0
aF0.97
aF0.16
aI3
aI0
aa(lp3
I0
aI0
aI1
aI0
aI0
aI0
aI0
aI0
aI0
aI0
aF0.97
aF0.2
aI2
aI0
aa.(lp0
(lp1
I0
aI0
aI1
aI0
aI0
aI2
aI0
aI0
aI0
aI0
aF0.84
aF1.46
aI5
aI0
aa(lp2
I0
aI0
aI1
aI0
aI0
aI2
aI0
aI0
aI0
aI0
aF0.72
aF3.26
aI5
aI0
aa(lp3
I0
aI0
aI1
aI0
aI0
aI0
aI0
aI0
aI0
aI0
aF0.72
aF3.62
aI3
aI0
aa.(lp0
(lp1
I0
aI0
aI0
aI0
aI0
aI0
aI1
aI0
aI0
aI0
aF0.87
aF0.43
aI5
aI0
aa(lp2
I0
aI0
aI0
aI0
aI0
aI0
aI1
aI0
aI0
aI0
aF0.75
aF2.24
aI5
aI0
aa(lp3
I0
aI0
aI0
aI0
aI0
aI0
aI1
aI0
aI0
aI0
aF0.55
aF4.22
aI2
aI0
aa(lp4
I0
aI0
aI0
aI0
aI0
aI0
aI1
aI0
aI0
aI0
aF0.43
aF5.18
aI2
aI0
aa.(lp0
(lp1
I0
aI0
aI0
aI0
aI0
aI1
aI0
aI0
aI0
aI0
aF0.92
aF0.78
aI5
aI0
aa(lp2
I0
aI0
aI0
aI0
aI0
aI1
aI1
aI0
aI0
aI0
aF0.8
aF2.58
aI5
aI1
aa(lp3
I0
aI0
aI0
aI0
aI0
aI1
aI1
aI0
aI0
aI0
aF0.6
aF4.8
aI2
aI1
aa(lp4
I0
aI0
aI0
aI0
aI0
aI1
aI1
aI0
aI0
aI0
aF0.48
aF5.52
aI2
aI1
aa.(lp0
(lp1
I0
aI0
aI1
aI0
aI0
aI1
aI0
aI0
aI0
aI0
aF0.92
aF1.12
aI5
aI0
aa(lp2
I0
aI0
aI1
aI0
aI0
aI2
aI0
aI0
aI0
aI0
aF0.8
aF2.92
aI5
aI0
aa(lp3
I0
aI0
aI1
aI0
aI0
aI0
aI0
aI0
aI0
aI0
aF0.8
aF3.62
aI4
aI0
aa.(lp0
(lp1
I0
aI0
aI1
aI0
aI0
aI2
aI0
aI0
aI0
aI0
aF0.85
aF1.8
aI5
aI1
aa(lp2
I0
aI0
aI1
aI0
aI0
aI2
aI0
aI0
aI0
aI0
aF0.73
aF3.6
aI5
aI0
aa(lp3
I0
aI0
aI1
aI0
aI0
aI0
aI0
aI0
aI0
aI0
aF0.73
aF3.62
aI2
aI0
aa.(lp0
(lp1
I0
aI0
aI0
aI0
aI0
aI1
aI0
aI0
aI0
aI0
aF0.71
aF0.1
aI5
aI0
aa(lp2
I0
aI0
aI0
aI0
aI0
aI2
aI0
aI0
aI0
aI0
aF0.59
aF1.2
aI4
aI0
aa(lp3
I0
aI0
aI0
aI0
aI0
aI2
aI0
aI0
aI0
aI0
aF0.39
aF3.34
aI3
aI0
aa(lp4
I0
aI0
aI0
aI0
aI0
aI2
aI0
aI0
aI0
aI0
aF0.29
aF4.24
aI3
aI0
aa.(lp0
(lp1
I0
aI0
aI0
aI0
aI0
aI1
aI0
aI0
aI0
aI0
aF0.42
aF0.07
aI5
aI0
aa(lp2
I0
aI0
aI0
aI0
aI0
aI0
aI1
aI0
aI0
aI0
aF0.3
aF0.52
aI5
aI1
aa(lp3
I0
aI0
aI0
aI0
aI0
aI0
aI1
aI0
aI0
aI0
aF0.1
aF2.18
aI3
aI0
aa(lp4
I0
aI0
aI0
aI0
aI0
aI0
aI0
aI0
aI0
aI1
aF0.0
aF3.68
aI3
aI0
aa.(lp0
(lp1
I0
aI1
aI0
aI0
aI0
aI1
aI0
aI0
aI0
aI0
aF2.31
aF0.09
aI5
aI1
aa(lp2
I0
aI1
aI0
aI0
aI0
aI0
aI0
aI0
aI0
aI0
aF2.31
aF0.52
aI4
aI0
aa.(lp0
(lp1
I0
aI0
aI0
aI0
aI0
aI1
aI0
aI0
aI0
aI0
aF0.79
aF0.1
aI5
aI0
aa(lp2
I0
aI0
aI0
aI0
aI0
aI1
aI1
aI0
aI0
aI0
aF0.67
aF0.86
aI4
aI0
aa(lp3
I0
aI0
aI0
aI0
aI0
aI1
aI1
aI0
aI0
aI0
aF0.47
aF2.76
aI3
aI1
aa(lp4
I0
aI0
aI0
aI0
aI0
aI1
aI1
aI0
aI0
aI0
aF0.37
aF3.96
aI3
aI1
aa.(lp0
(lp1
I0
aI0
aI1
aI0
aI0
aI1
aI0
aI0
aI0
aI0
aF0.73
aF0.05
aI5
aI0
aa(lp2
I0
aI0
aI1
aI0
aI0
aI2
aI0
aI0
aI0
aI0
aF0.61
aF1.54
aI4
aI0
aa(lp3
I0
aI0
aI1
aI0
aI0
aI0
aI0
aI0
aI0
aI0
aF0.61
aF1.58
aI3
aI0
aa.(lp0
(lp1
I0
aI0
aI0
aI0
aI0
aI1
aI0
aI0
aI0
aI0
aF0.29
aF0.08
aI4
aI0
aa(lp2
I0
aI0
aI0
aI0
aI0
aI0
aI1
aI0
aI0
aI0
aF0.28
aF0.1
aI4
aI0
aa(lp3
I0
aI0
aI0
aI0
aI0
aI0
aI1
aI0
aI0
aI0
aF0.27
aF0.18
aI4
aI0
aa(lp4
I0
aI0
aI0
aI0
aI0
aI0
aI1
aI0
aI0
aI0
aF0.27
aF0.24
aI3
aI0
aa.(lp0
(lp1
I0
aI0
aI1
aI0
aI0
aI1
aI0
aI0
aI0
aI0
aF0.6
aF0.08
aI4
aI0
aa(lp2
I0
aI0
aI1
aI0
aI0
aI1
aI0
aI0
aI0
aI0
aF0.59
aF0.12
aI4
aI0
aa(lp3
I0
aI0
aI1
aI0
aI0
aI0
aI0
aI0
aI0
aI0
aF0.59
aF0.18
aI3
aI0
aa.(lp0
(lp1
I0
aI0
aI0
aI0
aI0
aI1
aI0
aI0
aI0
aI0
aF2.31
aF0.05
aI4
aI1
aa(lp2
I0
aI0
aI0
aI0
aI0
aI1
aI0
aI0
aI0
aI0
aF2.3
aF0.14
aI4
aI1
aa(lp3
I0
aI0
aI0
aI0
aI0
aI1
aI0
aI0
aI0
aI0
aF2.29
aF0.2
aI3
aI1
aa(lp4
I0
aI0
aI0
aI0
aI0
aI1
aI0
aI0
aI0
aI0
aF2.29
aF0.26
aI3
aI1
aa.(lp0
(lp1
I0
aI0
aI0
aI0
aI0
aI1
aI0
aI0
aI0
aI0
aF1.78
aF0.07
aI4
aI0
aa(lp2
I0
aI0
aI0
aI0
aI0
aI1
aI0
aI0
aI0
aI0
aF1.77
aF0.16
aI4
aI0
aa(lp3
I0
aI0
aI0
aI0
aI0
aI1
aI0
aI0
aI0
aI0
aF1.77
aF0.22
aI3
aI0
aa(lp4
I0
aI0
aI0
aI0
aI0
aI1
aI0
aI0
aI0
aI0
aF1.76
aF0.28
aI3
aI0
aa.(lp0
(lp1
I1
aI0
aI0
aI0
aI0
aI0
aI0
aI0
aI0
aI0
aF1.0
aF0.07
aI4
aI0
aa.(lp0
(lp1
I1
aI0
aI0
aI0
aI0
aI0
aI0
aI0
aI0
aI0
aF1.0
aF0.05
aI4
aI0
aa.(lp0
(lp1
I1
aI0
aI0
aI0
aI0
aI0
aI0
aI0
aI0
aI0
aF0.68
aF0.09
aI4
aI0
aa.(lp0
(lp1
I1
aI0
aI0
aI0
aI0
aI0
aI0
aI0
aI0
aI0
aF0.68
aF0.14
aI4
aI0
aa.(lp0
(lp1
I1
aI0
aI0
aI0
aI0
aI0
aI0
aI0
aI0
aI0
aF0.68
aF0.1
aI4
aI0
aa.(lp0
(lp1
I1
aI0
aI0
aI0
aI0
aI0
aI0
aI0
aI0
aI0
aF0.68
aF0.06
aI4
aI0
aa.(lp0
(lp1
I1
aI0
aI0
aI0
aI0
aI0
aI0
aI0
aI0
aI0
aF0.67
aF0.2
aI4
aI0
aa.(lp0
(lp1
I1
aI0
aI0
aI0
aI0
aI0
aI0
aI0
aI0
aI0
aF0.65
aF0.2
aI3
aI0
aa.(lp0
(lp1
I1
aI0
aI0
aI0
aI0
aI0
aI0
aI0
aI0
aI0
aF0.55
aF0.32
aI3
aI0
aa.(lp0
(lp1
I1
aI0
aI0
aI0
aI0
aI0
aI0
aI0
aI0
aI0
aF1.08
aF0.64
aI3
aI0
aa.(lp0
(lp1
I1
aI0
aI0
aI0
aI0
aI0
aI0
aI0
aI0
aI0
aF1.05
aF0.56
aI3
aI0
aa.(lp0
(lp1
I1
aI0
aI0
aI0
aI0
aI0
aI0
aI0
aI0
aI0
aF2.73
aF0.8
aI2
aI0
aa.(lp0
(lp1
I1
aI0
aI0
aI0
aI0
aI0
aI0
aI0
aI0
aI0
aF2.52
aF1.92
aI2
aI0
aa.(lp0
(lp1
I1
aI0
aI0
aI0
aI0
aI0
aI0
aI0
aI0
aI0
aF1.0
aF0.05
aI6
aI0
aa.(lp0
(lp1
I1
aI0
aI0
aI0
aI0
aI0
aI0
aI0
aI0
aI0
aF1.0
aF1.07
aI4
aI0
aa.(lp0
(lp1
I1
aI0
aI0
aI0
aI0
aI0
aI0
aI0
aI0
aI0
aF1.0
aF0.05
aI5
aI0
aa.(lp0
(lp1
I1
aI0
aI0
aI0
aI0
aI0
aI0
aI0
aI0
aI0
aF1.0
aF1.07
aI3
aI1
aa.(lp0
(lp1
I1
aI0
aI0
aI0
aI0
aI0
aI0
aI0
aI0
aI0
aF0.99
aF2.06
aI2
aI0
aa.(lp0
(lp1
I1
aI0
aI0
aI0
aI0
aI0
aI0
aI0
aI0
aI0
aF1.0
aF1.05
aI4
aI0
aa.(lp0
(lp1
I1
aI0
aI0
aI0
aI0
aI0
aI0
aI0
aI0
aI0
aF1.0
aF1.05
aI3
aI0
aa.(lp0
(lp1
I1
aI0
aI0
aI0
aI0
aI0
aI0
aI0
aI0
aI0
aF1.0
aF0.03
aI4
aI0
aa.(lp0
(lp1
I1
aI0
aI0
aI0
aI0
aI0
aI0
aI0
aI0
aI0
aF1.34
aF0.06
aI2
aI0
aa.(lp0
(lp1
I1
aI0
aI0
aI0
aI0
aI0
aI0
aI0
aI0
aI0
aF1.0
aF0.03
aI3
aI0
aa.(lp0
(lp1
I1
aI0
aI0
aI0
aI0
aI0
aI0
aI0
aI0
aI0
aF1.01
aF0.41
aI4
aI0
aa.(lp0
(lp1
I1
aI0
aI0
aI0
aI0
aI0
aI0
aI0
aI0
aI0
aF0.99
aF0.41
aI2
aI0
aa.(lp0
(lp1
I1
aI0
aI0
aI0
aI0
aI0
aI0
aI0
aI0
aI0
aF1.34
aF0.41
aI3
aI0
aa.(lp0
(lp1
I1
aI0
aI0
aI0
aI0
aI0
aI0
aI0
aI0
aI0
aF0.99
aF0.07
aI3
aI0
aa.(lp0
(lp1
I1
aI0
aI0
aI0
aI0
aI0
aI0
aI0
aI0
aI0
aF1.34
aF0.07
aI4
aI0
aa.(lp0
(lp1
I1
aI0
aI0
aI0
aI0
aI0
aI0
aI0
aI0
aI0
aF2.87
aF2.12
aI2
aI0
aa.(lp0
(lp1
I1
aI0
aI0
aI0
aI0
aI0
aI0
aI0
aI0
aI0
aF0.99
aF1.1
aI3
aI0
aa.(lp0
(lp1
I1
aI0
aI0
aI0
aI0
aI0
aI0
aI0
aI0
aI0
aF1.0
aF1.09
aI4
aI0
aa.(lp0
(lp1
I1
aI0
aI0
aI0
aI0
aI0
aI0
aI0
aI0
aI0
aF0.99
aF1.09
aI3
aI0
aa.(lp0
(lp1
I1
aI0
aI0
aI0
aI0
aI0
aI0
aI0
aI0
aI0
aF1.0
aF1.09
aI5
aI0
aa.(lp0
(lp1
I1
aI0
aI0
aI0
aI0
aI0
aI0
aI0
aI0
aI0
aF1.0
aF0.03
aI6
aI0
aa.(lp0
(lp1
I1
aI0
aI0
aI0
aI0
aI1
aI0
aI0
aI0
aI0
aF0.99
aF1.09
aI2
aI0
aa.(lp0
(lp1
I1
aI0
aI0
aI0
aI0
aI0
aI0
aI0
aI0
aI0
aF1.0
aF0.09
aI5
aI0
aa.(lp0
(lp1
I1
aI0
aI0
aI0
aI0
aI0
aI0
aI0
aI0
aI0
aF0.99
aF0.09
aI4
aI0
aa.(lp0
(lp1
I1
aI0
aI0
aI0
aI0
aI0
aI0
aI0
aI0
aI0
aF0.99
aF0.09
aI3
aI0
aa.(lp0
(lp1
I1
aI0
aI0
aI0
aI0
aI0
aI0
aI0
aI0
aI0
aF1.4
aF0.07
aI6
aI0
aa.(lp0
(lp1
I1
aI0
aI0
aI0
aI0
aI0
aI0
aI0
aI0
aI0
aF0.99
aF0.05
aI3
aI0
aa.(lp0
(lp1
I1
aI0
aI0
aI0
aI0
aI0
aI0
aI0
aI0
aI0
aF0.64
aF0.03
aI6
aI0
aa.(lp0
(lp1
I1
aI0
aI0
aI0
aI0
aI0
aI0
aI0
aI0
aI0
aF1.4
aF0.03
aI5
aI0
aa.(lp0
(lp1
I1
aI0
aI0
aI0
aI0
aI0
aI0
aI0
aI0
aI0
aF0.99
aF0.03
aI4
aI0
aa.(lp0
(lp1
I1
aI0
aI0
aI0
aI0
aI0
aI0
aI0
aI0
aI0
aF0.0
aF1.05
aI5
aI0
aa.(lp0
(lp1
I1
aI0
aI0
aI0
aI0
aI0
aI0
aI0
aI0
aI0
aF0.99
aF1.05
aI4
aI0
aa.(lp0
(lp1
I1
aI0
aI0
aI0
aI0
aI0
aI0
aI0
aI0
aI0
aF0.99
aF1.05
aI6
aI0
aa.(lp0
(lp1
I1
aI0
aI0
aI0
aI0
aI0
aI0
aI0
aI0
aI0
aF2.33
aF1.05
aI3
aI0
aa.(lp0
(lp1
I1
aI0
aI0
aI0
aI0
aI0
aI0
aI0
aI0
aI0
aF0.64
aF2.06
aI2
aI0
aa.(lp0
(lp1
I1
aI0
aI0
aI0
aI0
aI0
aI0
aI0
aI0
aI0
aF0.01
aF0.06
aI2
aI0
aa.(lp0
(lp1
I1
aI0
aI0
aI0
aI0
aI0
aI0
aI0
aI0
aI0
aF0.99
aF0.03
aI5
aI0
aa.(lp0
(lp1
I1
aI0
aI0
aI0
aI0
aI0
aI0
aI0
aI0
aI0
aF2.34
aF0.03
aI4
aI0
aa.(lp0
(lp1
I1
aI0
aI0
aI0
aI0
aI0
aI0
aI0
aI0
aI0
aF2.04
aF0.05
aI3
aI1
aa.(lp0
(lp1
I1
aI0
aI0
aI0
aI0
aI0
aI0
aI0
aI0
aI0
aF0.98
aF2.14
aI3
aI0
aa.(lp0
(lp1
I1
aI0
aI0
aI0
aI0
aI0
aI0
aI0
aI0
aI0
aF2.04
aF1.1
aI4
aI0
aa.(lp0
(lp1
I1
aI0
aI0
aI0
aI0
aI0
aI0
aI0
aI0
aI0
aF2.03
aF0.14
aI2
aI0
aa.(lp0
(lp1
I1
aI0
aI0
aI0
aI0
aI0
aI0
aI0
aI0
aI0
aF2.68
aF0.14
aI3
aI0
aa.(lp0
(lp1
I1
aI0
aI0
aI0
aI0
aI0
aI0
aI0
aI0
aI0
aF1.98
aF0.12
aI2
aI0
aa.(lp0
(lp1
I1
aI0
aI0
aI0
aI0
aI0
aI0
aI0
aI0
aI0
aF2.73
aF0.12
aI3
aI0
aa.(lp0
(lp1
I1
aI0
aI0
aI0
aI0
aI0
aI0
aI0
aI0
aI0
aF1.98
aF0.24
aI3
aI0
aa.(lp0
(lp1
I1
aI0
aI0
aI0
aI0
aI0
aI0
aI0
aI0
aI0
aF2.68
aF0.48
aI2
aI0
aa.(lp0
(lp1
I1
aI0
aI0
aI0
aI0
aI0
aI0
aI0
aI0
aI0
aF1.93
aF1.64
aI3
aI0
aa.(lp0
(lp1
I1
aI0
aI0
aI0
aI0
aI0
aI0
aI0
aI0
aI0
aF0.99
aF2.07
aI4
aI0
aa.(lp0
(lp1
I1
aI0
aI0
aI0
aI0
aI0
aI0
aI0
aI0
aI0
aF0.99
aF2.07
aI3
aI0
aa.(lp0
(lp1
I1
aI0
aI0
aI0
aI0
aI0
aI0
aI0
aI0
aI0
aF0.99
aF2.07
aI2
aI0
aa.(lp0
(lp1
I1
aI0
aI0
aI0
aI0
aI0
aI0
aI0
aI0
aI0
aF0.98
aF0.46
aI2
aI0
aa.(lp0
(lp1
I1
aI0
aI0
aI0
aI0
aI0
aI0
aI0
aI0
aI0
aF0.99
aF0.1
aI4
aI0
aa.(lp0
(lp1
I1
aI0
aI0
aI0
aI0
aI0
aI0
aI0
aI0
aI0
aF1.36
aF0.1
aI3
aI0
aa.(lp0
(lp1
I1
aI0
aI0
aI0
aI0
aI0
aI0
aI0
aI0
aI0
aF0.97
aF0.41
aI3
aI0
aa.(lp0
(lp1
I1
aI0
aI0
aI0
aI0
aI0
aI0
aI0
aI0
aI0
aF1.11
aF0.41
aI4
aI0
aa.(lp0
(lp1
I1
aI0
aI0
aI0
aI0
aI0
aI0
aI0
aI0
aI0
aF1.11
aF0.05
aI4
aI1
aa.(lp0
(lp1
I1
aI0
aI0
aI0
aI0
aI0
aI0
aI0
aI0
aI0
aF1.1
aF0.08
aI3
aI1
aa.(lp0
(lp1
I1
aI0
aI0
aI0
aI0
aI0
aI0
aI0
aI0
aI0
aF1.09
aF0.14
aI3
aI0
aa.(lp0
(lp1
I1
aI0
aI0
aI0
aI0
aI0
aI0
aI0
aI0
aI0
aF1.09
aF0.1
aI3
aI0
aa.(lp0
(lp1
I1
aI0
aI0
aI0
aI0
aI0
aI0
aI0
aI0
aI0
aF1.04
aF0.1
aI3
aI0
aa.(lp0
(lp1
I1
aI0
aI0
aI0
aI0
aI0
aI0
aI0
aI0
aI0
aF1.04
aF0.06
aI3
aI0
aa.(lp0
(lp1
I1
aI0
aI0
aI0
aI0
aI0
aI0
aI0
aI0
aI0
aF1.0
aF0.2
aI2
aI0
aa.(lp0
(lp1
I1
aI0
aI0
aI0
aI0
aI0
aI0
aI0
aI0
aI0
aF1.04
aF0.2
aI3
aI0
aa.(lp0
(lp1
I1
aI0
aI0
aI0
aI0
aI0
aI0
aI0
aI0
aI0
aF1.0
aF0.2
aI3
aI0
aa.(lp0
(lp1
I1
aI0
aI0
aI0
aI0
aI0
aI0
aI0
aI0
aI0
aF1.0
aF0.12
aI3
aI0
aa.(lp0
(lp1
I1
aI0
aI0
aI0
aI0
aI0
aI0
aI0
aI0
aI0
aF0.99
aF0.24
aI2
aI0
aa.(lp0
(lp1
I1
aI0
aI0
aI0
aI0
aI0
aI0
aI0
aI0
aI0
aF0.96
aF0.56
aI3
aI0
aa.(lp0
(lp1
I1
aI0
aI0
aI0
aI0
aI0
aI0
aI0
aI0
aI0
aF0.96
aF0.4
aI3
aI0
aa.(lp0
(lp1
I1
aI0
aI0
aI0
aI0
aI0
aI0
aI0
aI0
aI0
aF1.29
aF0.24
aI2
aI0
aa.(lp0
(lp1
I1
aI0
aI0
aI0
aI0
aI0
aI0
aI0
aI0
aI0
aF0.96
aF0.24
aI3
aI0
aa.(lp0
(lp1
I1
aI0
aI0
aI0
aI0
aI0
aI0
aI0
aI0
aI0
aF0.91
aF0.64
aI3
aI0
aa.(lp0
(lp1
I1
aI0
aI0
aI0
aI0
aI0
aI0
aI0
aI0
aI0
aF0.85
aF1.12
aI3
aI0
aa.(lp0
(lp1
I1
aI0
aI0
aI0
aI0
aI0
aI0
aI0
aI0
aI0
aF0.85
aF0.8
aI3
aI0
aa.(lp0
(lp1
I1
aI0
aI0
aI0
aI0
aI0
aI0
aI0
aI0
aI0
aF0.64
aF0.96
aI2
aI0
aa.(lp0
(lp1
I1
aI0
aI0
aI0
aI0
aI0
aI0
aI0
aI0
aI0
aF0.32
aF0.96
aI2
aI0
aa.(lp0
(lp1
I1
aI0
aI0
aI0
aI0
aI0
aI0
aI0
aI0
aI0
aF1.0
aF0.05
aI4
aI0
aa.(lp0
(lp1
I1
aI0
aI0
aI0
aI0
aI0
aI0
aI0
aI0
aI0
aF1.0
aF0.03
aI4
aI0
aa.(lp0
(lp1
I1
aI0
aI0
aI0
aI0
aI0
aI0
aI0
aI0
aI0
aF0.99
aF0.45
aI4
aI0
aa.(lp0
(lp1
I1
aI0
aI0
aI0
aI0
aI0
aI0
aI0
aI0
aI0
aF0.43
aF0.06
aI2
aI0
aa.(lp0
(lp1
I1
aI0
aI0
aI0
aI0
aI0
aI0
aI0
aI0
aI0
aF0.42
aF0.12
aI2
aI0
aa.(lp0
(lp1
I1
aI0
aI0
aI0
aI0
aI0
aI0
aI0
aI0
aI0
aF0.41
aF0.1
aI2
aI0
aa.(lp0
(lp1
I1
aI0
aI0
aI0
aI0
aI0
aI0
aI0
aI0
aI0
aF0.97
aF0.56
aI2
aI0
aa.(lp0
(lp1
I1
aI0
aI0
aI0
aI0
aI0
aI0
aI0
aI0
aI0
aF1.93
aF0.48
aI2
aI0
aa.(lp0
(lp1
I1
aI0
aI0
aI0
aI0
aI0
aI0
aI0
aI0
aI0
aF0.55
aF0.96
aI2
aI0
aa.(lp0
(lp1
I1
aI0
aI0
aI0
aI0
aI0
aI0
aI0
aI0
aI0
aF1.0
aF0.03
aI4
aI0
aa.(lp0
(lp1
I1
aI0
aI0
aI0
aI0
aI0
aI0
aI0
aI0
aI0
aF0.99
aF0.12
aI4
aI0
aa.(lp0
(lp1
I1
aI0
aI0
aI0
aI0
aI0
aI0
aI0
aI0
aI0
aF0.99
aF1.13
aI4
aI0
aa.(lp0
(lp1
I1
aI0
aI0
aI0
aI0
aI0
aI0
aI0
aI0
aI0
aF1.12
aF0.1
aI2
aI0
aa.(lp0
(lp1
I1
aI0
aI0
aI0
aI0
aI0
aI0
aI0
aI0
aI0
aF1.12
aF0.06
aI2
aI0
aa.(lp0
(lp1
I1
aI0
aI0
aI0
aI0
aI0
aI0
aI0
aI0
aI0
aF1.16
aF0.2
aI2
aI1
aa.(lp0
(lp1
I1
aI0
aI0
aI0
aI0
aI0
aI0
aI0
aI0
aI0
aF1.02
aF0.24
aI2
aI0
aa.(lp0
(lp1
I1
aI0
aI0
aI0
aI0
aI0
aI0
aI0
aI0
aI0
aF1.0
aF0.4
aI2
aI0
aa.(lp0
(lp1
I1
aI0
aI0
aI0
aI0
aI0
aI0
aI0
aI0
aI0
aF1.42
aF0.48
aI2
aI0
aa.(lp0
(lp1
I1
aI0
aI0
aI0
aI0
aI0
aI0
aI0
aI0
aI0
aF1.32
aF0.96
aI2
aI0
aa.(lp0
(lp1
I1
aI0
aI0
aI0
aI0
aI0
aI0
aI0
aI0
aI0
aF1.0
aF0.05
aI4
aI0
aa.(lp0
(lp1
I1
aI0
aI0
aI0
aI0
aI0
aI0
aI0
aI0
aI0
aF1.0
aF0.05
aI3
aI0
aa.(lp0
(lp1
I1
aI0
aI0
aI0
aI0
aI0
aI0
aI0
aI0
aI0
aF1.0
aF0.03
aI4
aI0
aa.(lp0
(lp1
I1
aI0
aI0
aI0
aI0
aI1
aI0
aI0
aI0
aI0
aF0.99
aF0.44
aI3
aI0
aa.(lp0
(lp1
I1
aI0
aI0
aI0
aI0
aI0
aI0
aI0
aI0
aI0
aF0.99
aF0.45
aI4
aI0
aa.(lp0
(lp1
I1
aI0
aI0
aI0
aI0
aI1
aI0
aI0
aI0
aI0
aF0.99
aF0.45
aI3
aI0
aa.(lp0
(lp1
I1
aI0
aI0
aI0
aI0
aI0
aI0
aI0
aI0
aI0
aF0.87
aF0.41
aI4
aI0
aa.(lp0
(lp1
I1
aI0
aI0
aI0
aI0
aI0
aI0
aI0
aI0
aI0
aF0.86
aF0.41
aI3
aI0
aa.(lp0
(lp1
I1
aI0
aI0
aI0
aI0
aI0
aI0
aI0
aI0
aI0
aF0.74
aF0.06
aI4
aI0
aa.(lp0
(lp1
I1
aI0
aI0
aI0
aI0
aI1
aI0
aI0
aI0
aI0
aF0.83
aF0.52
aI3
aI0
aa.(lp0
(lp1
I1
aI0
aI0
aI0
aI0
aI0
aI0
aI0
aI0
aI0
aF0.83
aF0.06
aI4
aI0
aa.(lp0
(lp1
I1
aI0
aI0
aI0
aI0
aI0
aI0
aI0
aI0
aI0
aF0.59
aF0.5
aI4
aI0
aa.(lp0
(lp1
I1
aI0
aI0
aI0
aI0
aI0
aI0
aI0
aI0
aI0
aF0.82
aF0.5
aI3
aI0
aa.(lp0
(lp1
I1
aI0
aI0
aI0
aI0
aI0
aI0
aI0
aI0
aI0
aF0.59
aF0.46
aI4
aI0
aa.(lp0
(lp1
I1
aI0
aI0
aI0
aI0
aI0
aI0
aI0
aI0
aI0
aF0.81
aF0.46
aI3
aI1
aa.(lp0
(lp1
I1
aI0
aI0
aI0
aI0
aI0
aI0
aI0
aI0
aI0
aF0.55
aF0.2
aI2
aI0
aa.(lp0
(lp1
I1
aI0
aI0
aI0
aI0
aI0
aI0
aI0
aI0
aI0
aF0.31
aF0.4
aI2
aI0
aa.(lp0
(lp1
I1
aI0
aI0
aI0
aI0
aI1
aI0
aI0
aI0
aI0
aF0.66
aF1.44
aI2
aI0
aa.(lp0
(lp1
I1
aI0
aI0
aI0
aI0
aI0
aI0
aI0
aI0
aI0
aF0.42
aF0.8
aI2
aI0
aa.(lp0
(lp1
I1
aI0
aI0
aI0
aI0
aI0
aI0
aI0
aI0
aI0
aF0.42
aF0.48
aI2
aI0
aa.(lp0
(lp1
I1
aI0
aI0
aI0
aI0
aI0
aI0
aI0
aI0
aI0
aF0.21
aF3.52
aI2
aI0
aa.(lp0
(lp1
I1
aI0
aI0
aI0
aI0
aI0
aI0
aI0
aI0
aI0
aF0.99
aF0.45
aI4
aI0
aa.(lp0
(lp1
I1
aI0
aI0
aI0
aI0
aI0
aI0
aI0
aI0
aI0
aF1.0
aF0.41
aI4
aI0
aa.(lp0
(lp1
I1
aI0
aI0
aI0
aI0
aI0
aI0
aI0
aI0
aI0
aF0.33
aF0.41
aI2
aI0
aa.(lp0
(lp1
I1
aI0
aI0
aI0
aI0
aI0
aI0
aI0
aI0
aI0
aF0.33
aF0.05
aI2
aI1
aa.(lp0
(lp1
I1
aI0
aI0
aI0
aI0
aI0
aI0
aI0
aI0
aI0
aF0.33
aF0.06
aI2
aI0
aa.(lp0
(lp1
I1
aI0
aI0
aI0
aI0
aI0
aI0
aI0
aI0
aI0
aF0.32
aF0.46
aI2
aI0
aa.(lp0
(lp1
I1
aI0
aI0
aI0
aI0
aI0
aI0
aI0
aI0
aI0
aF0.31
aF0.1
aI2
aI0
aa.(lp0
(lp1
I1
aI0
aI0
aI0
aI0
aI0
aI0
aI0
aI0
aI0
aF0.31
aF0.12
aI2
aI0
aa.(lp0
(lp1
I1
aI0
aI0
aI0
aI0
aI0
aI0
aI0
aI0
aI0
aF0.28
aF0.56
aI2
aI0
aa.(lp0
(lp1
I1
aI0
aI0
aI0
aI0
aI0
aI0
aI0
aI0
aI0
aF0.27
aF0.2
aI2
aI0
aa.(lp0
(lp1
I1
aI0
aI0
aI0
aI0
aI0
aI0
aI0
aI0
aI0
aF0.27
aF0.24
aI2
aI1
aa.(lp0
(lp1
I1
aI0
aI0
aI0
aI0
aI0
aI0
aI0
aI0
aI0
aF1.0
aF0.05
aI4
aI0
aa.(lp0
(lp1
I1
aI0
aI0
aI0
aI0
aI0
aI0
aI0
aI0
aI0
aF1.0
aF0.03
aI4
aI0
aa.(lp0
(lp1
I1
aI0
aI0
aI0
aI0
aI0
aI0
aI0
aI0
aI0
aF0.99
aF0.05
aI3
aI0
aa.(lp0
(lp1
I1
aI0
aI0
aI0
aI0
aI0
aI0
aI0
aI0
aI0
aF0.99
aF0.06
aI3
aI0
aa.(lp0
(lp1
I1
aI0
aI0
aI0
aI0
aI0
aI0
aI0
aI0
aI0
aF2.09
aF0.12
aI2
aI0
aa.(lp0
(lp1
I1
aI0
aI0
aI0
aI0
aI0
aI0
aI0
aI0
aI0
aF2.07
aF0.24
aI2
aI0
aa.(lp0
(lp1
I1
aI0
aI0
aI0
aI0
aI0
aI0
aI0
aI0
aI0
aF2.05
aF0.2
aI2
aI1
aa.(lp0
(lp1
I1
aI0
aI0
aI0
aI0
aI0
aI0
aI0
aI0
aI0
aF2.05
aF0.24
aI2
aI0
aa.(lp0
(lp1
I1
aI0
aI0
aI0
aI0
aI0
aI0
aI0
aI0
aI0
aF1.97
aF0.4
aI2
aI0
aa.(lp0
(lp1
I1
aI0
aI0
aI0
aI0
aI0
aI0
aI0
aI0
aI0
aF1.97
aF0.48
aI2
aI0
aa.(lp0
(lp1
I1
aI0
aI0
aI0
aI0
aI0
aI0
aI0
aI0
aI0
aF1.87
aF0.96
aI2
aI0
aa.(lp0
(lp1
I1
aI0
aI0
aI0
aI0
aI0
aI0
aI0
aI0
aI0
aF1.65
aF0.96
aI2
aI0
aa.(lp0
(lp1
I1
aI0
aI0
aI0
aI0
aI0
aI0
aI0
aI0
aI0
aF1.0
aF0.03
aI4
aI0
aa.(lp0
(lp1
I1
aI0
aI0
aI0
aI0
aI0
aI0
aI0
aI0
aI0
aF0.99
aF0.45
aI4
aI1
aa.(lp0
(lp1
I1
aI0
aI0
aI0
aI0
aI0
aI0
aI0
aI0
aI0
aF0.96
aF0.03
aI2
aI0
aa.(lp0
(lp1
I1
aI0
aI0
aI0
aI0
aI0
aI0
aI0
aI0
aI0
aF0.95
aF0.12
aI2
aI0
aa.(lp0
(lp1
I1
aI0
aI0
aI0
aI0
aI0
aI0
aI0
aI0
aI0
aF0.94
aF0.1
aI2
aI0
aa.(lp0
(lp1
I1
aI0
aI0
aI0
aI0
aI0
aI0
aI0
aI0
aI0
aF0.94
aF0.06
aI2
aI0
aa.(lp0
(lp1
I1
aI0
aI0
aI0
aI0
aI0
aI0
aI0
aI0
aI0
aF0.9
aF0.2
aI2
aI0
aa.(lp0
(lp1
I1
aI0
aI0
aI0
aI0
aI0
aI0
aI0
aI0
aI0
aF0.9
aF0.12
aI2
aI0
aa.(lp0
(lp1
I1
aI0
aI0
aI0
aI0
aI0
aI0
aI0
aI0
aI0
aF0.85
aF0.48
aI2
aI0
aa.(lp0
(lp1
I1
aI0
aI0
aI0
aI0
aI0
aI0
aI0
aI0
aI0
aF1.06
aF0.24
aI2
aI0
aa.(lp0
(lp1
I1
aI0
aI0
aI0
aI0
aI0
aI0
aI0
aI0
aI0
aF0.9
aF0.8
aI2
aI1
aa.(lp0
(lp1
I1
aI0
aI0
aI0
aI0
aI0
aI0
aI0
aI0
aI0
aF0.9
aF0.48
aI2
aI0
aa.(lp0
(lp1
I1
aI0
aI0
aI0
aI0
aI0
aI0
aI0
aI0
aI0
aF1.0
aF0.41
aI4
aI0
aa.(lp0
(lp1
I1
aI0
aI0
aI0
aI0
aI1
aI0
aI0
aI0
aI0
aF0.99
aF0.46
aI4
aI1
aa.(lp0
(lp1
I1
aI0
aI0
aI0
aI0
aI0
aI0
aI0
aI0
aI0
aF0.98
aF0.45
aI4
aI1
aa.(lp0
(lp1
I1
aI0
aI0
aI0
aI0
aI0
aI0
aI0
aI0
aI0
aF0.98
aF0.43
aI4
aI0
aa.(lp0
(lp1
I1
aI0
aI0
aI0
aI0
aI0
aI0
aI0
aI0
aI0
aF0.98
aF0.46
aI4
aI0
aa.(lp0
(lp1
I1
aI0
aI0
aI0
aI0
aI0
aI0
aI0
aI0
aI0
aF0.98
aF0.1
aI4
aI0
aa.(lp0
(lp1
I1
aI0
aI0
aI0
aI0
aI0
aI0
aI0
aI0
aI0
aF0.79
aF0.46
aI3
aI0
aa.(lp0
(lp1
I1
aI0
aI0
aI0
aI0
aI0
aI0
aI0
aI0
aI0
aF0.79
aF0.2
aI3
aI0
aa.(lp0
(lp1
I1
aI0
aI0
aI0
aI0
aI0
aI0
aI0
aI0
aI0
aF0.79
aF0.12
aI3
aI0
aa.(lp0
(lp1
I1
aI0
aI0
aI0
aI0
aI0
aI0
aI0
aI0
aI0
aF0.77
aF0.32
aI3
aI0
aa.(lp0
(lp1
I1
aI0
aI0
aI0
aI0
aI0
aI0
aI0
aI0
aI0
aF0.75
aF0.56
aI3
aI0
aa.(lp0
(lp1
I1
aI0
aI0
aI0
aI0
aI0
aI0
aI0
aI0
aI0
aF0.75
aF0.4
aI3
aI0
aa.(lp0
(lp1
I1
aI0
aI0
aI0
aI0
aI0
aI0
aI0
aI0
aI0
aF0.75
aF0.24
aI3
aI0
aa.(lp0
(lp1
I1
aI0
aI0
aI0
aI0
aI0
aI0
aI0
aI0
aI0
aF1.0
aF0.41
aI4
aI0
aa.(lp0
(lp1
I1
aI0
aI0
aI0
aI0
aI0
aI0
aI0
aI0
aI0
aF0.99
aF0.08
aI3
aI0
aa.(lp0
(lp1
I1
aI0
aI0
aI0
aI0
aI0
aI0
aI0
aI0
aI0
aF0.98
aF0.07
aI3
aI1
aa.(lp0
(lp1
I1
aI0
aI0
aI0
aI0
aI0
aI0
aI0
aI0
aI0
aF0.98
aF0.1
aI3
aI0
aa.(lp0
(lp1
I1
aI0
aI0
aI0
aI0
aI0
aI0
aI0
aI0
aI0
aF0.98
aF0.06
aI3
aI0
aa.(lp0
(lp1
I1
aI0
aI0
aI0
aI0
aI0
aI0
aI0
aI0
aI0
aF0.97
aF0.16
aI3
aI0
aa.(lp0
(lp1
I1
aI0
aI0
aI0
aI0
aI0
aI0
aI0
aI0
aI0
aF0.96
aF0.14
aI3
aI0
aa.(lp0
(lp1
I1
aI0
aI0
aI0
aI0
aI0
aI0
aI0
aI0
aI0
aF0.96
aF0.2
aI3
aI0
aa.(lp0
(lp1
I1
aI0
aI0
aI0
aI0
aI0
aI0
aI0
aI0
aI0
aF0.96
aF0.12
aI3
aI0
aa.(lp0
(lp1
I1
aI0
aI0
aI0
aI0
aI0
aI0
aI0
aI0
aI0
aF0.94
aF0.32
aI3
aI0
aa.(lp0
(lp1
I1
aI0
aI0
aI0
aI0
aI0
aI0
aI0
aI0
aI0
aF0.91
aF0.4
aI3
aI0
aa.(lp0
(lp1
I1
aI0
aI0
aI0
aI0
aI0
aI0
aI0
aI0
aI0
aF0.78
aF0.56
aI3
aI0
aa.(lp0
(lp1
I1
aI0
aI0
aI0
aI0
aI0
aI0
aI0
aI0
aI0
aF0.78
aF0.8
aI3
aI0
aa.(lp0
(lp1
I1
aI0
aI0
aI0
aI0
aI0
aI0
aI0
aI0
aI0
aF0.78
aF0.48
aI3
aI0
aa.(lp0
(lp1
I1
aI0
aI0
aI0
aI0
aI0
aI0
aI0
aI0
aI0
aF0.67
aF1.28
aI3
aI0
aa.(lp0
(lp1
I1
aI0
aI0
aI0
aI0
aI0
aI0
aI0
aI0
aI0
aF0.56
aF1.6
aI3
aI0
aa.(lp0
(lp1
I1
aI0
aI0
aI0
aI0
aI0
aI0
aI0
aI0
aI0
aF0.56
aF0.96
aI3
aI0
aa.(lp0
(lp1
I1
aI0
aI0
aI0
aI0
aI0
aI0
aI0
aI0
aI0
aF0.35
aF2.56
aI3
aI0
aa.(lp0
(lp1
I1
aI0
aI0
aI0
aI0
aI0
aI0
aI0
aI0
aI0
aF0.99
aF0.07
aI4
aI0
aa.(lp0
(lp1
I1
aI0
aI0
aI0
aI0
aI0
aI0
aI0
aI0
aI0
aF0.99
aF0.05
aI4
aI0
aa.(lp0
(lp1
I1
aI0
aI0
aI0
aI0
aI0
aI0
aI0
aI0
aI0
aF0.99
aF0.03
aI4
aI0
aa.(lp0
(lp1
I1
aI0
aI0
aI0
aI0
aI0
aI0
aI0
aI0
aI0
aF0.98
aF0.1
aI3
aI0
aa.(lp0
(lp1
I1
aI0
aI0
aI0
aI0
aI0
aI0
aI0
aI0
aI0
aF0.98
aF0.06
aI3
aI0
aa.(lp0
(lp1
I1
aI0
aI0
aI0
aI0
aI0
aI0
aI0
aI0
aI0
aF0.97
aF0.16
aI3
aI1
aa.(lp0
(lp1
I1
aI0
aI0
aI0
aI0
aI0
aI0
aI0
aI0
aI0
aF0.95
aF0.28
aI3
aI0
aa.(lp0
(lp1
I1
aI0
aI0
aI0
aI0
aI0
aI0
aI0
aI0
aI0
aF0.95
aF0.2
aI3
aI0
aa.(lp0
(lp1
I1
aI0
aI0
aI0
aI0
aI0
aI0
aI0
aI0
aI0
aF0.95
aF0.12
aI3
aI0
aa.(lp0
(lp1
I1
aI0
aI0
aI0
aI0
aI0
aI0
aI0
aI0
aI0
aF0.93
aF0.32
aI3
aI0
aa.(lp0
(lp1
I1
aI0
aI0
aI0
aI0
aI0
aI0
aI0
aI0
aI0
aF0.9
aF0.56
aI3
aI0
aa.(lp0
(lp1
I1
aI0
aI0
aI0
aI0
aI0
aI0
aI0
aI0
aI0
aF0.9
aF0.4
aI3
aI0
aa.(lp0
(lp1
I1
aI0
aI0
aI0
aI0
aI0
aI0
aI0
aI0
aI0
aF0.9
aF0.24
aI3
aI0
aa.(lp0
(lp1
I1
aI0
aI0
aI0
aI0
aI0
aI0
aI0
aI0
aI0
aF0.79
aF1.12
aI3
aI0
aa.(lp0
(lp1
I1
aI0
aI0
aI0
aI0
aI0
aI0
aI0
aI0
aI0
aF0.79
aF0.44
aI3
aI0
aa.(lp0
(lp1
I1
aI0
aI0
aI0
aI0
aI0
aI0
aI0
aI0
aI0
aF1.0
aF0.07
aI4
aI0
aa.(lp0
(lp1
I1
aI0
aI0
aI0
aI0
aI0
aI0
aI0
aI0
aI0
aF1.0
aF0.07
aI3
aI0
aa.(lp0
(lp1
I1
aI0
aI0
aI0
aI0
aI0
aI0
aI0
aI0
aI0
aF1.0
aF0.05
aI4
aI0
aa.(lp0
(lp1
I1
aI0
aI0
aI0
aI0
aI0
aI0
aI0
aI0
aI0
aF1.0
aF0.03
aI4
aI0
aa.(lp0
(lp1
I1
aI0
aI0
aI0
aI0
aI1
aI0
aI0
aI0
aI0
aF0.98
aF0.44
aI3
aI0
aa.(lp0
(lp1
I1
aI0
aI0
aI0
aI0
aI1
aI0
aI0
aI0
aI0
aF0.98
aF0.44
aI2
aI0
aa.(lp0
(lp1
I1
aI0
aI0
aI0
aI0
aI0
aI0
aI0
aI0
aI0
aF0.99
aF5.5
aI4
aI0
aa.(lp0
(lp1
I1
aI0
aI0
aI0
aI0
aI1
aI0
aI0
aI0
aI0
aF0.98
aF5.5
aI3
aI0
aa.(lp0
(lp1
I1
aI0
aI0
aI0
aI0
aI0
aI0
aI0
aI0
aI0
aF0.99
aF0.43
aI4
aI0
aa.(lp0
(lp1
I1
aI0
aI0
aI0
aI0
aI0
aI0
aI0
aI0
aI0
aF0.97
aF0.43
aI3
aI0
aa.(lp0
(lp1
I1
aI0
aI0
aI0
aI0
aI1
aI0
aI0
aI0
aI0
aF0.67
aF0.43
aI2
aI0
aa.(lp0
(lp1
I1
aI0
aI0
aI0
aI0
aI0
aI0
aI0
aI0
aI0
aF0.99
aF0.46
aI4
aI0
aa.(lp0
(lp1
I1
aI0
aI0
aI0
aI0
aI0
aI0
aI0
aI0
aI0
aF0.98
aF4.08
aI3
aI0
aa.(lp0
(lp1
I1
aI0
aI0
aI0
aI0
aI1
aI0
aI0
aI0
aI0
aF0.84
aF4.08
aI2
aI0
aa.(lp0
(lp1
I1
aI0
aI0
aI0
aI0
aI0
aI0
aI0
aI0
aI0
aF0.82
aF1.12
aI2
aI0
aa.(lp0
(lp1
I1
aI0
aI0
aI0
aI0
aI0
aI0
aI0
aI0
aI0
aF1.0
aF0.43
aI4
aI0
aa.(lp0
(lp1
I1
aI0
aI0
aI0
aI0
aI0
aI0
aI0
aI0
aI0
aF1.0
aF0.41
aI4
aI0
aa.(lp0
(lp1
I1
aI0
aI0
aI0
aI0
aI0
aI0
aI0
aI0
aI0
aF0.99
aF0.06
aI2
aI0
aa.(lp0
(lp1
I1
aI0
aI0
aI0
aI0
aI0
aI0
aI0
aI0
aI0
aF0.95
aF0.12
aI2
aI0
aa.(lp0
(lp1
I1
aI0
aI0
aI0
aI0
aI0
aI0
aI0
aI0
aI0
aF0.94
aF0.2
aI2
aI0
aa.(lp0
(lp1
I1
aI0
aI0
aI0
aI0
aI0
aI0
aI0
aI0
aI0
aF0.94
aF0.12
aI2
aI0
aa.(lp0
(lp1
I1
aI0
aI0
aI0
aI0
aI0
aI0
aI0
aI0
aI0
aF0.88
aF0.4
aI2
aI0
aa.(lp0
(lp1
I1
aI0
aI0
aI0
aI0
aI0
aI0
aI0
aI0
aI0
aF0.78
aF0.48
aI2
aI0
aa.(lp0
(lp1
I1
aI0
aI0
aI0
aI0
aI0
aI0
aI0
aI0
aI0
aF0.99
aF0.96
aI2
aI0
aa.(lp0
(lp1
I1
aI0
aI0
aI0
aI0
aI0
aI0
aI0
aI0
aI0
aF0.24
aF1.92
aI2
aI1
aa.(lp0
(lp1
I1
aI0
aI0
aI0
aI0
aI0
aI0
aI0
aI0
aI0
aF1.0
aF0.03
aI4
aI0
aa.(lp0
(lp1
I1
aI0
aI0
aI0
aI0
aI0
aI0
aI0
aI0
aI0
aF0.99
aF0.45
aI4
aI0
aa.(lp0
(lp1
I1
aI0
aI0
aI0
aI0
aI0
aI0
aI0
aI0
aI0
aF0.99
aF0.43
aI4
aI0
aa.(lp0
(lp1
I1
aI0
aI0
aI0
aI0
aI0
aI0
aI0
aI0
aI0
aF0.99
aF0.41
aI4
aI0
aa.(lp0
(lp1
I1
aI0
aI0
aI0
aI0
aI0
aI0
aI0
aI0
aI0
aF0.98
aF0.06
aI3
aI0
aa.(lp0
(lp1
I1
aI0
aI0
aI0
aI0
aI0
aI0
aI0
aI0
aI0
aF0.97
aF0.5
aI3
aI0
aa.(lp0
(lp1
I1
aI0
aI0
aI0
aI0
aI0
aI0
aI0
aI0
aI0
aF0.96
aF0.46
aI3
aI0
aa.(lp0
(lp1
I1
aI0
aI0
aI0
aI0
aI0
aI0
aI0
aI0
aI0
aF0.96
aF0.12
aI2
aI0
aa.(lp0
(lp1
I1
aI0
aI0
aI0
aI0
aI0
aI0
aI0
aI0
aI0
aF0.94
aF0.56
aI2
aI0
aa.(lp0
(lp1
I1
aI0
aI0
aI0
aI0
aI0
aI0
aI0
aI0
aI0
aF0.64
aF0.88
aI2
aI0
aa.(lp0
(lp1
I1
aI0
aI0
aI0
aI0
aI0
aI0
aI0
aI0
aI0
aF0.59
aF0.48
aI2
aI0
aa.(lp0
(lp1
I1
aI0
aI0
aI0
aI0
aI0
aI0
aI0
aI0
aI0
aF0.48
aF1.76
aI2
aI0
aa.(lp0
(lp1
I1
aI0
aI0
aI0
aI0
aI0
aI0
aI0
aI0
aI0
aF0.38
aF0.96
aI2
aI0
aa.(lp0
(lp1
I1
aI0
aI0
aI0
aI0
aI0
aI0
aI0
aI0
aI0
aF1.0
aF0.03
aI4
aI0
aa.(lp0
(lp1
I1
aI0
aI0
aI0
aI0
aI0
aI0
aI0
aI0
aI0
aF0.99
aF0.03
aI4
aI0
aa.(lp0
(lp1
I1
aI0
aI0
aI0
aI0
aI0
aI0
aI0
aI0
aI0
aF0.99
aF0.43
aI3
aI0
aa.(lp0
(lp1
I1
aI0
aI0
aI0
aI0
aI0
aI0
aI0
aI0
aI0
aF0.99
aF0.43
aI4
aI0
aa.(lp0
(lp1
I1
aI0
aI0
aI0
aI0
aI0
aI0
aI0
aI0
aI0
aF0.98
aF0.41
aI3
aI0
aa.(lp0
(lp1
I1
aI0
aI0
aI0
aI0
aI0
aI0
aI0
aI0
aI0
aF0.99
aF0.41
aI4
aI0
aa.(lp0
(lp1
I1
aI0
aI0
aI0
aI0
aI0
aI0
aI0
aI0
aI0
aF0.98
aF0.05
aI3
aI0
aa.(lp0
(lp1
I1
aI0
aI0
aI0
aI0
aI0
aI0
aI0
aI0
aI0
aF0.99
aF0.05
aI4
aI0
aa.(lp0
(lp1
I1
aI0
aI0
aI0
aI0
aI0
aI0
aI0
aI0
aI0
aF0.98
aF0.14
aI3
aI0
aa.(lp0
(lp1
I1
aI0
aI0
aI0
aI0
aI1
aI0
aI0
aI0
aI0
aF0.97
aF1.22
aI3
aI0
aa.(lp0
(lp1
I1
aI0
aI0
aI0
aI0
aI0
aI0
aI0
aI0
aI0
aF0.92
aF0.24
aI2
aI1
aa.(lp0
(lp1
I1
aI0
aI0
aI0
aI0
aI0
aI0
aI0
aI0
aI0
aF0.9
aF0.24
aI2
aI0
aa.(lp0
(lp1
I1
aI0
aI0
aI0
aI0
aI0
aI0
aI0
aI0
aI0
aF0.84
aF0.48
aI2
aI1
aa.(lp0
(lp1
I1
aI0
aI0
aI0
aI0
aI0
aI0
aI0
aI0
aI0
aF0.71
aF0.96
aI2
aI0
aa.(lp0
(lp1
I1
aI0
aI0
aI0
aI0
aI0
aI0
aI0
aI0
aI0
aF0.23
aF1.92
aI2
aI0
aa.(lp0
(lp1
I1
aI0
aI0
aI0
aI0
aI0
aI0
aI0
aI0
aI0
aF1.0
aF0.41
aI4
aI0
aa.(lp0
(lp1
I1
aI0
aI0
aI0
aI0
aI0
aI0
aI0
aI0
aI0
aF1.0
aF0.05
aI4
aI0
aa.(lp0
(lp1
I1
aI0
aI0
aI0
aI0
aI0
aI0
aI0
aI0
aI0
aF1.55
aF0.06
aI2
aI0
aa.(lp0
(lp1
I1
aI0
aI0
aI0
aI0
aI0
aI0
aI0
aI0
aI0
aF1.53
aF0.12
aI2
aI0
aa.(lp0
(lp1
I1
aI0
aI0
aI0
aI0
aI0
aI0
aI0
aI0
aI0
aF1.47
aF0.24
aI2
aI1
aa.(lp0
(lp1
I1
aI0
aI0
aI0
aI0
aI0
aI0
aI0
aI0
aI0
aF1.42
aF0.96
aI2
aI1
aa.(lp0
(lp1
I1
aI0
aI0
aI0
aI0
aI0
aI0
aI0
aI0
aI0
aF1.21
aF0.96
aI2
aI1
aa.(lp0
(lp1
I1
aI0
aI0
aI0
aI0
aI0
aI0
aI0
aI0
aI0
aF0.99
aF1.92
aI2
aI0
aa.(lp0
(lp1
I1
aI0
aI0
aI0
aI0
aI0
aI0
aI0
aI0
aI0
aF2.7
aF0.96
aI2
aI0
aa.(lp0
(lp1
I1
aI0
aI0
aI0
aI0
aI0
aI0
aI0
aI0
aI0
aF2.49
aF1.92
aI2
aI0
aa.(lp0
(lp1
I1
aI0
aI0
aI0
aI0
aI0
aI0
aI0
aI0
aI0
aF1.63
aF0.96
aI2
aI0
aa.(lp0
(lp1
I1
aI0
aI0
aI0
aI0
aI0
aI0
aI0
aI0
aI0
aF1.0
aF0.77
aI4
aI0
aa.(lp0
(lp1
I1
aI0
aI0
aI0
aI0
aI0
aI0
aI0
aI0
aI0
aF0.74
aF0.45
aI4
aI0
aa.(lp0
(lp1
I1
aI0
aI0
aI0
aI0
aI1
aI0
aI0
aI0
aI0
aF0.36
aF0.45
aI3
aI0
aa.(lp0
(lp1
I1
aI0
aI0
aI0
aI0
aI0
aI0
aI0
aI0
aI0
aF0.74
aF0.43
aI4
aI0
aa.(lp0
(lp1
I1
aI0
aI0
aI0
aI0
aI0
aI0
aI0
aI0
aI0
aF0.36
aF0.43
aI3
aI0
aa.(lp0
(lp1
I1
aI0
aI0
aI0
aI0
aI0
aI0
aI0
aI0
aI0
aF3.06
aF0.12
aI2
aI0
aa.(lp0
(lp1
I1
aI0
aI0
aI0
aI0
aI0
aI0
aI0
aI0
aI0
aF3.03
aF0.56
aI2
aI0
aa.(lp0
(lp1
I1
aI0
aI0
aI0
aI0
aI1
aI0
aI0
aI0
aI0
aF2.61
aF1.92
aI2
aI0
aa.(lp0
(lp1
I1
aI0
aI0
aI0
aI0
aI1
aI0
aI0
aI0
aI0
aF2.5
aF3.84
aI2
aI0
aa.(lp0
(lp1
I1
aI0
aI0
aI0
aI0
aI0
aI0
aI0
aI0
aI0
aF1.0
aF0.39
aI3
aI0
aa.(lp0
(lp1
I1
aI0
aI0
aI0
aI0
aI0
aI0
aI0
aI0
aI0
aF1.0
aF0.03
aI5
aI0
aa.(lp0
(lp1
I1
aI0
aI0
aI0
aI0
aI0
aI0
aI0
aI0
aI0
aF1.0
aF0.39
aI4
aI0
aa.(lp0
(lp1
I1
aI0
aI0
aI0
aI0
aI1
aI0
aI0
aI0
aI0
aF0.99
aF0.49
aI5
aI0
aa.(lp0
(lp1
I1
aI0
aI0
aI0
aI0
aI1
aI0
aI0
aI0
aI0
aF0.68
aF0.43
aI2
aI0
aa.(lp0
(lp1
I1
aI0
aI0
aI0
aI0
aI0
aI0
aI0
aI0
aI0
aF1.86
aF0.07
aI4
aI0
aa.(lp0
(lp1
I1
aI0
aI0
aI0
aI0
aI0
aI0
aI0
aI0
aI0
aF0.98
aF0.43
aI3
aI0
aa.(lp0
(lp1
I1
aI0
aI0
aI0
aI0
aI0
aI0
aI0
aI0
aI0
aF0.67
aF0.41
aI3
aI0
aa.(lp0
(lp1
I1
aI0
aI0
aI0
aI0
aI0
aI0
aI0
aI0
aI0
aF1.77
aF0.41
aI4
aI0
aa.(lp0
(lp1
I1
aI0
aI0
aI0
aI0
aI0
aI0
aI0
aI0
aI0
aF1.0
aF0.41
aI4
aI0
aa.(lp0
(lp1
I1
aI0
aI0
aI0
aI0
aI0
aI0
aI0
aI0
aI0
aF1.0
aF0.41
aI3
aI0
aa.(lp0
(lp1
I1
aI0
aI0
aI0
aI0
aI0
aI0
aI0
aI0
aI0
aF1.0
aF0.05
aI4
aI0
aa.(lp0
(lp1
I1
aI0
aI0
aI0
aI0
aI1
aI0
aI0
aI0
aI0
aF0.99
aF0.44
aI3
aI0
aa.(lp0
(lp1
I1
aI0
aI0
aI0
aI0
aI0
aI0
aI0
aI0
aI0
aF0.99
aF0.05
aI4
aI0
aa.(lp0
(lp1
I1
aI0
aI0
aI0
aI0
aI1
aI0
aI0
aI0
aI0
aF0.85
aF0.44
aI2
aI1
aa.(lp0
(lp1
I1
aI0
aI0
aI0
aI0
aI0
aI0
aI0
aI0
aI0
aF0.99
aF0.43
aI3
aI1
aa.(lp0
(lp1
I1
aI0
aI0
aI0
aI0
aI0
aI0
aI0
aI0
aI0
aF0.99
aF0.03
aI4
aI0
aa.(lp0
(lp1
I1
aI0
aI0
aI0
aI0
aI1
aI0
aI0
aI0
aI0
aF0.85
aF0.43
aI2
aI0
aa.(lp0
(lp1
I1
aI0
aI0
aI0
aI0
aI0
aI0
aI0
aI0
aI0
aF0.98
aF0.43
aI4
aI0
aa.(lp0
(lp1
I1
aI0
aI0
aI0
aI0
aI0
aI0
aI0
aI0
aI0
aF0.98
aF0.43
aI3
aI0
aa.(lp0
(lp1
I1
aI0
aI0
aI0
aI0
aI1
aI0
aI0
aI0
aI0
aF0.84
aF0.43
aI2
aI0
aa.(lp0
(lp1
I1
aI0
aI0
aI0
aI0
aI0
aI0
aI0
aI0
aI0
aF0.83
aF0.82
aI3
aI0
aa.(lp0
(lp1
I1
aI0
aI0
aI0
aI0
aI0
aI0
aI0
aI0
aI0
aF0.98
aF0.82
aI4
aI0
aa.(lp0
(lp1
I1
aI0
aI0
aI0
aI0
aI0
aI0
aI0
aI0
aI0
aF1.6
aF0.1
aI4
aI0
aa.(lp0
(lp1
I1
aI0
aI0
aI0
aI0
aI0
aI0
aI0
aI0
aI0
aF0.98
aF0.1
aI3
aI0
aa.(lp0
(lp1
I1
aI0
aI0
aI0
aI0
aI0
aI0
aI0
aI0
aI0
aF0.99
aF0.43
aI3
aI0
aa.(lp0
(lp1
I1
aI0
aI0
aI0
aI0
aI0
aI0
aI0
aI0
aI0
aF1.0
aF0.43
aI4
aI0
aa.(lp0
(lp1
I1
aI0
aI0
aI0
aI0
aI0
aI0
aI0
aI0
aI0
aF0.99
aF0.41
aI3
aI0
aa.(lp0
(lp1
I1
aI0
aI0
aI0
aI0
aI0
aI0
aI0
aI0
aI0
aF1.0
aF0.41
aI4
aI0
aa.(lp0
(lp1
I1
aI0
aI0
aI0
aI0
aI0
aI0
aI0
aI0
aI0
aF0.99
aF0.05
aI3
aI0
aa.(lp0
(lp1
I1
aI0
aI0
aI0
aI0
aI0
aI0
aI0
aI0
aI0
aF1.0
aF0.05
aI4
aI0
aa.(lp0
(lp1
I1
aI0
aI0
aI0
aI0
aI0
aI0
aI0
aI0
aI0
aF0.99
aF0.05
aI4
aI1
aa.(lp0
(lp1
I1
aI0
aI0
aI0
aI0
aI0
aI0
aI0
aI0
aI0
aF0.99
aF0.03
aI4
aI0
aa.(lp0
(lp1
I1
aI0
aI0
aI0
aI0
aI0
aI0
aI0
aI0
aI0
aF0.98
aF0.5
aI3
aI0
aa.(lp0
(lp1
I1
aI0
aI0
aI0
aI0
aI0
aI0
aI0
aI0
aI0
aF0.98
aF0.5
aI4
aI1
aa.(lp0
(lp1
I1
aI0
aI0
aI0
aI0
aI0
aI0
aI0
aI0
aI0
aF0.97
aF0.46
aI3
aI0
aa.(lp0
(lp1
I1
aI0
aI0
aI0
aI0
aI0
aI0
aI0
aI0
aI0
aF0.98
aF0.46
aI4
aI0
aa.(lp0
(lp1
I1
aI0
aI0
aI0
aI0
aI0
aI0
aI0
aI0
aI0
aF0.98
aF0.06
aI3
aI0
aa.(lp0
(lp1
I1
aI0
aI0
aI0
aI0
aI0
aI0
aI0
aI0
aI0
aF1.56
aF0.06
aI3
aI0
aa.(lp0
(lp1
I1
aI0
aI0
aI0
aI0
aI0
aI0
aI0
aI0
aI0
aF0.96
aF0.46
aI2
aI1
aa.(lp0
(lp1
I1
aI0
aI0
aI0
aI0
aI0
aI0
aI0
aI0
aI0
aF1.52
aF0.12
aI2
aI0
aa.(lp0
(lp1
I1
aI0
aI0
aI0
aI0
aI0
aI0
aI0
aI0
aI0
aF1.75
aF0.24
aI2
aI0
aa.(lp0
(lp1
I1
aI0
aI0
aI0
aI0
aI0
aI0
aI0
aI0
aI0
aF0.98
aF0.96
aI2
aI0
aa.(lp0
(lp1
I1
aI0
aI0
aI0
aI0
aI0
aI0
aI0
aI0
aI0
aF0.93
aF0.48
aI2
aI1
aa.(lp0
(lp1
I1
aI0
aI0
aI0
aI0
aI0
aI0
aI0
aI0
aI0
aF1.0
aF0.03
aI4
aI0
aa.(lp0
(lp1
I1
aI0
aI0
aI0
aI0
aI0
aI0
aI0
aI0
aI0
aF0.99
aF0.43
aI3
aI0
aa.(lp0
(lp1
I1
aI0
aI0
aI0
aI0
aI0
aI0
aI0
aI0
aI0
aF0.99
aF0.41
aI3
aI0
aa.(lp0
(lp1
I1
aI0
aI0
aI0
aI0
aI0
aI0
aI0
aI0
aI0
aF0.99
aF0.41
aI4
aI1
aa.(lp0
(lp1
I1
aI0
aI0
aI0
aI0
aI0
aI0
aI0
aI0
aI0
aF0.99
aF0.07
aI4
aI0
aa.(lp0
(lp1
I1
aI0
aI0
aI0
aI0
aI0
aI0
aI0
aI0
aI0
aF0.97
aF0.03
aI4
aI0
aa.(lp0
(lp1
I1
aI0
aI0
aI0
aI0
aI0
aI0
aI0
aI0
aI0
aF0.96
aF0.54
aI4
aI0
aa.(lp0
(lp1
I1
aI0
aI0
aI0
aI0
aI0
aI0
aI0
aI0
aI0
aF0.52
aF0.16
aI3
aI0
aa.(lp0
(lp1
I1
aI0
aI0
aI0
aI0
aI0
aI0
aI0
aI0
aI0
aF0.51
aF0.26
aI3
aI0
aa.(lp0
(lp1
I1
aI0
aI0
aI0
aI0
aI0
aI0
aI0
aI0
aI0
aF1.0
aF0.43
aI4
aI0
aa.(lp0
(lp1
I1
aI0
aI0
aI0
aI0
aI0
aI0
aI0
aI0
aI0
aF0.99
aF0.43
aI3
aI0
aa.(lp0
(lp1
I1
aI0
aI0
aI0
aI0
aI0
aI0
aI0
aI0
aI0
aF1.0
aF0.41
aI4
aI0
aa.(lp0
(lp1
I1
aI0
aI0
aI0
aI0
aI0
aI0
aI0
aI0
aI0
aF0.99
aF0.41
aI3
aI0
aa.(lp0
(lp1
I1
aI0
aI0
aI0
aI0
aI1
aI0
aI0
aI0
aI0
aF0.98
aF0.44
aI3
aI0
aa.(lp0
(lp1
I1
aI0
aI0
aI0
aI0
aI0
aI0
aI0
aI0
aI0
aF0.98
aF0.05
aI4
aI0
aa.(lp0
(lp1
I1
aI0
aI0
aI0
aI0
aI0
aI0
aI0
aI0
aI0
aF0.98
aF0.45
aI4
aI0
aa.(lp0
(lp1
I1
aI0
aI0
aI0
aI0
aI1
aI0
aI0
aI0
aI0
aF0.97
aF0.45
aI3
aI0
aa.(lp0
(lp1
I1
aI0
aI0
aI0
aI0
aI0
aI0
aI0
aI0
aI0
aF0.97
aF0.46
aI3
aI0
aa.(lp0
(lp1
I1
aI0
aI0
aI0
aI0
aI0
aI0
aI0
aI0
aI0
aF0.42
aF0.4
aI2
aI0
aa.(lp0
(lp1
I1
aI0
aI0
aI0
aI0
aI1
aI0
aI0
aI0
aI0
aF0.99
aF0.78
aI3
aI1
aa.(lp0
(lp1
I1
aI0
aI0
aI0
aI0
aI0
aI0
aI0
aI0
aI0
aF1.0
aF0.03
aI4
aI0
aa.(lp0
(lp1
I1
aI0
aI0
aI0
aI0
aI0
aI0
aI0
aI0
aI0
aF0.99
aF0.1
aI4
aI0
aa.(lp0
(lp1
I1
aI0
aI0
aI0
aI0
aI0
aI0
aI0
aI0
aI0
aF0.93
aF0.77
aI3
aI1
aa.(lp0
(lp1
I1
aI0
aI0
aI0
aI0
aI0
aI0
aI0
aI0
aI0
aF0.99
aF0.77
aI4
aI0
aa.(lp0
(lp1
I1
aI0
aI0
aI0
aI0
aI0
aI0
aI0
aI0
aI0
aF0.99
aF0.07
aI4
aI0
aa.(lp0
(lp1
I1
aI0
aI0
aI0
aI0
aI0
aI0
aI0
aI0
aI0
aF0.18
aF0.06
aI2
aI0
aa.(lp0
(lp1
I1
aI0
aI0
aI0
aI0
aI0
aI0
aI0
aI0
aI0
aF0.99
aF0.06
aI3
aI0
aa.(lp0
(lp1
I1
aI0
aI0
aI0
aI0
aI0
aI0
aI0
aI0
aI0
aF0.04
aF0.14
aI2
aI0
aa.(lp0
(lp1
I1
aI0
aI0
aI0
aI0
aI0
aI0
aI0
aI0
aI0
aF0.86
aF0.14
aI3
aI0
aa.(lp0
(lp1
I1
aI0
aI0
aI0
aI0
aI0
aI0
aI0
aI0
aI0
aF0.04
aF0.1
aI2
aI0
aa.(lp0
(lp1
I1
aI0
aI0
aI0
aI0
aI0
aI0
aI0
aI0
aI0
aF0.86
aF0.1
aI3
aI1
aa.(lp0
(lp1
I1
aI0
aI0
aI0
aI0
aI0
aI0
aI0
aI0
aI0
aF0.86
aF0.12
aI3
aI0
aa.(lp0
(lp1
I1
aI0
aI0
aI0
aI0
aI0
aI0
aI0
aI0
aI0
aF0.84
aF0.88
aI3
aI0
aa.(lp0
(lp1
I1
aI0
aI0
aI0
aI0
aI0
aI0
aI0
aI0
aI0
aF0.33
aF0.32
aI3
aI0
aa.(lp0
(lp1
I1
aI0
aI0
aI0
aI0
aI0
aI0
aI0
aI0
aI0
aF1.0
aF0.2
aI3
aI0
aa.(lp0
(lp1
I1
aI0
aI0
aI0
aI0
aI0
aI0
aI0
aI0
aI0
aF0.16
aF0.24
aI2
aI0
aa.(lp0
(lp1
I1
aI0
aI0
aI0
aI0
aI0
aI0
aI0
aI0
aI0
aF1.0
aF0.24
aI3
aI0
aa.(lp0
(lp1
I1
aI0
aI0
aI0
aI0
aI0
aI0
aI0
aI0
aI0
aF0.57
aF0.56
aI2
aI0
aa.(lp0
(lp1
I1
aI0
aI0
aI0
aI0
aI0
aI0
aI0
aI0
aI0
aF0.81
aF0.56
aI3
aI0
aa.(lp0
(lp1
I1
aI0
aI0
aI0
aI0
aI0
aI0
aI0
aI0
aI0
aF0.81
aF0.4
aI3
aI1
aa.(lp0
(lp1
I1
aI0
aI0
aI0
aI0
aI0
aI0
aI0
aI0
aI0
aF0.81
aF0.48
aI3
aI0
aa.(lp0
(lp1
I1
aI0
aI0
aI0
aI0
aI0
aI0
aI0
aI0
aI0
aF0.7
aF0.96
aI2
aI0
aa.(lp0
(lp1
I1
aI0
aI0
aI0
aI0
aI1
aI0
aI0
aI0
aI0
aF0.57
aF3.84
aI2
aI0
aa.(lp0
(lp1
I1
aI0
aI0
aI0
aI0
aI0
aI0
aI0
aI0
aI0
aF2.64
aF0.96
aI2
aI0
aa.(lp0
(lp1
I1
aI0
aI0
aI0
aI0
aI0
aI0
aI0
aI0
aI0
aF2.43
aF1.92
aI2
aI0
aa.(lp0
(lp1
I1
aI0
aI0
aI0
aI0
aI1
aI0
aI0
aI0
aI0
aF0.57
aF3.84
aI2
aI0
aa.(lp0
(lp1
I1
aI0
aI0
aI0
aI0
aI0
aI0
aI0
aI0
aI0
aF0.64
aF0.96
aI2
aI0
aa.(lp0
(lp1
I1
aI0
aI0
aI0
aI0
aI0
aI0
aI0
aI0
aI0
aF1.0
aF0.43
aI4
aI0
aa.(lp0
(lp1
I1
aI0
aI0
aI0
aI0
aI0
aI0
aI0
aI0
aI0
aF1.0
aF0.41
aI4
aI1
aa.(lp0
(lp1
I1
aI0
aI0
aI0
aI0
aI1
aI0
aI0
aI0
aI0
aF0.98
aF0.46
aI4
aI0
aa.(lp0
(lp1
I1
aI0
aI0
aI0
aI0
aI0
aI0
aI0
aI0
aI0
aF0.98
aF0.45
aI4
aI0
aa.(lp0
(lp1
I1
aI0
aI0
aI0
aI0
aI0
aI0
aI0
aI0
aI0
aF0.97
aF0.33
aI4
aI0
aa.(lp0
(lp1
I1
aI0
aI0
aI0
aI0
aI0
aI0
aI0
aI0
aI0
aF0.97
aF0.46
aI4
aI0
aa.(lp0
(lp1
I1
aI0
aI0
aI0
aI0
aI0
aI0
aI0
aI0
aI0
aF1.0
aF0.43
aI4
aI0
aa.(lp0
(lp1
I1
aI0
aI0
aI0
aI0
aI0
aI0
aI0
aI0
aI0
aF1.0
aF0.41
aI4
aI0
aa.(lp0
(lp1
I1
aI0
aI0
aI0
aI0
aI0
aI0
aI0
aI0
aI0
aF1.0
aF0.05
aI4
aI0
aa.(lp0
(lp1
I1
aI0
aI0
aI0
aI0
aI1
aI0
aI0
aI0
aI0
aF0.99
aF0.46
aI4
aI0
aa.(lp0
(lp1
I1
aI0
aI0
aI0
aI0
aI0
aI0
aI0
aI0
aI0
aF0.76
aF0.44
aI4
aI0
aa.(lp0
(lp1
I1
aI0
aI0
aI0
aI0
aI0
aI0
aI0
aI0
aI0
aF0.38
aF0.48
aI2
aI0
aa.(lp0
(lp1
I1
aI0
aI0
aI0
aI0
aI0
aI0
aI0
aI0
aI0
aF0.33
aF0.8
aI2
aI1
aa.(lp0
(lp1
I1
aI0
aI0
aI0
aI0
aI0
aI0
aI0
aI0
aI0
aF0.33
aF0.48
aI2
aI0
aa.(lp0
(lp1
I1
aI0
aI0
aI0
aI0
aI0
aI0
aI0
aI0
aI0
aF0.01
aF1.6
aI2
aI0
aa.(lp0
(lp1
I1
aI0
aI0
aI0
aI0
aI0
aI0
aI0
aI0
aI0
aF0.01
aF0.96
aI2
aI0
aa.(lp0
(lp1
I1
aI0
aI0
aI0
aI0
aI0
aI0
aI0
aI0
aI0
aF1.0
aF0.41
aI4
aI1
aa.(lp0
(lp1
I1
aI0
aI0
aI0
aI0
aI0
aI0
aI0
aI0
aI0
aF1.0
aF0.05
aI4
aI0
aa.(lp0
(lp1
I1
aI0
aI0
aI0
aI0
aI0
aI0
aI0
aI0
aI0
aF1.0
aF0.03
aI4
aI1
aa.(lp0
(lp1
I1
aI0
aI0
aI0
aI0
aI0
aI0
aI0
aI0
aI0
aF0.87
aF0.43
aI4
aI0
aa.(lp0
(lp1
I1
aI0
aI0
aI0
aI0
aI0
aI0
aI0
aI0
aI0
aF0.87
aF0.1
aI3
aI0
aa.(lp0
(lp1
I1
aI0
aI0
aI0
aI0
aI0
aI0
aI0
aI0
aI0
aF1.12
aF0.1
aI2
aI0
aa.(lp0
(lp1
I1
aI0
aI0
aI0
aI0
aI0
aI0
aI0
aI0
aI0
aF0.99
aF0.45
aI4
aI0
aa.(lp0
(lp1
I1
aI0
aI0
aI0
aI0
aI0
aI0
aI0
aI0
aI0
aF0.99
aF0.43
aI4
aI0
aa.(lp0
(lp1
I1
aI0
aI0
aI0
aI0
aI0
aI0
aI0
aI0
aI0
aF0.99
aF0.41
aI4
aI0
aa.(lp0
(lp1
I1
aI0
aI0
aI0
aI0
aI1
aI0
aI0
aI0
aI0
aF0.86
aF0.46
aI4
aI0
aa.(lp0
(lp1
I1
aI0
aI0
aI0
aI0
aI0
aI0
aI0
aI0
aI0
aF0.71
aF0.1
aI2
aI0
aa.(lp0
(lp1
I1
aI0
aI0
aI0
aI0
aI0
aI0
aI0
aI0
aI0
aF1.0
aF0.03
aI4
aI0
aa.(lp0
(lp1
I1
aI0
aI0
aI0
aI0
aI0
aI0
aI0
aI0
aI0
aF0.99
aF0.45
aI4
aI0
aa.(lp0
(lp1
I1
aI0
aI0
aI0
aI0
aI0
aI0
aI0
aI0
aI0
aF0.99
aF0.4
aI4
aI0
aa.(lp0
(lp1
I1
aI0
aI0
aI0
aI0
aI0
aI0
aI0
aI0
aI0
aF0.98
aF0.03
aI3
aI0
aa.(lp0
(lp1
I1
aI0
aI0
aI0
aI0
aI0
aI0
aI0
aI0
aI0
aF0.89
aF0.32
aI3
aI0
aa.(lp0
(lp1
I1
aI0
aI0
aI0
aI0
aI0
aI0
aI0
aI0
aI0
aF0.86
aF0.2
aI3
aI0
aa.(lp0
(lp1
I1
aI0
aI0
aI0
aI0
aI0
aI0
aI0
aI0
aI0
aF0.86
aF0.12
aI3
aI0
aa.(lp0
(lp1
I1
aI0
aI0
aI0
aI0
aI0
aI0
aI0
aI0
aI0
aF0.81
aF0.64
aI3
aI0
aa.(lp0
(lp1
I1
aI0
aI0
aI0
aI0
aI0
aI0
aI0
aI0
aI0
aF0.76
aF0.4
aI3
aI0
aa.(lp0
(lp1
I1
aI0
aI0
aI0
aI0
aI0
aI0
aI0
aI0
aI0
aF0.99
aF1.14
aI4
aI0
aa.(lp0
(lp1
I1
aI0
aI0
aI0
aI0
aI0
aI0
aI0
aI0
aI0
aF0.99
aF0.77
aI4
aI1
aa.(lp0
(lp1
I1
aI0
aI0
aI0
aI0
aI0
aI0
aI0
aI0
aI0
aF0.99
aF0.07
aI4
aI0
aa.(lp0
(lp1
I1
aI0
aI0
aI0
aI0
aI0
aI0
aI0
aI0
aI0
aF0.99
aF0.05
aI4
aI0
aa.(lp0
(lp1
I1
aI0
aI0
aI0
aI0
aI0
aI0
aI0
aI0
aI0
aF0.99
aF0.03
aI3
aI0
aa.(lp0
(lp1
I1
aI0
aI0
aI0
aI0
aI0
aI0
aI0
aI0
aI0
aF0.98
aF0.1
aI2
aI0
aa.(lp0
(lp1
I1
aI0
aI0
aI0
aI0
aI0
aI0
aI0
aI0
aI0
aF0.98
aF0.06
aI2
aI0
aa.(lp0
(lp1
I1
aI0
aI0
aI0
aI0
aI0
aI0
aI0
aI0
aI0
aF0.72
aF0.2
aI2
aI0
aa.(lp0
(lp1
I1
aI0
aI0
aI0
aI0
aI0
aI0
aI0
aI0
aI0
aF1.0
aF0.41
aI4
aI0
aa.(lp0
(lp1
I1
aI0
aI0
aI0
aI0
aI0
aI0
aI0
aI0
aI0
aF0.67
aF0.03
aI4
aI0
aa.(lp0
(lp1
I1
aI0
aI0
aI0
aI0
aI0
aI0
aI0
aI0
aI0
aF1.58
aF0.43
aI4
aI0
aa.(lp0
(lp1
I1
aI0
aI0
aI0
aI0
aI0
aI0
aI0
aI0
aI0
aF1.58
aF0.46
aI4
aI0
aa.(lp0
(lp1
I1
aI0
aI0
aI0
aI0
aI0
aI0
aI0
aI0
aI0
aF1.58
aF0.1
aI4
aI0
aa.(lp0
(lp1
I1
aI0
aI0
aI0
aI0
aI0
aI0
aI0
aI0
aI0
aF1.58
aF0.06
aI3
aI0
aa.(lp0
(lp1
I1
aI0
aI0
aI0
aI0
aI0
aI0
aI0
aI0
aI0
aF1.56
aF0.12
aI2
aI0
aa.(lp0
(lp1
I1
aI0
aI0
aI0
aI0
aI0
aI0
aI0
aI0
aI0
aF2.07
aF0.8
aI2
aI0
aa.(lp0
(lp1
I1
aI0
aI0
aI0
aI0
aI0
aI0
aI0
aI0
aI0
aF2.71
aF1.92
aI2
aI0
aa.(lp0
(lp1
I1
aI0
aI0
aI0
aI0
aI0
aI0
aI0
aI0
aI0
aF2.6
aF1.6
aI2
aI1
aa.(lp0
(lp1
I1
aI0
aI0
aI0
aI0
aI0
aI0
aI0
aI0
aI0
aF2.6
aF0.96
aI2
aI1
aa.(lp0
(lp1
I1
aI0
aI0
aI0
aI0
aI0
aI0
aI0
aI0
aI0
aF1.0
aF0.05
aI4
aI0
aa.(lp0
(lp1
I1
aI0
aI0
aI0
aI0
aI1
aI0
aI0
aI0
aI0
aF0.99
aF0.46
aI4
aI0
aa.(lp0
(lp1
I1
aI0
aI0
aI0
aI0
aI0
aI0
aI0
aI0
aI0
aF0.99
aF0.45
aI4
aI0
aa.(lp0
(lp1
I1
aI0
aI0
aI0
aI0
aI0
aI0
aI0
aI0
aI0
aF0.98
aF0.43
aI4
aI0
aa.(lp0
(lp1
I1
aI0
aI0
aI0
aI0
aI0
aI0
aI0
aI0
aI0
aF0.98
aF0.41
aI4
aI0
aa.(lp0
(lp1
I1
aI0
aI0
aI0
aI0
aI0
aI0
aI0
aI0
aI0
aF0.56
aF0.06
aI4
aI0
aa.(lp0
(lp1
I1
aI0
aI0
aI0
aI0
aI0
aI0
aI0
aI0
aI0
aF0.54
aF0.54
aI4
aI0
aa.(lp0
(lp1
I1
aI0
aI0
aI0
aI0
aI0
aI0
aI0
aI0
aI0
aF0.54
aF0.18
aI4
aI0
aa.(lp0
(lp1
I1
aI0
aI0
aI0
aI0
aI0
aI0
aI0
aI0
aI0
aF0.42
aF0.2
aI4
aI0
aa.(lp0
(lp1
I1
aI0
aI0
aI0
aI0
aI0
aI0
aI0
aI0
aI0
aF0.42
aF0.12
aI4
aI0
aa.(lp0
(lp1
I1
aI0
aI0
aI0
aI0
aI0
aI0
aI0
aI0
aI0
aF0.9
aF0.64
aI3
aI0
aa.(lp0
(lp1
I1
aI0
aI0
aI0
aI0
aI0
aI0
aI0
aI0
aI0
aF0.63
aF0.96
aI2
aI0
aa.(lp0
(lp1
I1
aI0
aI0
aI0
aI0
aI0
aI0
aI0
aI0
aI0
aF0.58
aF0.8
aI2
aI1
aa.(lp0
(lp1
I1
aI0
aI0
aI0
aI0
aI0
aI0
aI0
aI0
aI0
aF0.58
aF0.96
aI2
aI1
aa.(lp0
(lp1
I1
aI0
aI0
aI0
aI0
aI0
aI0
aI0
aI0
aI0
aF0.36
aF1.92
aI2
aI0
aa.(lp0
(lp1
I1
aI0
aI0
aI0
aI0
aI0
aI0
aI0
aI0
aI0
aF0.94
aF0.96
aI2
aI0
aa.(lp0
(lp1
I1
aI0
aI0
aI0
aI0
aI0
aI0
aI0
aI0
aI0
aF0.73
aF1.92
aI2
aI0
aa.(lp0
(lp1
I1
aI0
aI0
aI0
aI0
aI0
aI0
aI0
aI0
aI0
aF0.62
aF1.6
aI2
aI0
aa.