(lp0
(lp1
I1
aI0
aI0
aI0
aI0
aI0
aI0
aI0
aI0
aI0
aF0.99
aF0.81
aI5
aI0
aI0
aI0
aI0
aI0
aI0
aI0
aI0
aI0
aI0
aI0
aI0
aI0
aI0
aI0
aI0
aI0
aI0
aI0
aI0
aI0
aI0
aI0
aI0
aF0.67
aa.(lp0
(lp1
I0
aI0
aI0
aI0
aI0
aI1
aI0
aI0
aI0
aI0
aF0.88
aF0.81
aI7
aI0
aI0
aI0
aI0
aI0
aI0
aI0
aI0
aI0
aI0
aI0
aI0
aI0
aI0
aI0
aI0
aI0
aI0
aI0
aI0
aI0
aI0
aI0
aI0
aF0.83
aa(lp2
I0
aI0
aI0
aI0
aI0
aI1
aI0
aI0
aI0
aI0
aF0.88
aF0.81
aI7
aI0
aI0
aI0
aI0
aI1
aF0.0
aF3.81
aI2
aI0
aI0
aI0
aI0
aI0
aI0
aI0
aI0
aI0
aI0
aI0
aI0
aI0
aI0
aI0
aI0
aF0.83
aa(lp3
I0
aI0
aI0
aI0
aI0
aI1
aI0
aI0
aI0
aI0
aF0.88
aF0.81
aI7
aI0
aI0
aI0
aI0
aI1
aF0.0
aF3.81
aI2
aI0
aI0
aI0
aI0
aI0
aI0
aI0
aI0
aI0
aI0
aI0
aI0
aI0
aI0
aI0
aI0
aF0.83
aa(lp4
I0
aI0
aI0
aI0
aI0
aI1
aI0
aI0
aI0
aI0
aF0.88
aF0.81
aI7
aI0
aI0
aI0
aI0
aI1
aF0.0
aF3.81
aI2
aI0
aI0
aI0
aI0
aI0
aI0
aI0
aI0
aI0
aI0
aI0
aI0
aI0
aI0
aI0
aI0
aF0.83
aa.(lp0
(lp1
I1
aI0
aI0
aI0
aI0
aI0
aI0
aI0
aI0
aI0
aF1.0
aF0.81
aI6
aI0
aI0
aI0
aI0
aI0
aI0
aI0
aI0
aI0
aI0
aI0
aI0
aI0
aI0
aI0
aI0
aI0
aI0
aI0
aI0
aI0
aI0
aI0
aI0
aF0.17
aa.(lp0
(lp1
I1
aI0
aI0
aI0
aI0
aI1
aI0
aI0
aI0
aI0
aF0.99
aF0.81
aI3
aI0
aI0
aI0
aI0
aI0
aI0
aI0
aI0
aI0
aI0
aI0
aI0
aI0
aI0
aI0
aI0
aI0
aI0
aI0
aI0
aI0
aI0
aI0
aI0
aF0.5
aa.(lp0
(lp1
I1
aI0
aI0
aI0
aI0
aI1
aI0
aI0
aI0
aI0
aF0.99
aF0.81
aI2
aI0
aI0
aI0
aI0
aI0
aI0
aI0
aI0
aI0
aI0
aI0
aI0
aI0
aI0
aI0
aI0
aI0
aI0
aI0
aI0
aI0
aI0
aI0
aI0
aF0.0
aa.(lp0
(lp1
I0
aI0
aI0
aI0
aI0
aI0
aI1
aI0
aI0
aI0
aF0.88
aF0.45
aI7
aI0
aI0
aI0
aI0
aI0
aI0
aI0
aI0
aI0
aI0
aI0
aI0
aI0
aI0
aI0
aI0
aI0
aI0
aI0
aI0
aI0
aI0
aI0
aI0
aF1.0
aa(lp2
I0
aI0
aI0
aI0
aI0
aI0
aI1
aI0
aI0
aI0
aF0.88
aF0.45
aI7
aI0
aI1
aI0
aI0
aI1
aF0.0
aF6.09
aI2
aI0
aI0
aI0
aI0
aI0
aI0
aI0
aI0
aI0
aI0
aI0
aI0
aI0
aI0
aI0
aI0
aF1.0
aa(lp3
I0
aI0
aI0
aI0
aI0
aI0
aI1
aI0
aI0
aI0
aF0.88
aF0.45
aI7
aI0
aI1
aI0
aI0
aI1
aF0.0
aF6.09
aI2
aI0
aI0
aI0
aI0
aI0
aI0
aI0
aI0
aI0
aI0
aI0
aI0
aI0
aI0
aI0
aI0
aF1.0
aa(lp4
I0
aI0
aI0
aI0
aI0
aI0
aI1
aI0
aI0
aI0
aF0.88
aF0.45
aI7
aI0
aI1
aI0
aI0
aI1
aF0.0
aF6.09
aI2
aI0
aI0
aI0
aI0
aI0
aI0
aI0
aI0
aI0
aI0
aI0
aI0
aI0
aI0
aI0
aI0
aF1.0
aa.(lp0
(lp1
I1
aI0
aI0
aI0
aI0
aI1
aI0
aI0
aI0
aI0
aF0.99
aF0.81
aI4
aI0
aI0
aI0
aI0
aI0
aI0
aI0
aI0
aI0
aI0
aI0
aI0
aI0
aI0
aI0
aI0
aI0
aI0
aI0
aI0
aI0
aI0
aI0
aI0
aF0.33
aa.(lp0
(lp1
I1
aI0
aI0
aI0
aI0
aI0
aI0
aI0
aI0
aI0
aF0.99
aF0.43
aI4
aI0
aI0
aI0
aI0
aI0
aI0
aI0
aI0
aI0
aI0
aI0
aI0
aI0
aI0
aI0
aI0
aI0
aI0
aI0
aI0
aI0
aI0
aI0
aI0
aF0.33
aa.(lp0
(lp1
I1
aI0
aI0
aI0
aI0
aI0
aI0
aI0
aI0
aI0
aF1.0
aF0.43
aI5
aI0
aI0
aI0
aI0
aI0
aI0
aI0
aI0
aI0
aI0
aI0
aI0
aI0
aI0
aI0
aI0
aI0
aI0
aI0
aI0
aI0
aI0
aI0
aI0
aF0.5
aa.(lp0
(lp1
I0
aI1
aI0
aI0
aI0
aI2
aI0
aI0
aI0
aI0
aF0.87
aF0.77
aI3
aI0
aI0
aI0
aI0
aI0
aI0
aI0
aI0
aI0
aI0
aI0
aI0
aI0
aI0
aI0
aI0
aI0
aI0
aI0
aI0
aI0
aI0
aI0
aI0
aF1.0
aa(lp2
I0
aI1
aI0
aI0
aI0
aI2
aI0
aI0
aI0
aI0
aF0.87
aF0.77
aI3
aI0
aI0
aI0
aI0
aI0
aF0.87
aF1.13
aI1
aI0
aI0
aI0
aI0
aI0
aI0
aI0
aI0
aI0
aI0
aI0
aI0
aI0
aI0
aI0
aI0
aF0.67
aa.(lp0
(lp1
I1
aI0
aI0
aI0
aI0
aI1
aI0
aI0
aI0
aI0
aF0.99
aF0.77
aI2
aI0
aI0
aI0
aI0
aI0
aI0
aI0
aI0
aI0
aI0
aI0
aI0
aI0
aI0
aI0
aI0
aI0
aI0
aI0
aI0
aI0
aI0
aI0
aI0
aF0.17
aa.(lp0
(lp1
I0
aI0
aI0
aI0
aI0
aI0
aI1
aI0
aI0
aI0
aF1.91
aF0.43
aI6
aI0
aI0
aI0
aI0
aI0
aI0
aI0
aI0
aI0
aI0
aI0
aI0
aI0
aI0
aI0
aI0
aI0
aI0
aI0
aI0
aI0
aI0
aI0
aI0
aF0.67
aa(lp2
I0
aI0
aI0
aI0
aI0
aI0
aI1
aI0
aI0
aI0
aF1.91
aF0.43
aI6
aI0
aI1
aI0
aI0
aI0
aF1.79
aF1.13
aI2
aI0
aI0
aI0
aI0
aI0
aI0
aI0
aI0
aI0
aI0
aI0
aI0
aI0
aI0
aI0
aI0
aF0.83
aa(lp3
I0
aI0
aI0
aI0
aI0
aI0
aI1
aI0
aI0
aI0
aF1.91
aF0.43
aI6
aI0
aI1
aI0
aI0
aI0
aF1.79
aF1.13
aI2
aI0
aI0
aI0
aI0
aI0
aI0
aI0
aI0
aI0
aI0
aI0
aI0
aI0
aI0
aI0
aI0
aF0.83
aa(lp4
I0
aI0
aI0
aI0
aI0
aI0
aI1
aI0
aI0
aI0
aF1.91
aF0.43
aI6
aI0
aI1
aI0
aI0
aI0
aF1.79
aF1.13
aI2
aI0
aI0
aI0
aI0
aI0
aI0
aI0
aI0
aI0
aI0
aI0
aI0
aI0
aI0
aI0
aI0
aF0.83
aa.(lp0
(lp1
I1
aI0
aI0
aI0
aI0
aI0
aI0
aI0
aI0
aI0
aF0.99
aF0.43
aI3
aI0
aI0
aI0
aI0
aI0
aI0
aI0
aI0
aI0
aI0
aI0
aI0
aI0
aI0
aI0
aI0
aI0
aI0
aI0
aI0
aI0
aI0
aI0
aI0
aF0.83
aa.(lp0
(lp1
I1
aI0
aI0
aI0
aI0
aI0
aI0
aI0
aI0
aI0
aF0.99
aF0.05
aI4
aI0
aI0
aI0
aI0
aI0
aI0
aI0
aI0
aI0
aI0
aI0
aI0
aI0
aI0
aI0
aI0
aI0
aI0
aI0
aI0
aI0
aI0
aI0
aI0
aF0.83
aa.(lp0
(lp1
I1
aI0
aI0
aI0
aI0
aI0
aI0
aI0
aI0
aI0
aF1.02
aF0.05
aI5
aI0
aI0
aI0
aI0
aI0
aI0
aI0
aI0
aI0
aI0
aI0
aI0
aI0
aI0
aI0
aI0
aI0
aI0
aI0
aI0
aI0
aI0
aI0
aI0
aF0.67
aa.(lp0
(lp1
I0
aI1
aI0
aI0
aI0
aI1
aI0
aI0
aI0
aI0
aF0.86
aF0.08
aI4
aI0
aI0
aI0
aI0
aI0
aI0
aI0
aI0
aI0
aI0
aI0
aI0
aI0
aI0
aI0
aI0
aI0
aI0
aI0
aI0
aI0
aI0
aI0
aI0
aF0.5
aa(lp2
I0
aI1
aI0
aI0
aI0
aI1
aI0
aI0
aI0
aI0
aF0.86
aF0.08
aI4
aI0
aI0
aI0
aI0
aI0
aF0.86
aF0.08
aI3
aI0
aI0
aI0
aI0
aI0
aI0
aI0
aI0
aI0
aI0
aI0
aI0
aI0
aI0
aI0
aI0
aF0.33
aa.(lp0
(lp1
I0
aI1
aI0
aI0
aI0
aI1
aI0
aI0
aI0
aI0
aF0.97
aF0.08
aI4
aI0
aI0
aI0
aI0
aI0
aI0
aI0
aI0
aI0
aI0
aI0
aI0
aI0
aI0
aI0
aI0
aI0
aI0
aI0
aI0
aI0
aI0
aI0
aI0
aF0.33
aa(lp2
I0
aI1
aI0
aI0
aI0
aI1
aI0
aI0
aI0
aI0
aF0.97
aF0.08
aI4
aI0
aI1
aI0
aI0
aI0
aF0.97
aF0.22
aI1
aI0
aI0
aI0
aI0
aI0
aI0
aI0
aI0
aI0
aI0
aI0
aI0
aI0
aI0
aI0
aI0
aF1.0
aa.(lp0
(lp1
I0
aI0
aI0
aI0
aI0
aI1
aI0
aI0
aI0
aI0
aF2.15
aF0.05
aI6
aI0
aI0
aI0
aI0
aI0
aI0
aI0
aI0
aI0
aI0
aI0
aI0
aI0
aI0
aI0
aI0
aI0
aI0
aI0
aI0
aI0
aI0
aI0
aI0
aF1.0
aa(lp2
I0
aI0
aI0
aI0
aI0
aI1
aI0
aI0
aI0
aI0
aF2.15
aF0.05
aI6
aI0
aI1
aI0
aI0
aI0
aF2.11
aF0.22
aI3
aI0
aI0
aI0
aI0
aI0
aI0
aI0
aI0
aI0
aI0
aI0
aI0
aI0
aI0
aI0
aI0
aF0.83
aa(lp3
I0
aI0
aI0
aI0
aI0
aI1
aI0
aI0
aI0
aI0
aF2.15
aF0.05
aI6
aI0
aI1
aI0
aI0
aI0
aF2.11
aF0.22
aI3
aI0
aI0
aI0
aI0
aI0
aI0
aI0
aI0
aI0
aI0
aI0
aI0
aI0
aI0
aI0
aI0
aF0.83
aa(lp4
I0
aI0
aI0
aI0
aI0
aI1
aI0
aI0
aI0
aI0
aF2.15
aF0.05
aI6
aI0
aI1
aI0
aI0
aI0
aF2.11
aF0.22
aI3
aI0
aI0
aI0
aI0
aI0
aI0
aI0
aI0
aI0
aI0
aI0
aI0
aI0
aI0
aI0
aI0
aF0.83
aa.(lp0
(lp1
I0
aI1
aI0
aI0
aI0
aI1
aI0
aI0
aI0
aI0
aF0.98
aF0.07
aI4
aI0
aI0
aI0
aI0
aI0
aI0
aI0
aI0
aI0
aI0
aI0
aI0
aI0
aI0
aI0
aI0
aI0
aI0
aI0
aI0
aI0
aI0
aI0
aI0
aF0.17
aa(lp2
I0
aI1
aI0
aI0
aI0
aI1
aI0
aI0
aI0
aI0
aF0.98
aF0.07
aI4
aI0
aI0
aI0
aI0
aI0
aF0.98
aF0.22
aI2
aI0
aI0
aI0
aI0
aI0
aI0
aI0
aI0
aI0
aI0
aI0
aI0
aI0
aI0
aI0
aI0
aF0.17
aa.(lp0
(lp1
I1
aI0
aI0
aI0
aI0
aI0
aI0
aI0
aI0
aI0
aF0.99
aF0.03
aI4
aI0
aI0
aI0
aI0
aI0
aI0
aI0
aI0
aI0
aI0
aI0
aI0
aI0
aI0
aI0
aI0
aI0
aI0
aI0
aI0
aI0
aI0
aI0
aI0
aF0.83
aa.(lp0
(lp1
I1
aI0
aI0
aI0
aI0
aI0
aI0
aI0
aI0
aI0
aF1.02
aF0.03
aI5
aI0
aI0
aI0
aI0
aI0
aI0
aI0
aI0
aI0
aI0
aI0
aI0
aI0
aI0
aI0
aI0
aI0
aI0
aI0
aI0
aI0
aI0
aI0
aI0
aF0.17
aa.(lp0
(lp1
I0
aI1
aI0
aI0
aI0
aI1
aI0
aI0
aI0
aI0
aF0.85
aF0.11
aI4
aI0
aI0
aI0
aI0
aI0
aI0
aI0
aI0
aI0
aI0
aI0
aI0
aI0
aI0
aI0
aI0
aI0
aI0
aI0
aI0
aI0
aI0
aI0
aI0
aF0.67
aa(lp2
I0
aI1
aI0
aI0
aI0
aI1
aI0
aI0
aI0
aI0
aF0.85
aF0.11
aI4
aI0
aI0
aI0
aI0
aI0
aF0.85
aF0.2
aI2
aI0
aI0
aI0
aI0
aI0
aI0
aI0
aI0
aI0
aI0
aI0
aI0
aI0
aI0
aI0
aI0
aF0.5
aa.(lp0
(lp1
I0
aI0
aI0
aI0
aI0
aI1
aI0
aI0
aI0
aI0
aF0.95
aF0.14
aI4
aI0
aI0
aI0
aI0
aI0
aI0
aI0
aI0
aI0
aI0
aI0
aI0
aI0
aI0
aI0
aI0
aI0
aI0
aI0
aI0
aI0
aI0
aI0
aI0
aF0.33
aa(lp2
I0
aI0
aI0
aI0
aI0
aI1
aI0
aI0
aI0
aI0
aF0.95
aF0.14
aI4
aI0
aI1
aI0
aI0
aI0
aF0.95
aF0.18
aI4
aI0
aI0
aI0
aI0
aI0
aI0
aI0
aI0
aI0
aI0
aI0
aI0
aI0
aI0
aI0
aI0
aF0.67
aa(lp3
I0
aI0
aI0
aI0
aI0
aI1
aI0
aI0
aI0
aI0
aF0.95
aF0.14
aI4
aI0
aI1
aI0
aI0
aI0
aF0.95
aF0.18
aI4
aI0
aI1
aI0
aI0
aI0
aF0.94
aF0.22
aI2
aI0
aI0
aI0
aI0
aI0
aI0
aI0
aI0
aF0.5
aa(lp4
I0
aI0
aI0
aI0
aI0
aI1
aI0
aI0
aI0
aI0
aF0.95
aF0.14
aI4
aI0
aI1
aI0
aI0
aI0
aF0.95
aF0.18
aI4
aI0
aI1
aI0
aI0
aI0
aF0.94
aF0.22
aI2
aI0
aI1
aI0
aI0
aI0
aF0.93
aF0.26
aI2
aF0.58
aa.(lp0
(lp1
I0
aI1
aI0
aI0
aI0
aI1
aI0
aI0
aI0
aI0
aF2.17
aF0.16
aI4
aI0
aI0
aI0
aI0
aI0
aI0
aI0
aI0
aI0
aI0
aI0
aI0
aI0
aI0
aI0
aI0
aI0
aI0
aI0
aI0
aI0
aI0
aI0
aI0
aF0.5
aa(lp2
I0
aI1
aI0
aI0
aI0
aI1
aI0
aI0
aI0
aI0
aF2.17
aF0.16
aI4
aI0
aI0
aI0
aI0
aI0
aF2.17
aF0.18
aI3
aI0
aI0
aI0
aI0
aI0
aI0
aI0
aI0
aI0
aI0
aI0
aI0
aI0
aI0
aI0
aI0
aF0.33
aa.(lp0
(lp1
I0
aI0
aI0
aI0
aI0
aI0
aI0
aI1
aI0
aI0
aF0.96
aF0.07
aI4
aI0
aI0
aI0
aI0
aI0
aI0
aI0
aI0
aI0
aI0
aI0
aI0
aI0
aI0
aI0
aI0
aI0
aI0
aI0
aI0
aI0
aI0
aI0
aI0
aF1.0
aa(lp2
I0
aI0
aI0
aI0
aI0
aI0
aI0
aI1
aI0
aI0
aF0.96
aF0.07
aI4
aI1
aI0
aI0
aI0
aI0
aF0.96
aF0.2
aI3
aI0
aI0
aI0
aI0
aI0
aI0
aI0
aI0
aI0
aI0
aI0
aI0
aI0
aI0
aI0
aI0
aF1.0
aa(lp3
I0
aI0
aI0
aI0
aI0
aI0
aI0
aI1
aI0
aI0
aF0.96
aF0.07
aI4
aI1
aI0
aI0
aI0
aI0
aF0.96
aF0.2
aI3
aI1
aI0
aI0
aI0
aI0
aF0.95
aF0.24
aI2
aI0
aI0
aI0
aI0
aI0
aI0
aI0
aI0
aF0.83
aa(lp4
I0
aI0
aI0
aI0
aI0
aI0
aI0
aI1
aI0
aI0
aF0.96
aF0.07
aI4
aI1
aI0
aI0
aI0
aI0
aF0.96
aF0.2
aI3
aI1
aI0
aI0
aI0
aI0
aF0.95
aF0.24
aI2
aI1
aI0
aI0
aI0
aI0
aF0.94
aF0.28
aI2
aF0.83
aa.(lp0
(lp1
I1
aI0
aI0
aI0
aI0
aI0
aI0
aI0
aI0
aI0
aF0.99
aF0.03
aI5
aI0
aI0
aI0
aI0
aI0
aI0
aI0
aI0
aI0
aI0
aI0
aI0
aI0
aI0
aI0
aI0
aI0
aI0
aI0
aI0
aI0
aI0
aI0
aI0
aF0.83
aa.(lp0
(lp1
I1
aI0
aI0
aI0
aI0
aI0
aI0
aI0
aI0
aI0
aF1.01
aF0.1
aI4
aI0
aI0
aI0
aI0
aI0
aI0
aI0
aI0
aI0
aI0
aI0
aI0
aI0
aI0
aI0
aI0
aI0
aI0
aI0
aI0
aI0
aI0
aI0
aI0
aF0.67
aa.(lp0
(lp1
I0
aI1
aI0
aI0
aI0
aI1
aI0
aI0
aI0
aI0
aF0.84
aF0.07
aI5
aI0
aI0
aI0
aI0
aI0
aI0
aI0
aI0
aI0
aI0
aI0
aI0
aI0
aI0
aI0
aI0
aI0
aI0
aI0
aI0
aI0
aI0
aI0
aI0
aF1.0
aa(lp2
I0
aI1
aI0
aI0
aI0
aI1
aI0
aI0
aI0
aI0
aF0.84
aF0.07
aI5
aI0
aI0
aI0
aI0
aI0
aF0.84
aF0.46
aI2
aI0
aI0
aI0
aI0
aI0
aI0
aI0
aI0
aI0
aI0
aI0
aI0
aI0
aI0
aI0
aI0
aF0.5
aa.(lp0
(lp1
I0
aI0
aI0
aI0
aI0
aI1
aI0
aI0
aI0
aI0
aF0.93
aF0.09
aI5
aI0
aI0
aI0
aI0
aI0
aI0
aI0
aI0
aI0
aI0
aI0
aI0
aI0
aI0
aI0
aI0
aI0
aI0
aI0
aI0
aI0
aI0
aI0
aI0
aF0.33
aa(lp2
I0
aI0
aI0
aI0
aI0
aI1
aI0
aI0
aI0
aI0
aF0.93
aF0.09
aI5
aI1
aI0
aI0
aI0
aI0
aF0.81
aF0.82
aI2
aI0
aI0
aI0
aI0
aI0
aI0
aI0
aI0
aI0
aI0
aI0
aI0
aI0
aI0
aI0
aI0
aF0.67
aa(lp3
I0
aI0
aI0
aI0
aI0
aI1
aI0
aI0
aI0
aI0
aF0.93
aF0.09
aI5
aI1
aI0
aI0
aI0
aI0
aF0.81
aF0.82
aI2
aI0
aI2
aI0
aI0
aI0
aF0.56
aF2.27
aI2
aI0
aI0
aI0
aI0
aI0
aI0
aI0
aI0
aF1.0
aa(lp4
I0
aI0
aI0
aI0
aI0
aI1
aI0
aI0
aI0
aI0
aF0.93
aF0.09
aI5
aI1
aI0
aI0
aI0
aI0
aF0.81
aF0.82
aI2
aI0
aI2
aI0
aI0
aI0
aF0.56
aF2.27
aI2
aI1
aI0
aI0
aI0
aI0
aF0.36
aF3.49
aI2
aF0.83
aa.(lp0
(lp1
I0
aI0
aI0
aI0
aI0
aI1
aI0
aI0
aI0
aI0
aF2.17
aF0.1
aI5
aI0
aI0
aI0
aI0
aI0
aI0
aI0
aI0
aI0
aI0
aI0
aI0
aI0
aI0
aI0
aI0
aI0
aI0
aI0
aI0
aI0
aI0
aI0
aI0
aF0.5
aa(lp2
I0
aI0
aI0
aI0
aI0
aI1
aI0
aI0
aI0
aI0
aF2.17
aF0.1
aI5
aI0
aI1
aI0
aI0
aI0
aF2.05
aF0.46
aI4
aI0
aI0
aI0
aI0
aI0
aI0
aI0
aI0
aI0
aI0
aI0
aI0
aI0
aI0
aI0
aI0
aF1.0
aa(lp3
I0
aI0
aI0
aI0
aI0
aI1
aI0
aI0
aI0
aI0
aF2.17
aF0.1
aI5
aI0
aI1
aI0
aI0
aI0
aF2.05
aF0.46
aI4
aI1
aI2
aI0
aI0
aI0
aF1.8
aF2.29
aI2
aI0
aI0
aI0
aI0
aI0
aI0
aI0
aI0
aF0.83
aa(lp4
I0
aI0
aI0
aI0
aI0
aI1
aI0
aI0
aI0
aI0
aF2.17
aF0.1
aI5
aI0
aI1
aI0
aI0
aI0
aF2.05
aF0.46
aI4
aI1
aI2
aI0
aI0
aI0
aF1.8
aF2.29
aI2
aI0
aI1
aI0
aI0
aI0
aF1.6
aF2.89
aI2
aF1.0
aa.(lp0
(lp1
I0
aI1
aI0
aI0
aI0
aI1
aI0
aI0
aI0
aI0
aF1.03
aF0.05
aI5
aI0
aI0
aI0
aI0
aI0
aI0
aI0
aI0
aI0
aI0
aI0
aI0
aI0
aI0
aI0
aI0
aI0
aI0
aI0
aI0
aI0
aI0
aI0
aI0
aF0.17
aa(lp2
I0
aI1
aI0
aI0
aI0
aI1
aI0
aI0
aI0
aI0
aF1.03
aF0.05
aI5
aI0
aI0
aI0
aI0
aI0
aF1.03
aF0.46
aI3
aI0
aI0
aI0
aI0
aI0
aI0
aI0
aI0
aI0
aI0
aI0
aI0
aI0
aI0
aI0
aI0
aF0.17
aa.(lp0
(lp1
I1
aI0
aI0
aI0
aI0
aI0
aI0
aI0
aI0
aI0
aF0.97
aF0.14
aI3
aI0
aI0
aI0
aI0
aI0
aI0
aI0
aI0
aI0
aI0
aI0
aI0
aI0
aI0
aI0
aI0
aI0
aI0
aI0
aI0
aI0
aI0
aI0
aI0
aF0.33
aa.(lp0
(lp1
I1
aI0
aI0
aI0
aI0
aI0
aI0
aI0
aI0
aI0
aF1.01
aF0.14
aI4
aI0
aI0
aI0
aI0
aI0
aI0
aI0
aI0
aI0
aI0
aI0
aI0
aI0
aI0
aI0
aI0
aI0
aI0
aI0
aI0
aI0
aI0
aI0
aI0
aF1.0
aa.(lp0
(lp1
I1
aI0
aI0
aI0
aI0
aI0
aI0
aI0
aI0
aI0
aF0.84
aF0.06
aI5
aI0
aI0
aI0
aI0
aI0
aI0
aI0
aI0
aI0
aI0
aI0
aI0
aI0
aI0
aI0
aI0
aI0
aI0
aI0
aI0
aI0
aI0
aI0
aI0
aF0.17
aa.(lp0
(lp1
I0
aI0
aI0
aI0
aI0
aI1
aI0
aI0
aI0
aI0
aF0.34
aF0.1
aI5
aI0
aI0
aI0
aI0
aI0
aI0
aI0
aI0
aI0
aI0
aI0
aI0
aI0
aI0
aI0
aI0
aI0
aI0
aI0
aI0
aI0
aI0
aI0
aI0
aF0.83
aa(lp2
I0
aI0
aI0
aI0
aI0
aI1
aI0
aI0
aI0
aI0
aF0.34
aF0.1
aI5
aI0
aI1
aI0
aI0
aI0
aF0.28
aF0.31
aI3
aI0
aI0
aI0
aI0
aI0
aI0
aI0
aI0
aI0
aI0
aI0
aI0
aI0
aI0
aI0
aI0
aF1.0
aa(lp3
I0
aI0
aI0
aI0
aI0
aI1
aI0
aI0
aI0
aI0
aF0.34
aF0.1
aI5
aI0
aI1
aI0
aI0
aI0
aF0.28
aF0.31
aI3
aI0
aI0
aI0
aI0
aI0
aI0
aI0
aI0
aI0
aI0
aI0
aI0
aI0
aI0
aI0
aI0
aF1.0
aa(lp4
I0
aI0
aI0
aI0
aI0
aI1
aI0
aI0
aI0
aI0
aF0.34
aF0.1
aI5
aI0
aI1
aI0
aI0
aI0
aF0.28
aF0.31
aI3
aI0
aI0
aI0
aI0
aI0
aI0
aI0
aI0
aI0
aI0
aI0
aI0
aI0
aI0
aI0
aI0
aF1.0
aa.(lp0
(lp1
I0
aI1
aI0
aI0
aI0
aI1
aI0
aI0
aI0
aI0
aF2.8
aF0.14
aI5
aI0
aI0
aI0
aI0
aI0
aI0
aI0
aI0
aI0
aI0
aI0
aI0
aI0
aI0
aI0
aI0
aI0
aI0
aI0
aI0
aI0
aI0
aI0
aI0
aF0.5
aa(lp2
I0
aI1
aI0
aI0
aI0
aI1
aI0
aI0
aI0
aI0
aF2.8
aF0.14
aI5
aI0
aI0
aI0
aI0
aI0
aF2.8
aF0.31
aI2
aI0
aI0
aI0
aI0
aI0
aI0
aI0
aI0
aI0
aI0
aI0
aI0
aI0
aI0
aI0
aI0
aF0.5
aa.(lp0
(lp1
I0
aI1
aI0
aI0
aI0
aI1
aI0
aI0
aI0
aI0
aF1.0
aF0.14
aI3
aI0
aI0
aI0
aI0
aI0
aI0
aI0
aI0
aI0
aI0
aI0
aI0
aI0
aI0
aI0
aI0
aI0
aI0
aI0
aI0
aI0
aI0
aI0
aI0
aF0.67
aa(lp2
I0
aI1
aI0
aI0
aI0
aI1
aI0
aI0
aI0
aI0
aF1.0
aF0.14
aI3
aI0
aI0
aI0
aI0
aI0
aF1.0
aF0.31
aI1
aI0
aI0
aI0
aI0
aI0
aI0
aI0
aI0
aI0
aI0
aI0
aI0
aI0
aI0
aI0
aI0
aF0.67
aa.(lp0
(lp1
I1
aI0
aI0
aI0
aI0
aI0
aI0
aI0
aI0
aI0
aF0.97
aF0.14
aI4
aI0
aI0
aI0
aI0
aI0
aI0
aI0
aI0
aI0
aI0
aI0
aI0
aI0
aI0
aI0
aI0
aI0
aI0
aI0
aI0
aI0
aI0
aI0
aI0
aF1.0
aa.(lp0
(lp1
I1
aI0
aI0
aI0
aI0
aI0
aI0
aI0
aI0
aI0
aF1.01
aF0.14
aI5
aI0
aI0
aI0
aI0
aI0
aI0
aI0
aI0
aI0
aI0
aI0
aI0
aI0
aI0
aI0
aI0
aI0
aI0
aI0
aI0
aI0
aI0
aI0
aI0
aF0.67
aa.(lp0
(lp1
I1
aI0
aI0
aI0
aI0
aI0
aI0
aI0
aI0
aI0
aF0.83
aF0.16
aI3
aI0
aI0
aI0
aI0
aI0
aI0
aI0
aI0
aI0
aI0
aI0
aI0
aI0
aI0
aI0
aI0
aI0
aI0
aI0
aI0
aI0
aI0
aI0
aI0
aF0.17
aa.(lp0
(lp1
I0
aI0
aI1
aI0
aI0
aI1
aI0
aI0
aI0
aI0
aF0.37
aF0.1
aI6
aI0
aI0
aI0
aI0
aI0
aI0
aI0
aI0
aI0
aI0
aI0
aI0
aI0
aI0
aI0
aI0
aI0
aI0
aI0
aI0
aI0
aI0
aI0
aI0
aF0.33
aa(lp2
I0
aI0
aI1
aI0
aI0
aI1
aI0
aI0
aI0
aI0
aF0.37
aF0.1
aI6
aI1
aI0
aI0
aI0
aI0
aF0.36
aF0.24
aI3
aI0
aI0
aI0
aI0
aI0
aI0
aI0
aI0
aI0
aI0
aI0
aI0
aI0
aI0
aI0
aI0
aF0.33
aa(lp3
I0
aI0
aI1
aI0
aI0
aI1
aI0
aI0
aI0
aI0
aF0.37
aF0.1
aI6
aI1
aI0
aI0
aI0
aI0
aF0.36
aF0.24
aI3
aI0
aI0
aI0
aI0
aI0
aF0.36
aF3.17
aI1
aI0
aI0
aI0
aI0
aI0
aI0
aI0
aI0
aF0.33
aa.(lp0
(lp1
I0
aI1
aI0
aI0
aI0
aI1
aI0
aI0
aI0
aI0
aF2.78
aF0.14
aI6
aI0
aI0
aI0
aI0
aI0
aI0
aI0
aI0
aI0
aI0
aI0
aI0
aI0
aI0
aI0
aI0
aI0
aI0
aI0
aI0
aI0
aI0
aI0
aI0
aF0.5
aa(lp2
I0
aI1
aI0
aI0
aI0
aI1
aI0
aI0
aI0
aI0
aF2.78
aF0.14
aI6
aI0
aI0
aI0
aI0
aI0
aF2.78
aF0.24
aI2
aI0
aI0
aI0
aI0
aI0
aI0
aI0
aI0
aI0
aI0
aI0
aI0
aI0
aI0
aI0
aI0
aF0.5
aa.(lp0
(lp1
I0
aI0
aI0
aI0
aI0
aI1
aI0
aI0
aI0
aI0
aF0.99
aF0.16
aI4
aI0
aI0
aI0
aI0
aI0
aI0
aI0
aI0
aI0
aI0
aI0
aI0
aI0
aI0
aI0
aI0
aI0
aI0
aI0
aI0
aI0
aI0
aI0
aI0
aF0.83
aa(lp2
I0
aI0
aI0
aI0
aI0
aI1
aI0
aI0
aI0
aI0
aF0.99
aF0.16
aI4
aI0
aI1
aI0
aI0
aI0
aF0.98
aF0.2
aI3
aI0
aI0
aI0
aI0
aI0
aI0
aI0
aI0
aI0
aI0
aI0
aI0
aI0
aI0
aI0
aI0
aF1.0
aa(lp3
I0
aI0
aI0
aI0
aI0
aI1
aI0
aI0
aI0
aI0
aF0.99
aF0.16
aI4
aI0
aI1
aI0
aI0
aI0
aF0.98
aF0.2
aI3
aI0
aI0
aI0
aI0
aI1
aF0.0
aF3.17
aI2
aI0
aI0
aI0
aI0
aI0
aI0
aI0
aI0
aF1.0
aa(lp4
I0
aI0
aI0
aI0
aI0
aI1
aI0
aI0
aI0
aI0
aF0.99
aF0.16
aI4
aI0
aI1
aI0
aI0
aI0
aF0.98
aF0.2
aI3
aI0
aI0
aI0
aI0
aI1
aF0.0
aF3.17
aI2
aI0
aI0
aI0
aI0
aI0
aI0
aI0
aI0
aF1.0
aa.(lp0
(lp1
I1
aI0
aI0
aI0
aI0
aI0
aI0
aI0
aI0
aI0
aF0.97
aF0.1
aI4
aI0
aI0
aI0
aI0
aI0
aI0
aI0
aI0
aI0
aI0
aI0
aI0
aI0
aI0
aI0
aI0
aI0
aI0
aI0
aI0
aI0
aI0
aI0
aI0
aF0.17
aa.(lp0
(lp1
I1
aI0
aI0
aI0
aI0
aI0
aI0
aI0
aI0
aI0
aF1.01
aF0.1
aI5
aI0
aI0
aI0
aI0
aI0
aI0
aI0
aI0
aI0
aI0
aI0
aI0
aI0
aI0
aI0
aI0
aI0
aI0
aI0
aI0
aI0
aI0
aI0
aI0
aF0.33
aa.(lp0
(lp1
I0
aI1
aI0
aI0
aI0
aI1
aI0
aI0
aI0
aI0
aF0.81
aF0.16
aI4
aI0
aI0
aI0
aI0
aI0
aI0
aI0
aI0
aI0
aI0
aI0
aI0
aI0
aI0
aI0
aI0
aI0
aI0
aI0
aI0
aI0
aI0
aI0
aI0
aF0.5
aa(lp2
I0
aI1
aI0
aI0
aI0
aI1
aI0
aI0
aI0
aI0
aF0.81
aF0.16
aI4
aI0
aI0
aI0
aI0
aI0
aF0.81
aF0.16
aI3
aI0
aI0
aI0
aI0
aI0
aI0
aI0
aI0
aI0
aI0
aI0
aI0
aI0
aI0
aI0
aI0
aF0.67
aa.(lp0
(lp1
I0
aI0
aI0
aI0
aI0
aI1
aI0
aI0
aI0
aI0
aF0.34
aF0.16
aI4
aI0
aI0
aI0
aI0
aI0
aI0
aI0
aI0
aI0
aI0
aI0
aI0
aI0
aI0
aI0
aI0
aI0
aI0
aI0
aI0
aI0
aI0
aI0
aI0
aF0.83
aa(lp2
I0
aI0
aI0
aI0
aI0
aI1
aI0
aI0
aI0
aI0
aF0.34
aF0.16
aI4
aI1
aI1
aI0
aI0
aI0
aF0.22
aF0.88
aI2
aI0
aI0
aI0
aI0
aI0
aI0
aI0
aI0
aI0
aI0
aI0
aI0
aI0
aI0
aI0
aI0
aF0.83
aa(lp3
I0
aI0
aI0
aI0
aI0
aI1
aI0
aI0
aI0
aI0
aF0.34
aF0.16
aI4
aI1
aI1
aI0
aI0
aI0
aF0.22
aF0.88
aI2
aI1
aI1
aI0
aI0
aI0
aF0.02
aF2.08
aI2
aI0
aI0
aI0
aI0
aI0
aI0
aI0
aI0
aF0.83
aa(lp4
I0
aI0
aI0
aI0
aI0
aI1
aI0
aI0
aI0
aI0
aF0.34
aF0.16
aI4
aI1
aI1
aI0
aI0
aI0
aF0.22
aF0.88
aI2
aI1
aI1
aI0
aI0
aI0
aF0.02
aF2.08
aI2
aI0
aI1
aI0
aI0
aI1
aF0.0
aF2.75
aI2
aF0.5
aa.(lp0
(lp1
I0
aI0
aI0
aI0
aI0
aI1
aI0
aI0
aI0
aI0
aF2.77
aF0.1
aI6
aI0
aI0
aI0
aI0
aI0
aI0
aI0
aI0
aI0
aI0
aI0
aI0
aI0
aI0
aI0
aI0
aI0
aI0
aI0
aI0
aI0
aI0
aI0
aI0
aF1.0
aa(lp2
I0
aI0
aI0
aI0
aI0
aI1
aI0
aI0
aI0
aI0
aF2.77
aF0.1
aI6
aI0
aI1
aI0
aI0
aI0
aF2.65
aF0.69
aI3
aI0
aI0
aI0
aI0
aI0
aI0
aI0
aI0
aI0
aI0
aI0
aI0
aI0
aI0
aI0
aI0
aF1.0
aa(lp3
I0
aI0
aI0
aI0
aI0
aI1
aI0
aI0
aI0
aI0
aF2.77
aF0.1
aI6
aI0
aI1
aI0
aI0
aI0
aF2.65
aF0.69
aI3
aI0
aI1
aI0
aI0
aI0
aF2.45
aF1.59
aI2
aI0
aI0
aI0
aI0
aI0
aI0
aI0
aI0
aF1.0
aa(lp4
I0
aI0
aI0
aI0
aI0
aI1
aI0
aI0
aI0
aI0
aF2.77
aF0.1
aI6
aI0
aI1
aI0
aI0
aI0
aF2.65
aF0.69
aI3
aI0
aI1
aI0
aI0
aI0
aF2.45
aF1.59
aI2
aI0
aI1
aI0
aI0
aI0
aF2.25
aF2.72
aI2
aF0.67
aa.(lp0
(lp1
I0
aI1
aI0
aI0
aI0
aI1
aI0
aI0
aI0
aI0
aF1.04
aF0.14
aI4
aI0
aI0
aI0
aI0
aI0
aI0
aI0
aI0
aI0
aI0
aI0
aI0
aI0
aI0
aI0
aI0
aI0
aI0
aI0
aI0
aI0
aI0
aI0
aI0
aF0.67
aa(lp2
I0
aI1
aI0
aI0
aI0
aI1
aI0
aI0
aI0
aI0
aF1.04
aF0.14
aI4
aI0
aI0
aI0
aI0
aI0
aF1.04
aF0.69
aI2
aI0
aI0
aI0
aI0
aI0
aI0
aI0
aI0
aI0
aI0
aI0
aI0
aI0
aI0
aI0
aI0
aF0.5
aa.(lp0
(lp1
I0
aI1
aI0
aI0
aI0
aI1
aI0
aI0
aI0
aI0
aF0.8
aF0.14
aI4
aI0
aI0
aI0
aI0
aI0
aI0
aI0
aI0
aI0
aI0
aI0
aI0
aI0
aI0
aI0
aI0
aI0
aI0
aI0
aI0
aI0
aI0
aI0
aI0
aF1.0
aa(lp2
I0
aI1
aI0
aI0
aI0
aI1
aI0
aI0
aI0
aI0
aF0.8
aF0.14
aI4
aI0
aI0
aI0
aI0
aI0
aF0.8
aF0.2
aI1
aI0
aI0
aI0
aI0
aI0
aI0
aI0
aI0
aI0
aI0
aI0
aI0
aI0
aI0
aI0
aI0
aF0.67
aa.(lp0
(lp1
I0
aI0
aI0
aI0
aI0
aI1
aI0
aI0
aI0
aI0
aF1.03
aF0.1
aI4
aI0
aI0
aI0
aI0
aI0
aI0
aI0
aI0
aI0
aI0
aI0
aI0
aI0
aI0
aI0
aI0
aI0
aI0
aI0
aI0
aI0
aI0
aI0
aI0
aF0.33
aa(lp2
I0
aI0
aI0
aI0
aI0
aI1
aI0
aI0
aI0
aI0
aF1.03
aF0.1
aI4
aI0
aI1
aI0
aI0
aI0
aF1.02
aF0.2
aI2
aI0
aI0
aI0
aI0
aI0
aI0
aI0
aI0
aI0
aI0
aI0
aI0
aI0
aI0
aI0
aI0
aF0.33
aa(lp3
I0
aI0
aI0
aI0
aI0
aI1
aI0
aI0
aI0
aI0
aF1.03
aF0.1
aI4
aI0
aI1
aI0
aI0
aI0
aF1.02
aF0.2
aI2
aI0
aI0
aI0
aI0
aI0
aI0
aI0
aI0
aI0
aI0
aI0
aI0
aI0
aI0
aI0
aI0
aF0.33
aa(lp4
I0
aI0
aI0
aI0
aI0
aI1
aI0
aI0
aI0
aI0
aF1.03
aF0.1
aI4
aI0
aI1
aI0
aI0
aI0
aF1.02
aF0.2
aI2
aI0
aI0
aI0
aI0
aI0
aI0
aI0
aI0
aI0
aI0
aI0
aI0
aI0
aI0
aI0
aI0
aF0.33
aa.(lp0
(lp1
I1
aI0
aI0
aI0
aI0
aI0
aI0
aI0
aI0
aI0
aF0.97
aF0.06
aI4
aI0
aI0
aI0
aI0
aI0
aI0
aI0
aI0
aI0
aI0
aI0
aI0
aI0
aI0
aI0
aI0
aI0
aI0
aI0
aI0
aI0
aI0
aI0
aI0
aF0.83
aa.(lp0
(lp1
I0
aI1
aI0
aI0
aI0
aI1
aI0
aI0
aI0
aI0
aF3.15
aF0.16
aI4
aI0
aI0
aI0
aI0
aI0
aI0
aI0
aI0
aI0
aI0
aI0
aI0
aI0
aI0
aI0
aI0
aI0
aI0
aI0
aI0
aI0
aI0
aI0
aI0
aF0.5
aa(lp2
I0
aI1
aI0
aI0
aI0
aI1
aI0
aI0
aI0
aI0
aF3.15
aF0.16
aI4
aI0
aI0
aI0
aI0
aI0
aF3.15
aF0.16
aI2
aI0
aI0
aI0
aI0
aI0
aI0
aI0
aI0
aI0
aI0
aI0
aI0
aI0
aI0
aI0
aI0
aF0.5
aa.(lp0
(lp1
I1
aI0
aI0
aI0
aI0
aI0
aI0
aI0
aI0
aI0
aF0.99
aF0.16
aI3
aI0
aI0
aI0
aI0
aI0
aI0
aI0
aI0
aI0
aI0
aI0
aI0
aI0
aI0
aI0
aI0
aI0
aI0
aI0
aI0
aI0
aI0
aI0
aI0
aF0.67
aa.(lp0
(lp1
I0
aI1
aI0
aI0
aI0
aI1
aI0
aI0
aI0
aI0
aF0.75
aF0.2
aI5
aI0
aI0
aI0
aI0
aI0
aI0
aI0
aI0
aI0
aI0
aI0
aI0
aI0
aI0
aI0
aI0
aI0
aI0
aI0
aI0
aI0
aI0
aI0
aI0
aF0.83
aa(lp2
I0
aI1
aI0
aI0
aI0
aI1
aI0
aI0
aI0
aI0
aF0.75
aF0.2
aI5
aI0
aI0
aI0
aI0
aI0
aF0.75
aF0.28
aI1
aI0
aI0
aI0
aI0
aI0
aI0
aI0
aI0
aI0
aI0
aI0
aI0
aI0
aI0
aI0
aI0
aF0.5
aa.(lp0
(lp1
I0
aI1
aI0
aI0
aI0
aI1
aI0
aI0
aI0
aI0
aF1.03
aF0.28
aI3
aI0
aI0
aI0
aI0
aI0
aI0
aI0
aI0
aI0
aI0
aI0
aI0
aI0
aI0
aI0
aI0
aI0
aI0
aI0
aI0
aI0
aI0
aI0
aI0
aF1.0
aa(lp2
I0
aI1
aI0
aI0
aI0
aI1
aI0
aI0
aI0
aI0
aF1.03
aF0.28
aI3
aI0
aI0
aI0
aI0
aI0
aF1.03
aF0.28
aI2
aI0
aI0
aI0
aI0
aI0
aI0
aI0
aI0
aI0
aI0
aI0
aI0
aI0
aI0
aI0
aI0
aF0.83
aa.(lp0
(lp1
I1
aI0
aI0
aI0
aI0
aI0
aI0
aI0
aI0
aI0
aF0.93
aF0.28
aI3
aI0
aI0
aI0
aI0
aI0
aI0
aI0
aI0
aI0
aI0
aI0
aI0
aI0
aI0
aI0
aI0
aI0
aI0
aI0
aI0
aI0
aI0
aI0
aI0
aF0.33
aa.(lp0
(lp1
I0
aI0
aI0
aI0
aI0
aI1
aI0
aI0
aI0
aI0
aF3.22
aF0.28
aI5
aI0
aI0
aI0
aI0
aI0
aI0
aI0
aI0
aI0
aI0
aI0
aI0
aI0
aI0
aI0
aI0
aI0
aI0
aI0
aI0
aI0
aI0
aI0
aI0
aF0.67
aa(lp2
I0
aI0
aI0
aI0
aI0
aI1
aI0
aI0
aI0
aI0
aF3.22
aF0.28
aI5
aI1
aI0
aI0
aI0
aI0
aF3.22
aF0.28
aI1
aI0
aI0
aI0
aI0
aI0
aI0
aI0
aI0
aI0
aI0
aI0
aI0
aI0
aI0
aI0
aI0
aF0.33
aa(lp3
I0
aI0
aI0
aI0
aI0
aI1
aI0
aI0
aI0
aI0
aF3.22
aF0.28
aI5
aI1
aI0
aI0
aI0
aI0
aF3.22
aF0.28
aI1
aI0
aI0
aI0
aI0
aI0
aI0
aI0
aI0
aI0
aI0
aI0
aI0
aI0
aI0
aI0
aI0
aF0.33
aa(lp4
I0
aI0
aI0
aI0
aI0
aI1
aI0
aI0
aI0
aI0
aF3.22
aF0.28
aI5
aI1
aI0
aI0
aI0
aI0
aF3.22
aF0.28
aI1
aI0
aI0
aI0
aI0
aI0
aI0
aI0
aI0
aI0
aI0
aI0
aI0
aI0
aI0
aI0
aI0
aF0.33
aa.(lp0
(lp1
I1
aI0
aI0
aI0
aI0
aI0
aI0
aI0
aI0
aI0
aF0.98
aF0.28
aI4
aI0
aI0
aI0
aI0
aI0
aI0
aI0
aI0
aI0
aI0
aI0
aI0
aI0
aI0
aI0
aI0
aI0
aI0
aI0
aI0
aI0
aI0
aI0
aI0
aF0.5
aa.(lp0
(lp1
I1
aI0
aI0
aI0
aI0
aI0
aI0
aI0
aI0
aI0
aF0.72
aF0.32
aI2
aI0
aI0
aI0
aI0
aI0
aI0
aI0
aI0
aI0
aI0
aI0
aI0
aI0
aI0
aI0
aI0
aI0
aI0
aI0
aI0
aI0
aI0
aI0
aI0
aF0.33
aa.(lp0
(lp1
I0
aI1
aI0
aI0
aI0
aI0
aI0
aI1
aI0
aI0
aF0.98
aF0.32
aI3
aI0
aI0
aI0
aI0
aI0
aI0
aI0
aI0
aI0
aI0
aI0
aI0
aI0
aI0
aI0
aI0
aI0
aI0
aI0
aI0
aI0
aI0
aI0
aI0
aF1.0
aa(lp2
I0
aI1
aI0
aI0
aI0
aI0
aI0
aI1
aI0
aI0
aF0.98
aF0.32
aI3
aI0
aI0
aI0
aI0
aI0
aF0.98
aF0.76
aI1
aI0
aI0
aI0
aI0
aI0
aI0
aI0
aI0
aI0
aI0
aI0
aI0
aI0
aI0
aI0
aI0
aF1.0
aa.(lp0
(lp1
I1
aI0
aI0
aI0
aI0
aI0
aI0
aI0
aI0
aI0
aF0.93
aF0.2
aI3
aI0
aI0
aI0
aI0
aI0
aI0
aI0
aI0
aI0
aI0
aI0
aI0
aI0
aI0
aI0
aI0
aI0
aI0
aI0
aI0
aI0
aI0
aI0
aI0
aF0.58
aa.(lp0
(lp1
I0
aI0
aI0
aI0
aI0
aI2
aI0
aI0
aI0
aI0
aF3.26
aF0.4
aI2
aI0
aI0
aI0
aI0
aI0
aI0
aI0
aI0
aI0
aI0
aI0
aI0
aI0
aI0
aI0
aI0
aI0
aI0
aI0
aI0
aI0
aI0
aI0
aI0
aF0.58
aa(lp2
I0
aI0
aI0
aI0
aI0
aI2
aI0
aI0
aI0
aI0
aF3.26
aF0.4
aI2
aI0
aI1
aI0
aI0
aI0
aF3.14
aF0.76
aI2
aI0
aI0
aI0
aI0
aI0
aI0
aI0
aI0
aI0
aI0
aI0
aI0
aI0
aI0
aI0
aI0
aF0.75
aa(lp3
I0
aI0
aI0
aI0
aI0
aI2
aI0
aI0
aI0
aI0
aF3.26
aF0.4
aI2
aI0
aI1
aI0
aI0
aI0
aF3.14
aF0.76
aI2
aI0
aI0
aI0
aI0
aI0
aI0
aI0
aI0
aI0
aI0
aI0
aI0
aI0
aI0
aI0
aI0
aF0.75
aa(lp4
I0
aI0
aI0
aI0
aI0
aI2
aI0
aI0
aI0
aI0
aF3.26
aF0.4
aI2
aI0
aI1
aI0
aI0
aI0
aF3.14
aF0.76
aI2
aI0
aI0
aI0
aI0
aI0
aI0
aI0
aI0
aI0
aI0
aI0
aI0
aI0
aI0
aI0
aI0
aF0.75
aa.(lp0
(lp1
I1
aI0
aI0
aI0
aI0
aI0
aI0
aI0
aI0
aI0
aF0.98
aF0.2
aI4
aI0
aI0
aI0
aI0
aI0
aI0
aI0
aI0
aI0
aI0
aI0
aI0
aI0
aI0
aI0
aI0
aI0
aI0
aI0
aI0
aI0
aI0
aI0
aI0
aF0.83
aa.(lp0
(lp1
I1
aI0
aI0
aI0
aI0
aI0
aI0
aI0
aI0
aI0
aF0.67
aF0.4
aI4
aI0
aI0
aI0
aI0
aI0
aI0
aI0
aI0
aI0
aI0
aI0
aI0
aI0
aI0
aI0
aI0
aI0
aI0
aI0
aI0
aI0
aI0
aI0
aI0
aF0.5
aa.(lp0
(lp1
I0
aI1
aI0
aI0
aI0
aI1
aI0
aI0
aI0
aI0
aF0.87
aF0.4
aI5
aI0
aI0
aI0
aI0
aI0
aI0
aI0
aI0
aI0
aI0
aI0
aI0
aI0
aI0
aI0
aI0
aI0
aI0
aI0
aI0
aI0
aI0
aI0
aI0
aF0.83
aa(lp2
I0
aI1
aI0
aI0
aI0
aI1
aI0
aI0
aI0
aI0
aF0.87
aF0.4
aI5
aI0
aI0
aI0
aI0
aI0
aF0.87
aF0.56
aI1
aI0
aI0
aI0
aI0
aI0
aI0
aI0
aI0
aI0
aI0
aI0
aI0
aI0
aI0
aI0
aI0
aF0.33
aa.(lp0
(lp1
I1
aI0
aI0
aI0
aI0
aI0
aI0
aI0
aI0
aI0
aF0.88
aF0.56
aI2
aI0
aI0
aI0
aI0
aI0
aI0
aI0
aI0
aI0
aI0
aI0
aI0
aI0
aI0
aI0
aI0
aI0
aI0
aI0
aI0
aI0
aI0
aI0
aI0
aF0.67
aa.(lp0
(lp1
I0
aI0
aI0
aI0
aI0
aI1
aI0
aI0
aI0
aI0
aF3.47
aF0.56
aI4
aI0
aI0
aI0
aI0
aI0
aI0
aI0
aI0
aI0
aI0
aI0
aI0
aI0
aI0
aI0
aI0
aI0
aI0
aI0
aI0
aI0
aI0
aI0
aI0
aF0.33
aa(lp2
I0
aI0
aI0
aI0
aI0
aI1
aI0
aI0
aI0
aI0
aF3.47
aF0.56
aI4
aI1
aI0
aI0
aI0
aI0
aF3.47
aF0.56
aI1
aI0
aI0
aI0
aI0
aI0
aI0
aI0
aI0
aI0
aI0
aI0
aI0
aI0
aI0
aI0
aI0
aF1.0
aa(lp3
I0
aI0
aI0
aI0
aI0
aI1
aI0
aI0
aI0
aI0
aF3.47
aF0.56
aI4
aI1
aI0
aI0
aI0
aI0
aF3.47
aF0.56
aI1
aI0
aI0
aI0
aI0
aI0
aI0
aI0
aI0
aI0
aI0
aI0
aI0
aI0
aI0
aI0
aI0
aF1.0
aa(lp4
I0
aI0
aI0
aI0
aI0
aI1
aI0
aI0
aI0
aI0
aF3.47
aF0.56
aI4
aI1
aI0
aI0
aI0
aI0
aF3.47
aF0.56
aI1
aI0
aI0
aI0
aI0
aI0
aI0
aI0
aI0
aI0
aI0
aI0
aI0
aI0
aI0
aI0
aI0
aF1.0
aa.(lp0
(lp1
I1
aI0
aI0
aI0
aI0
aI0
aI0
aI0
aI0
aI0
aF0.93
aF0.56
aI3
aI0
aI0
aI0
aI0
aI0
aI0
aI0
aI0
aI0
aI0
aI0
aI0
aI0
aI0
aI0
aI0
aI0
aI0
aI0
aI0
aI0
aI0
aI0
aI0
aF1.0
aa.(lp0
(lp1
I1
aI0
aI0
aI0
aI0
aI0
aI0
aI0
aI0
aI0
aF0.67
aF0.24
aI4
aI0
aI0
aI0
aI0
aI0
aI0
aI0
aI0
aI0
aI0
aI0
aI0
aI0
aI0
aI0
aI0
aI0
aI0
aI0
aI0
aI0
aI0
aI0
aI0
aF0.33
aa.(lp0
(lp1
I0
aI1
aI0
aI0
aI0
aI1
aI0
aI0
aI0
aI0
aF0.82
aF0.4
aI2
aI0
aI0
aI0
aI0
aI0
aI0
aI0
aI0
aI0
aI0
aI0
aI0
aI0
aI0
aI0
aI0
aI0
aI0
aI0
aI0
aI0
aI0
aI0
aI0
aF0.83
aa(lp2
I0
aI1
aI0
aI0
aI0
aI1
aI0
aI0
aI0
aI0
aF0.82
aF0.4
aI2
aI0
aI0
aI0
aI0
aI0
aF0.82
aF0.4
aI1
aI0
aI0
aI0
aI0
aI0
aI0
aI0
aI0
aI0
aI0
aI0
aI0
aI0
aI0
aI0
aI0
aF0.83
aa.(lp0
(lp1
I1
aI0
aI0
aI0
aI0
aI0
aI0
aI0
aI0
aI0
aF0.85
aF0.4
aI2
aI0
aI0
aI0
aI0
aI0
aI0
aI0
aI0
aI0
aI0
aI0
aI0
aI0
aI0
aI0
aI0
aI0
aI0
aI0
aI0
aI0
aI0
aI0
aI0
aF1.0
aa.(lp0
(lp1
I0
aI0
aI0
aI0
aI0
aI1
aI0
aI0
aI0
aI0
aF3.61
aF0.4
aI4
aI0
aI0
aI0
aI0
aI0
aI0
aI0
aI0
aI0
aI0
aI0
aI0
aI0
aI0
aI0
aI0
aI0
aI0
aI0
aI0
aI0
aI0
aI0
aI0
aF0.5
aa(lp2
I0
aI0
aI0
aI0
aI0
aI1
aI0
aI0
aI0
aI0
aF3.61
aF0.4
aI4
aI1
aI0
aI0
aI0
aI0
aF3.61
aF0.4
aI1
aI0
aI0
aI0
aI0
aI0
aI0
aI0
aI0
aI0
aI0
aI0
aI0
aI0
aI0
aI0
aI0
aF0.5
aa(lp3
I0
aI0
aI0
aI0
aI0
aI1
aI0
aI0
aI0
aI0
aF3.61
aF0.4
aI4
aI1
aI0
aI0
aI0
aI0
aF3.61
aF0.4
aI1
aI0
aI0
aI0
aI0
aI0
aI0
aI0
aI0
aI0
aI0
aI0
aI0
aI0
aI0
aI0
aI0
aF0.5
aa(lp4
I0
aI0
aI0
aI0
aI0
aI1
aI0
aI0
aI0
aI0
aF3.61
aF0.4
aI4
aI1
aI0
aI0
aI0
aI0
aF3.61
aF0.4
aI1
aI0
aI0
aI0
aI0
aI0
aI0
aI0
aI0
aI0
aI0
aI0
aI0
aI0
aI0
aI0
aI0
aF0.5
aa.(lp0
(lp1
I1
aI0
aI0
aI0
aI0
aI0
aI0
aI0
aI0
aI0
aF0.93
aF0.4
aI3
aI0
aI0
aI0
aI0
aI0
aI0
aI0
aI0
aI0
aI0
aI0
aI0
aI0
aI0
aI0
aI0
aI0
aI0
aI0
aI0
aI0
aI0
aI0
aI0
aF0.67
aa.(lp0
(lp1
I0
aI1
aI0
aI0
aI0
aI1
aI0
aI0
aI0
aI0
aF0.61
aF0.48
aI3
aI0
aI0
aI0
aI0
aI0
aI0
aI0
aI0
aI0
aI0
aI0
aI0
aI0
aI0
aI0
aI0
aI0
aI0
aI0
aI0
aI0
aI0
aI0
aI0
aF0.5
aa(lp2
I0
aI1
aI0
aI0
aI0
aI1
aI0
aI0
aI0
aI0
aF0.61
aF0.48
aI3
aI0
aI0
aI0
aI0
aI0
aF0.61
aF0.64
aI2
aI0
aI0
aI0
aI0
aI0
aI0
aI0
aI0
aI0
aI0
aI0
aI0
aI0
aI0
aI0
aI0
aF0.33
aa.(lp0
(lp1
I0
aI0
aI0
aI0
aI0
aI1
aI0
aI0
aI0
aI0
aF0.76
aF0.48
aI3
aI0
aI0
aI0
aI0
aI0
aI0
aI0
aI0
aI0
aI0
aI0
aI0
aI0
aI0
aI0
aI0
aI0
aI0
aI0
aI0
aI0
aI0
aI0
aI0
aF1.0
aa(lp2
I0
aI0
aI0
aI0
aI0
aI1
aI0
aI0
aI0
aI0
aF0.76
aF0.48
aI3
aI0
aI1
aI0
aI0
aI0
aF0.71
aF0.64
aI3
aI0
aI0
aI0
aI0
aI0
aI0
aI0
aI0
aI0
aI0
aI0
aI0
aI0
aI0
aI0
aI0
aF1.0
aa(lp3
I0
aI0
aI0
aI0
aI0
aI1
aI0
aI0
aI0
aI0
aF0.76
aF0.48
aI3
aI0
aI1
aI0
aI0
aI0
aF0.71
aF0.64
aI3
aI0
aI0
aI0
aI0
aI0
aI0
aI0
aI0
aI0
aI0
aI0
aI0
aI0
aI0
aI0
aI0
aF1.0
aa(lp4
I0
aI0
aI0
aI0
aI0
aI1
aI0
aI0
aI0
aI0
aF0.76
aF0.48
aI3
aI0
aI1
aI0
aI0
aI0
aF0.71
aF0.64
aI3
aI0
aI0
aI0
aI0
aI0
aI0
aI0
aI0
aI0
aI0
aI0
aI0
aI0
aI0
aI0
aI0
aF1.0
aa.(lp0
(lp1
I1
aI0
aI0
aI0
aI0
aI0
aI0
aI0
aI0
aI0
aF0.85
aF0.4
aI3
aI0
aI0
aI0
aI0
aI0
aI0
aI0
aI0
aI0
aI0
aI0
aI0
aI0
aI0
aI0
aI0
aI0
aI0
aI0
aI0
aI0
aI0
aI0
aI0
aF0.83
aa.(lp0
(lp1
I0
aI1
aI0
aI0
aI0
aI1
aI0
aI0
aI0
aI0
aF3.69
aF0.4
aI5
aI0
aI0
aI0
aI0
aI0
aI0
aI0
aI0
aI0
aI0
aI0
aI0
aI0
aI0
aI0
aI0
aI0
aI0
aI0
aI0
aI0
aI0
aI0
aI0
aF0.33
aa(lp2
I0
aI1
aI0
aI0
aI0
aI1
aI0
aI0
aI0
aI0
aF3.69
aF0.4
aI5
aI0
aI0
aI0
aI0
aI0
aF3.69
aF0.64
aI1
aI0
aI0
aI0
aI0
aI0
aI0
aI0
aI0
aI0
aI0
aI0
aI0
aI0
aI0
aI0
aI0
aF0.5
aa.(lp0
(lp1
I1
aI0
aI0
aI0
aI0
aI0
aI0
aI0
aI0
aI0
aF0.93
aF0.4
aI4
aI0
aI0
aI0
aI0
aI0
aI0
aI0
aI0
aI0
aI0
aI0
aI0
aI0
aI0
aI0
aI0
aI0
aI0
aI0
aI0
aI0
aI0
aI0
aI0
aF0.67
aa.(lp0
(lp1
I0
aI0
aI0
aI0
aI0
aI1
aI0
aI0
aI0
aI0
aF0.51
aF0.4
aI3
aI0
aI0
aI0
aI0
aI0
aI0
aI0
aI0
aI0
aI0
aI0
aI0
aI0
aI0
aI0
aI0
aI0
aI0
aI0
aI0
aI0
aI0
aI0
aI0
aF1.0
aa(lp2
I0
aI0
aI0
aI0
aI0
aI1
aI0
aI0
aI0
aI0
aF0.51
aF0.4
aI3
aI1
aI0
aI0
aI0
aI0
aF0.51
aF0.48
aI1
aI0
aI0
aI0
aI0
aI0
aI0
aI0
aI0
aI0
aI0
aI0
aI0
aI0
aI0
aI0
aI0
aF1.0
aa(lp3
I0
aI0
aI0
aI0
aI0
aI1
aI0
aI0
aI0
aI0
aF0.51
aF0.4
aI3
aI1
aI0
aI0
aI0
aI0
aF0.51
aF0.48
aI1
aI0
aI0
aI0
aI0
aI0
aI0
aI0
aI0
aI0
aI0
aI0
aI0
aI0
aI0
aI0
aI0
aF1.0
aa(lp4
I0
aI0
aI0
aI0
aI0
aI1
aI0
aI0
aI0
aI0
aF0.51
aF0.4
aI3
aI1
aI0
aI0
aI0
aI0
aF0.51
aF0.48
aI1
aI0
aI0
aI0
aI0
aI0
aI0
aI0
aI0
aI0
aI0
aI0
aI0
aI0
aI0
aI0
aI0
aF1.0
aa.(lp0
(lp1
I1
aI0
aI0
aI0
aI0
aI0
aI0
aI0
aI0
aI0
aF0.87
aF0.24
aI3
aI0
aI0
aI0
aI0
aI0
aI0
aI0
aI0
aI0
aI0
aI0
aI0
aI0
aI0
aI0
aI0
aI0
aI0
aI0
aI0
aI0
aI0
aI0
aI0
aF0.33
aa.(lp0
(lp1
I1
aI0
aI0
aI0
aI0
aI0
aI0
aI0
aI0
aI0
aF0.85
aF0.24
aI4
aI0
aI0
aI0
aI0
aI0
aI0
aI0
aI0
aI0
aI0
aI0
aI0
aI0
aI0
aI0
aI0
aI0
aI0
aI0
aI0
aI0
aI0
aI0
aI0
aF0.83
aa.(lp0
(lp1
I0
aI1
aI0
aI0
aI0
aI1
aI0
aI0
aI0
aI0
aF3.74
aF0.48
aI3
aI0
aI0
aI0
aI0
aI0
aI0
aI0
aI0
aI0
aI0
aI0
aI0
aI0
aI0
aI0
aI0
aI0
aI0
aI0
aI0
aI0
aI0
aI0
aI0
aF0.67
aa(lp2
I0
aI1
aI0
aI0
aI0
aI1
aI0
aI0
aI0
aI0
aF3.74
aF0.48
aI3
aI0
aI0
aI0
aI0
aI0
aF3.74
aF0.48
aI1
aI0
aI0
aI0
aI0
aI0
aI0
aI0
aI0
aI0
aI0
aI0
aI0
aI0
aI0
aI0
aI0
aF0.67
aa.(lp0
(lp1
I1
aI0
aI0
aI0
aI0
aI0
aI0
aI0
aI0
aI0
aF0.87
aF0.48
aI2
aI0
aI0
aI0
aI0
aI0
aI0
aI0
aI0
aI0
aI0
aI0
aI0
aI0
aI0
aI0
aI0
aI0
aI0
aI0
aI0
aI0
aI0
aI0
aI0
aF0.5
aa.(lp0
(lp1
I0
aI1
aI0
aI0
aI0
aI1
aI0
aI0
aI0
aI0
aF0.56
aF0.8
aI4
aI0
aI0
aI0
aI0
aI0
aI0
aI0
aI0
aI0
aI0
aI0
aI0
aI0
aI0
aI0
aI0
aI0
aI0
aI0
aI0
aI0
aI0
aI0
aI0
aF0.67
aa(lp2
I0
aI1
aI0
aI0
aI0
aI1
aI0
aI0
aI0
aI0
aF0.56
aF0.8
aI4
aI0
aI0
aI0
aI0
aI0
aF0.56
aF1.12
aI1
aI0
aI0
aI0
aI0
aI0
aI0
aI0
aI0
aI0
aI0
aI0
aI0
aI0
aI0
aI0
aI0
aF0.67
aa.(lp0
(lp1
I1
aI0
aI0
aI0
aI0
aI0
aI0
aI0
aI0
aI0
aF0.87
aF0.48
aI4
aI0
aI0
aI0
aI0
aI0
aI0
aI0
aI0
aI0
aI0
aI0
aI0
aI0
aI0
aI0
aI0
aI0
aI0
aI0
aI0
aI0
aI0
aI0
aI0
aF0.33
aa.(lp0
(lp1
I1
aI0
aI0
aI0
aI0
aI0
aI0
aI0
aI0
aI0
aF0.74
aF1.12
aI2
aI0
aI0
aI0
aI0
aI0
aI0
aI0
aI0
aI0
aI0
aI0
aI0
aI0
aI0
aI0
aI0
aI0
aI0
aI0
aI0
aI0
aI0
aI0
aI0
aF0.83
aa.(lp0
(lp1
I0
aI0
aI0
aI0
aI0
aI1
aI0
aI0
aI0
aI0
aF3.63
aF1.12
aI4
aI0
aI0
aI0
aI0
aI0
aI0
aI0
aI0
aI0
aI0
aI0
aI0
aI0
aI0
aI0
aI0
aI0
aI0
aI0
aI0
aI0
aI0
aI0
aI0
aF0.5
aa(lp2
I0
aI0
aI0
aI0
aI0
aI1
aI0
aI0
aI0
aI0
aF3.63
aF1.12
aI4
aI1
aI0
aI0
aI0
aI0
aF3.63
aF1.12
aI1
aI0
aI0
aI0
aI0
aI0
aI0
aI0
aI0
aI0
aI0
aI0
aI0
aI0
aI0
aI0
aI0
aF0.5
aa(lp3
I0
aI0
aI0
aI0
aI0
aI1
aI0
aI0
aI0
aI0
aF3.63
aF1.12
aI4
aI1
aI0
aI0
aI0
aI0
aF3.63
aF1.12
aI1
aI0
aI0
aI0
aI0
aI0
aI0
aI0
aI0
aI0
aI0
aI0
aI0
aI0
aI0
aI0
aI0
aF0.5
aa(lp4
I0
aI0
aI0
aI0
aI0
aI1
aI0
aI0
aI0
aI0
aF3.63
aF1.12
aI4
aI1
aI0
aI0
aI0
aI0
aF3.63
aF1.12
aI1
aI0
aI0
aI0
aI0
aI0
aI0
aI0
aI0
aI0
aI0
aI0
aI0
aI0
aI0
aI0
aI0
aF0.5
aa.(lp0
(lp1
I1
aI0
aI0
aI0
aI0
aI0
aI0
aI0
aI0
aI0
aF0.82
aF1.12
aI3
aI0
aI0
aI0
aI0
aI0
aI0
aI0
aI0
aI0
aI0
aI0
aI0
aI0
aI0
aI0
aI0
aI0
aI0
aI0
aI0
aI0
aI0
aI0
aI0
aF1.0
aa.(lp0
(lp1
I0
aI1
aI0
aI0
aI0
aI2
aI0
aI0
aI0
aI0
aF0.24
aF2.4
aI2
aI0
aI0
aI0
aI0
aI0
aI0
aI0
aI0
aI0
aI0
aI0
aI0
aI0
aI0
aI0
aI0
aI0
aI0
aI0
aI0
aI0
aI0
aI0
aI0
aF0.5
aa(lp2
I0
aI1
aI0
aI0
aI0
aI2
aI0
aI0
aI0
aI0
aF0.24
aF2.4
aI2
aI0
aI0
aI0
aI0
aI0
aF0.24
aF3.36
aI1
aI0
aI0
aI0
aI0
aI0
aI0
aI0
aI0
aI0
aI0
aI0
aI0
aI0
aI0
aI0
aI0
aF0.33
aa.(lp0
(lp1
I1
aI0
aI0
aI0
aI0
aI0
aI0
aI0
aI0
aI0
aF0.76
aF1.76
aI2
aI0
aI0
aI0
aI0
aI0
aI0
aI0
aI0
aI0
aI0
aI0
aI0
aI0
aI0
aI0
aI0
aI0
aI0
aI0
aI0
aI0
aI0
aI0
aI0
aF0.67
aa.(lp0
(lp1
I1
aI0
aI0
aI0
aI0
aI0
aI0
aI0
aI0
aI0
aF0.69
aF1.76
aI3
aI0
aI0
aI0
aI0
aI0
aI0
aI0
aI0
aI0
aI0
aI0
aI0
aI0
aI0
aI0
aI0
aI0
aI0
aI0
aI0
aI0
aI0
aI0
aI0
aF0.83
aa.(lp0
(lp1
I0
aI0
aI0
aI0
aI0
aI0
aI1
aI0
aI0
aI0
aF3.69
aF1.76
aI5
aI0
aI0
aI0
aI0
aI0
aI0
aI0
aI0
aI0
aI0
aI0
aI0
aI0
aI0
aI0
aI0
aI0
aI0
aI0
aI0
aI0
aI0
aI0
aI0
aF1.0
aa(lp2
I0
aI0
aI0
aI0
aI0
aI0
aI1
aI0
aI0
aI0
aF3.69
aF1.76
aI5
aI0
aI1
aI0
aI0
aI0
aF3.37
aF3.36
aI2
aI0
aI0
aI0
aI0
aI0
aI0
aI0
aI0
aI0
aI0
aI0
aI0
aI0
aI0
aI0
aI0
aF0.83
aa(lp3
I0
aI0
aI0
aI0
aI0
aI0
aI1
aI0
aI0
aI0
aF3.69
aF1.76
aI5
aI0
aI1
aI0
aI0
aI0
aF3.37
aF3.36
aI2
aI0
aI0
aI0
aI0
aI0
aI0
aI0
aI0
aI0
aI0
aI0
aI0
aI0
aI0
aI0
aI0
aF0.83
aa(lp4
I0
aI0
aI0
aI0
aI0
aI0
aI1
aI0
aI0
aI0
aF3.69
aF1.76
aI5
aI0
aI1
aI0
aI0
aI0
aF3.37
aF3.36
aI2
aI0
aI0
aI0
aI0
aI0
aI0
aI0
aI0
aI0
aI0
aI0
aI0
aI0
aI0
aI0
aI0
aF0.83
aa.(lp0
(lp1
I1
aI0
aI0
aI0
aI0
aI0
aI0
aI0
aI0
aI0
aF0.82
aF1.76
aI4
aI0
aI0
aI0
aI0
aI0
aI0
aI0
aI0
aI0
aI0
aI0
aI0
aI0
aI0
aI0
aI0
aI0
aI0
aI0
aI0
aI0
aI0
aI0
aI0
aF0.33
aa.(lp0
(lp1
I0
aI1
aI0
aI0
aI0
aI1
aI0
aI0
aI0
aI0
aF0.13
aF0.96
aI3
aI0
aI0
aI0
aI0
aI0
aI0
aI0
aI0
aI0
aI0
aI0
aI0
aI0
aI0
aI0
aI0
aI0
aI0
aI0
aI0
aI0
aI0
aI0
aI0
aF1.0
aa(lp2
I0
aI1
aI0
aI0
aI0
aI1
aI0
aI0
aI0
aI0
aF0.13
aF0.96
aI3
aI0
aI0
aI0
aI0
aI0
aF0.13
aF1.28
aI2
aI0
aI0
aI0
aI0
aI0
aI0
aI0
aI0
aI0
aI0
aI0
aI0
aI0
aI0
aI0
aI0
aF0.67
aa.(lp0
(lp1
I0
aI0
aI0
aI0
aI0
aI1
aI0
aI0
aI0
aI0
aF0.66
aF0.96
aI3
aI0
aI0
aI0
aI0
aI0
aI0
aI0
aI0
aI0
aI0
aI0
aI0
aI0
aI0
aI0
aI0
aI0
aI0
aI0
aI0
aI0
aI0
aI0
aI0
aF0.83
aa(lp2
I0
aI0
aI0
aI0
aI0
aI1
aI0
aI0
aI0
aI0
aF0.66
aF0.96
aI3
aI0
aI1
aI0
aI0
aI0
aF0.55
aF1.28
aI3
aI0
aI0
aI0
aI0
aI0
aI0
aI0
aI0
aI0
aI0
aI0
aI0
aI0
aI0
aI0
aI0
aF0.5
aa(lp3
I0
aI0
aI0
aI0
aI0
aI1
aI0
aI0
aI0
aI0
aF0.66
aF0.96
aI3
aI0
aI1
aI0
aI0
aI0
aF0.55
aF1.28
aI3
aI0
aI0
aI0
aI0
aI0
aF0.55
aF1.6
aI2
aI0
aI0
aI0
aI0
aI0
aI0
aI0
aI0
aF0.5
aa(lp4
I0
aI0
aI0
aI0
aI0
aI1
aI0
aI0
aI0
aI0
aF0.66
aF0.96
aI3
aI0
aI1
aI0
aI0
aI0
aF0.55
aF1.28
aI3
aI0
aI0
aI0
aI0
aI0
aF0.55
aF1.6
aI2
aI0
aI0
aI0
aI0
aI0
aI0
aI0
aI0
aF0.5
aa.(lp0
(lp1
I1
aI0
aI0
aI0
aI0
aI0
aI0
aI0
aI0
aI0
aF0.69
aF0.8
aI3
aI0
aI0
aI0
aI0
aI0
aI0
aI0
aI0
aI0
aI0
aI0
aI0
aI0
aI0
aI0
aI0
aI0
aI0
aI0
aI0
aI0
aI0
aI0
aI0
aF0.67
aa.(lp0
(lp1
I0
aI0
aI1
aI0
aI0
aI1
aI0
aI0
aI0
aI0
aF4.38
aF0.8
aI5
aI0
aI0
aI0
aI0
aI0
aI0
aI0
aI0
aI0
aI0
aI0
aI0
aI0
aI0
aI0
aI0
aI0
aI0
aI0
aI0
aI0
aI0
aI0
aI0
aF0.33
aa(lp2
I0
aI0
aI1
aI0
aI0
aI1
aI0
aI0
aI0
aI0
aF4.38
aF0.8
aI5
aI1
aI0
aI0
aI0
aI0
aF4.27
aF1.6
aI2
aI0
aI0
aI0
aI0
aI0
aI0
aI0
aI0
aI0
aI0
aI0
aI0
aI0
aI0
aI0
aI0
aF0.83
aa(lp3
I0
aI0
aI1
aI0
aI0
aI1
aI0
aI0
aI0
aI0
aF4.38
aF0.8
aI5
aI1
aI0
aI0
aI0
aI0
aF4.27
aF1.6
aI2
aI0
aI0
aI0
aI0
aI0
aF4.27
aF1.6
aI1
aI0
aI0
aI0
aI0
aI0
aI0
aI0
aI0
aF0.83
aa.(lp0
(lp1
I1
aI0
aI0
aI0
aI0
aI0
aI0
aI0
aI0
aI0
aF0.82
aF0.8
aI4
aI0
aI0
aI0
aI0
aI0
aI0
aI0
aI0
aI0
aI0
aI0
aI0
aI0
aI0
aI0
aI0
aI0
aI0
aI0
aI0
aI0
aI0
aI0
aI0
aF0.5
aa.(lp0
(lp1
I1
aI0
aI0
aI0
aI0
aI0
aI0
aI0
aI0
aI0
aF0.08
aF1.54
aI2
aI0
aI0
aI0
aI0
aI0
aI0
aI0
aI0
aI0
aI0
aI0
aI0
aI0
aI0
aI0
aI0
aI0
aI0
aI0
aI0
aI0
aI0
aI0
aI0
aF0.67
aa.(lp0
(lp1
I1
aI0
aI0
aI0
aI0
aI0
aI0
aI0
aI0
aI0
aF1.08
aF1.54
aI3
aI0
aI0
aI0
aI0
aI0
aI0
aI0
aI0
aI0
aI0
aI0
aI0
aI0
aI0
aI0
aI0
aI0
aI0
aI0
aI0
aI0
aI0
aI0
aI0
aF0.5
aa.(lp0
(lp1
I1
aI0
aI0
aI0
aI0
aI0
aI0
aI0
aI0
aI0
aF0.69
aF1.54
aI4
aI0
aI0
aI0
aI0
aI0
aI0
aI0
aI0
aI0
aI0
aI0
aI0
aI0
aI0
aI0
aI0
aI0
aI0
aI0
aI0
aI0
aI0
aI0
aI0
aF0.33
aa.(lp0
(lp1
I0
aI0
aI0
aI0
aI0
aI0
aI2
aI0
aI0
aI0
aF3.53
aF4.0
aI2
aI0
aI0
aI0
aI0
aI0
aI0
aI0
aI0
aI0
aI0
aI0
aI0
aI0
aI0
aI0
aI0
aI0
aI0
aI0
aI0
aI0
aI0
aI0
aI0
aF0.83
aa(lp2
I0
aI0
aI0
aI0
aI0
aI0
aI2
aI0
aI0
aI0
aF3.53
aF4.0
aI2
aI0
aI1
aI0
aI0
aI0
aF3.21
aF5.6
aI2
aI0
aI0
aI0
aI0
aI0
aI0
aI0
aI0
aI0
aI0
aI0
aI0
aI0
aI0
aI0
aI0
aF1.0
aa(lp3
I0
aI0
aI0
aI0
aI0
aI0
aI2
aI0
aI0
aI0
aF3.53
aF4.0
aI2
aI0
aI1
aI0
aI0
aI0
aF3.21
aF5.6
aI2
aI0
aI0
aI0
aI0
aI0
aI0
aI0
aI0
aI0
aI0
aI0
aI0
aI0
aI0
aI0
aI0
aF1.0
aa(lp4
I0
aI0
aI0
aI0
aI0
aI0
aI2
aI0
aI0
aI0
aF3.53
aF4.0
aI2
aI0
aI1
aI0
aI0
aI0
aF3.21
aF5.6
aI2
aI0
aI0
aI0
aI0
aI0
aI0
aI0
aI0
aI0
aI0
aI0
aI0
aI0
aI0
aI0
aI0
aF1.0
aa.(lp0
(lp1
I0
aI0
aI0
aI0
aI0
aI1
aI2
aI0
aI0
aI0
aF0.07
aF4.64
aI2
aI0
aI0
aI0
aI0
aI0
aI0
aI0
aI0
aI0
aI0
aI0
aI0
aI0
aI0
aI0
aI0
aI0
aI0
aI0
aI0
aI0
aI0
aI0
aI0
aF1.0
aa(lp2
I0
aI0
aI0
aI0
aI0
aI1
aI2
aI0
aI0
aI0
aF0.07
aF4.64
aI2
aI0
aI0
aI0
aI0
aI1
aF0.0
aF5.82
aI2
aI0
aI0
aI0
aI0
aI0
aI0
aI0
aI0
aI0
aI0
aI0
aI0
aI0
aI0
aI0
aI0
aF0.83
aa(lp3
I0
aI0
aI0
aI0
aI0
aI1
aI2
aI0
aI0
aI0
aF0.07
aF4.64
aI2
aI0
aI0
aI0
aI0
aI1
aF0.0
aF5.82
aI2
aI0
aI0
aI0
aI0
aI0
aI0
aI0
aI0
aI0
aI0
aI0
aI0
aI0
aI0
aI0
aI0
aF0.83
aa(lp4
I0
aI0
aI0
aI0
aI0
aI1
aI2
aI0
aI0
aI0
aF0.07
aF4.64
aI2
aI0
aI0
aI0
aI0
aI1
aF0.0
aF5.82
aI2
aI0
aI0
aI0
aI0
aI0
aI0
aI0
aI0
aI0
aI0
aI0
aI0
aI0
aI0
aI0
aI0
aF0.83
aa.(lp0
(lp1
I0
aI1
aI0
aI0
aI0
aI1
aI0
aI0
aI0
aI0
aF0.59
aF1.92
aI3
aI0
aI0
aI0
aI0
aI0
aI0
aI0
aI0
aI0
aI0
aI0
aI0
aI0
aI0
aI0
aI0
aI0
aI0
aI0
aI0
aI0
aI0
aI0
aI0
aF0.83
aa(lp2
I0
aI1
aI0
aI0
aI0
aI1
aI0
aI0
aI0
aI0
aF0.59
aF1.92
aI3
aI0
aI0
aI0
aI0
aI0
aF0.59
aF1.92
aI2
aI0
aI0
aI0
aI0
aI0
aI0
aI0
aI0
aI0
aI0
aI0
aI0
aI0
aI0
aI0
aI0
aF0.67
aa.(lp0
(lp1
I1
aI0
aI0
aI0
aI0
aI0
aI0
aI0
aI0
aI0
aF0.48
aF1.6
aI3
aI0
aI0
aI0
aI0
aI0
aI0
aI0
aI0
aI0
aI0
aI0
aI0
aI0
aI0
aI0
aI0
aI0
aI0
aI0
aI0
aI0
aI0
aI0
aI0
aF1.0
aa.(lp0
(lp1
I0
aI1
aI0
aI0
aI0
aI1
aI0
aI0
aI0
aI0
aF4.64
aF1.6
aI4
aI0
aI0
aI0
aI0
aI0
aI0
aI0
aI0
aI0
aI0
aI0
aI0
aI0
aI0
aI0
aI0
aI0
aI0
aI0
aI0
aI0
aI0
aI0
aI0
aF0.67
aa(lp2
I0
aI1
aI0
aI0
aI0
aI1
aI0
aI0
aI0
aI0
aF4.64
aF1.6
aI4
aI0
aI0
aI0
aI0
aI0
aF4.64
aF1.92
aI1
aI0
aI0
aI0
aI0
aI0
aI0
aI0
aI0
aI0
aI0
aI0
aI0
aI0
aI0
aI0
aI0
aF0.5
aa.(lp0
(lp1
I0
aI0
aI0
aI0
aI0
aI1
aI0
aI0
aI0
aI0
aF0.66
aF1.92
aI3
aI0
aI0
aI0
aI0
aI0
aI0
aI0
aI0
aI0
aI0
aI0
aI0
aI0
aI0
aI0
aI0
aI0
aI0
aI0
aI0
aI0
aI0
aI0
aI0
aF0.5
aa(lp2
I0
aI0
aI0
aI0
aI0
aI1
aI0
aI0
aI0
aI0
aF0.66
aF1.92
aI3
aI0
aI0
aI0
aI0
aI0
aF0.66
aF1.92
aI3
aI0
aI0
aI0
aI0
aI0
aI0
aI0
aI0
aI0
aI0
aI0
aI0
aI0
aI0
aI0
aI0
aF0.83
aa(lp3
I0
aI0
aI0
aI0
aI0
aI1
aI0
aI0
aI0
aI0
aF0.66
aF1.92
aI3
aI0
aI0
aI0
aI0
aI0
aF0.66
aF1.92
aI3
aI0
aI0
aI0
aI0
aI0
aI0
aI0
aI0
aI0
aI0
aI0
aI0
aI0
aI0
aI0
aI0
aF0.83
aa(lp4
I0
aI0
aI0
aI0
aI0
aI1
aI0
aI0
aI0
aI0
aF0.66
aF1.92
aI3
aI0
aI0
aI0
aI0
aI0
aF0.66
aF1.92
aI3
aI0
aI0
aI0
aI0
aI0
aI0
aI0
aI0
aI0
aI0
aI0
aI0
aI0
aI0
aI0
aI0
aF0.83
aa.(lp0
(lp1
I0
aI1
aI0
aI0
aI0
aI1
aI0
aI0
aI0
aI0
aF0.37
aF1.28
aI2
aI0
aI0
aI0
aI0
aI0
aI0
aI0
aI0
aI0
aI0
aI0
aI0
aI0
aI0
aI0
aI0
aI0
aI0
aI0
aI0
aI0
aI0
aI0
aI0
aF0.83
aa(lp2
I0
aI1
aI0
aI0
aI0
aI1
aI0
aI0
aI0
aI0
aF0.37
aF1.28
aI2
aI0
aI0
aI0
aI0
aI0
aF0.37
aF1.28
aI1
aI0
aI0
aI0
aI0
aI0
aI0
aI0
aI0
aI0
aI0
aI0
aI0
aI0
aI0
aI0
aI0
aF0.67
aa.(lp0
(lp1
I1
aI0
aI0
aI0
aI0
aI0
aI0
aI0
aI0
aI0
aF0.48
aF0.96
aI3
aI0
aI0
aI0
aI0
aI0
aI0
aI0
aI0
aI0
aI0
aI0
aI0
aI0
aI0
aI0
aI0
aI0
aI0
aI0
aI0
aI0
aI0
aI0
aI0
aF1.0
aa.(lp0
(lp1
I0
aI0
aI0
aI0
aI0
aI1
aI0
aI0
aI0
aI0
aF4.43
aF1.28
aI2
aI0
aI0
aI0
aI0
aI0
aI0
aI0
aI0
aI0
aI0
aI0
aI0
aI0
aI0
aI0
aI0
aI0
aI0
aI0
aI0
aI0
aI0
aI0
aI0
aF0.5
aa(lp2
I0
aI0
aI0
aI0
aI0
aI1
aI0
aI0
aI0
aI0
aF4.43
aF1.28
aI2
aI1
aI0
aI0
aI0
aI0
aF4.43
aF1.28
aI1
aI0
aI0
aI0
aI0
aI0
aI0
aI0
aI0
aI0
aI0
aI0
aI0
aI0
aI0
aI0
aI0
aF0.5
aa(lp3
I0
aI0
aI0
aI0
aI0
aI1
aI0
aI0
aI0
aI0
aF4.43
aF1.28
aI2
aI1
aI0
aI0
aI0
aI0
aF4.43
aF1.28
aI1
aI0
aI0
aI0
aI0
aI0
aI0
aI0
aI0
aI0
aI0
aI0
aI0
aI0
aI0
aI0
aI0
aF0.5
aa(lp4
I0
aI0
aI0
aI0
aI0
aI1
aI0
aI0
aI0
aI0
aF4.43
aF1.28
aI2
aI1
aI0
aI0
aI0
aI0
aF4.43
aF1.28
aI1
aI0
aI0
aI0
aI0
aI0
aI0
aI0
aI0
aI0
aI0
aI0
aI0
aI0
aI0
aI0
aI0
aF0.5
aa.(lp0
(lp1
I1
aI0
aI0
aI0
aI0
aI0
aI0
aI0
aI0
aI0
aF1.3
aF0.96
aI2
aI0
aI0
aI0
aI0
aI0
aI0
aI0
aI0
aI0
aI0
aI0
aI0
aI0
aI0
aI0
aI0
aI0
aI0
aI0
aI0
aI0
aI0
aI0
aI0
aF0.67
aa.(lp0
(lp1
I0
aI0
aI0
aI0
aI0
aI1
aI0
aI0
aI0
aI0
aF0.16
aF1.6
aI3
aI0
aI0
aI0
aI0
aI0
aI0
aI0
aI0
aI0
aI0
aI0
aI0
aI0
aI0
aI0
aI0
aI0
aI0
aI0
aI0
aI0
aI0
aI0
aI0
aF0.83
aa(lp2
I0
aI0
aI0
aI0
aI0
aI1
aI0
aI0
aI0
aI0
aF0.16
aF1.6
aI3
aI1
aI0
aI0
aI0
aI0
aF0.16
aF1.92
aI1
aI0
aI0
aI0
aI0
aI0
aI0
aI0
aI0
aI0
aI0
aI0
aI0
aI0
aI0
aI0
aI0
aF0.83
aa(lp3
I0
aI0
aI0
aI0
aI0
aI1
aI0
aI0
aI0
aI0
aF0.16
aF1.6
aI3
aI1
aI0
aI0
aI0
aI0
aF0.16
aF1.92
aI1
aI0
aI0
aI0
aI0
aI0
aI0
aI0
aI0
aI0
aI0
aI0
aI0
aI0
aI0
aI0
aI0
aF0.83
aa(lp4
I0
aI0
aI0
aI0
aI0
aI1
aI0
aI0
aI0
aI0
aF0.16
aF1.6
aI3
aI1
aI0
aI0
aI0
aI0
aF0.16
aF1.92
aI1
aI0
aI0
aI0
aI0
aI0
aI0
aI0
aI0
aI0
aI0
aI0
aI0
aI0
aI0
aI0
aI0
aF0.83
aa.(lp0
(lp1
I1
aI0
aI0
aI0
aI0
aI0
aI0
aI0
aI0
aI0
aF0.26
aF1.92
aI2
aI0
aI0
aI0
aI0
aI0
aI0
aI0
aI0
aI0
aI0
aI0
aI0
aI0
aI0
aI0
aI0
aI0
aI0
aI0
aI0
aI0
aI0
aI0
aI0
aF1.0
aa.(lp0
(lp1
I0
aI1
aI0
aI0
aI0
aI1
aI0
aI0
aI0
aI0
aF4.64
aF1.92
aI3
aI0
aI0
aI0
aI0
aI0
aI0
aI0
aI0
aI0
aI0
aI0
aI0
aI0
aI0
aI0
aI0
aI0
aI0
aI0
aI0
aI0
aI0
aI0
aI0
aF0.5
aa(lp2
I0
aI1
aI0
aI0
aI0
aI1
aI0
aI0
aI0
aI0
aF4.64
aF1.92
aI3
aI0
aI0
aI0
aI0
aI0
aF4.64
aF1.92
aI1
aI0
aI0
aI0
aI0
aI0
aI0
aI0
aI0
aI0
aI0
aI0
aI0
aI0
aI0
aI0
aI0
aF0.5
aa.(lp0
(lp1
I1
aI0
aI0
aI0
aI0
aI0
aI0
aI0
aI0
aI0
aF1.3
aF0.96
aI3
aI0
aI0
aI0
aI0
aI0
aI0
aI0
aI0
aI0
aI0
aI0
aI0
aI0
aI0
aI0
aI0
aI0
aI0
aI0
aI0
aI0
aI0
aI0
aI0
aF0.67
aa.(lp0
(lp1
I0
aI1
aI0
aI0
aI0
aI1
aI0
aI0
aI0
aI0
aF0.37
aF3.2
aI4
aI0
aI0
aI0
aI0
aI0
aI0
aI0
aI0
aI0
aI0
aI0
aI0
aI0
aI0
aI0
aI0
aI0
aI0
aI0
aI0
aI0
aI0
aI0
aI0
aF0.83
aa(lp2
I0
aI1
aI0
aI0
aI0
aI1
aI0
aI0
aI0
aI0
aF0.37
aF3.2
aI4
aI0
aI0
aI0
aI0
aI0
aF0.37
aF4.48
aI1
aI0
aI0
aI0
aI0
aI0
aI0
aI0
aI0
aI0
aI0
aI0
aI0
aI0
aI0
aI0
aI0
aF1.0
aa.(lp0
(lp1
I1
aI0
aI0
aI0
aI0
aI0
aI0
aI0
aI0
aI0
aF0.05
aF4.48
aI3
aI0
aI0
aI0
aI0
aI0
aI0
aI0
aI0
aI0
aI0
aI0
aI0
aI0
aI0
aI0
aI0
aI0
aI0
aI0
aI0
aI0
aI0
aI0
aI0
aF1.0
aa.(lp0
(lp1
I0
aI0
aI0
aI0
aI0
aI1
aI0
aI0
aI0
aI0
aF4.21
aF4.48
aI4
aI0
aI0
aI0
aI0
aI0
aI0
aI0
aI0
aI0
aI0
aI0
aI0
aI0
aI0
aI0
aI0
aI0
aI0
aI0
aI0
aI0
aI0
aI0
aI0
aF0.67
aa(lp2
I0
aI0
aI0
aI0
aI0
aI1
aI0
aI0
aI0
aI0
aF4.21
aF4.48
aI4
aI1
aI0
aI0
aI0
aI0
aF4.21
aF4.48
aI1
aI0
aI0
aI0
aI0
aI0
aI0
aI0
aI0
aI0
aI0
aI0
aI0
aI0
aI0
aI0
aI0
aF0.83
aa(lp3
I0
aI0
aI0
aI0
aI0
aI1
aI0
aI0
aI0
aI0
aF4.21
aF4.48
aI4
aI1
aI0
aI0
aI0
aI0
aF4.21
aF4.48
aI1
aI0
aI0
aI0
aI0
aI0
aI0
aI0
aI0
aI0
aI0
aI0
aI0
aI0
aI0
aI0
aI0
aF0.83
aa(lp4
I0
aI0
aI0
aI0
aI0
aI1
aI0
aI0
aI0
aI0
aF4.21
aF4.48
aI4
aI1
aI0
aI0
aI0
aI0
aF4.21
aF4.48
aI1
aI0
aI0
aI0
aI0
aI0
aI0
aI0
aI0
aI0
aI0
aI0
aI0
aI0
aI0
aI0
aI0
aF0.83
aa.(lp0
(lp1
I0
aI1
aI0
aI0
aI0
aI1
aI0
aI0
aI0
aI0
aF0.87
aF4.48
aI3
aI0
aI0
aI0
aI0
aI0
aI0
aI0
aI0
aI0
aI0
aI0
aI0
aI0
aI0
aI0
aI0
aI0
aI0
aI0
aI0
aI0
aI0
aI0
aI0
aF0.5
aa(lp2
I0
aI1
aI0
aI0
aI0
aI1
aI0
aI0
aI0
aI0
aF0.87
aF4.48
aI3
aI0
aI0
aI0
aI0
aI0
aF0.87
aF4.48
aI2
aI0
aI0
aI0
aI0
aI0
aI0
aI0
aI0
aI0
aI0
aI0
aI0
aI0
aI0
aI0
aI0
aF0.5
aa.(lp0
(lp1
I1
aI0
aI0
aI0
aI0
aI0
aI0
aI0
aI0
aI0
aF0.05
aF2.88
aI3
aI0
aI0
aI0
aI0
aI0
aI0
aI0
aI0
aI0
aI0
aI0
aI0
aI0
aI0
aI0
aI0
aI0
aI0
aI0
aI0
aI0
aI0
aI0
aI0
aF1.0
aa.(lp0
(lp1
I0
aI0
aI0
aI0
aI0
aI1
aI0
aI0
aI0
aI0
aF5.33
aF2.88
aI4
aI0
aI0
aI0
aI0
aI0
aI0
aI0
aI0
aI0
aI0
aI0
aI0
aI0
aI0
aI0
aI0
aI0
aI0
aI0
aI0
aI0
aI0
aI0
aI0
aF0.5
aa(lp2
I0
aI0
aI0
aI0
aI0
aI1
aI0
aI0
aI0
aI0
aF5.33
aF2.88
aI4
aI1
aI0
aI0
aI0
aI0
aF5.33
aF3.36
aI2
aI0
aI0
aI0
aI0
aI0
aI0
aI0
aI0
aI0
aI0
aI0
aI0
aI0
aI0
aI0
aI0
aF0.5
aa(lp3
I0
aI0
aI0
aI0
aI0
aI1
aI0
aI0
aI0
aI0
aF5.33
aF2.88
aI4
aI1
aI0
aI0
aI0
aI0
aF5.33
aF3.36
aI2
aI0
aI0
aI0
aI0
aI0
aI0
aI0
aI0
aI0
aI0
aI0
aI0
aI0
aI0
aI0
aI0
aF0.5
aa(lp4
I0
aI0
aI0
aI0
aI0
aI1
aI0
aI0
aI0
aI0
aF5.33
aF2.88
aI4
aI1
aI0
aI0
aI0
aI0
aF5.33
aF3.36
aI2
aI0
aI0
aI0
aI0
aI0
aI0
aI0
aI0
aI0
aI0
aI0
aI0
aI0
aI0
aI0
aI0
aF0.5
aa.(lp0
(lp1
I0
aI1
aI0
aI0
aI0
aI1
aI0
aI0
aI0
aI0
aF0.5
aF3.36
aI3
aI0
aI0
aI0
aI0
aI0
aI0
aI0
aI0
aI0
aI0
aI0
aI0
aI0
aI0
aI0
aI0
aI0
aI0
aI0
aI0
aI0
aI0
aI0
aI0
aF0.67
aa(lp2
I0
aI1
aI0
aI0
aI0
aI1
aI0
aI0
aI0
aI0
aF0.5
aF3.36
aI3
aI0
aI0
aI0
aI0
aI0
aF0.5
aF3.36
aI2
aI0
aI0
aI0
aI0
aI0
aI0
aI0
aI0
aI0
aI0
aI0
aI0
aI0
aI0
aI0
aI0
aF0.67
aa.(lp0
(lp1
I1
aI0
aI0
aI0
aI0
aI0
aI0
aI0
aI0
aI0
aF1.0
aF0.05
aI7
aI0
aI0
aI0
aI0
aI0
aI0
aI0
aI0
aI0
aI0
aI0
aI0
aI0
aI0
aI0
aI0
aI0
aI0
aI0
aI0
aI0
aI0
aI0
aI0
aF0.14
aa.(lp0
(lp1
I0
aI1
aI0
aI0
aI0
aI1
aI0
aI0
aI0
aI0
aF0.99
aF0.14
aI7
aI0
aI0
aI0
aI0
aI0
aI0
aI0
aI0
aI0
aI0
aI0
aI0
aI0
aI0
aI0
aI0
aI0
aI0
aI0
aI0
aI0
aI0
aI0
aI0
aF0.43
aa(lp2
I0
aI1
aI0
aI0
aI0
aI1
aI0
aI0
aI0
aI0
aF0.99
aF0.14
aI7
aI0
aI0
aI0
aI0
aI0
aF0.99
aF0.14
aI6
aI0
aI0
aI0
aI0
aI0
aI0
aI0
aI0
aI0
aI0
aI0
aI0
aI0
aI0
aI0
aI0
aF0.14
aa.(lp0
(lp1
I0
aI1
aI0
aI0
aI0
aI1
aI0
aI0
aI0
aI0
aF0.99
aF0.07
aI7
aI0
aI0
aI0
aI0
aI0
aI0
aI0
aI0
aI0
aI0
aI0
aI0
aI0
aI0
aI0
aI0
aI0
aI0
aI0
aI0
aI0
aI0
aI0
aI0
aF0.29
aa(lp2
I0
aI1
aI0
aI0
aI0
aI1
aI0
aI0
aI0
aI0
aF0.99
aF0.07
aI7
aI0
aI0
aI0
aI0
aI0
aF0.99
aF0.16
aI4
aI0
aI0
aI0
aI0
aI0
aI0
aI0
aI0
aI0
aI0
aI0
aI0
aI0
aI0
aI0
aI0
aF0.0
aa.(lp0
(lp1
I0
aI1
aI0
aI0
aI0
aI1
aI0
aI0
aI0
aI0
aF0.99
aF0.14
aI7
aI0
aI0
aI0
aI0
aI0
aI0
aI0
aI0
aI0
aI0
aI0
aI0
aI0
aI0
aI0
aI0
aI0
aI0
aI0
aI0
aI0
aI0
aI0
aI0
aF0.57
aa(lp2
I0
aI1
aI0
aI0
aI0
aI1
aI0
aI0
aI0
aI0
aF0.99
aF0.14
aI7
aI0
aI0
aI0
aI0
aI0
aF0.99
aF0.14
aI5
aI0
aI0
aI0
aI0
aI0
aI0
aI0
aI0
aI0
aI0
aI0
aI0
aI0
aI0
aI0
aI0
aF0.57
aa.(lp0
(lp1
I0
aI1
aI0
aI0
aI0
aI1
aI0
aI0
aI0
aI0
aF0.99
aF0.11
aI7
aI0
aI0
aI0
aI0
aI0
aI0
aI0
aI0
aI0
aI0
aI0
aI0
aI0
aI0
aI0
aI0
aI0
aI0
aI0
aI0
aI0
aI0
aI0
aI0
aF0.86
aa(lp2
I0
aI1
aI0
aI0
aI0
aI1
aI0
aI0
aI0
aI0
aF0.99
aF0.11
aI7
aI0
aI0
aI0
aI0
aI0
aF0.99
aF0.28
aI3
aI0
aI0
aI0
aI0
aI0
aI0
aI0
aI0
aI0
aI0
aI0
aI0
aI0
aI0
aI0
aI0
aF0.29
aa.(lp0
(lp1
I0
aI0
aI0
aI0
aI0
aI1
aI0
aI0
aI0
aI0
aF0.99
aF0.09
aI7
aI0
aI0
aI0
aI0
aI0
aI0
aI0
aI0
aI0
aI0
aI0
aI0
aI0
aI0
aI0
aI0
aI0
aI0
aI0
aI0
aI0
aI0
aI0
aI0
aF0.0
aa(lp2
I0
aI0
aI0
aI0
aI0
aI1
aI0
aI0
aI0
aI0
aF0.99
aF0.09
aI7
aI0
aI1
aI0
aI0
aI0
aF0.95
aF0.28
aI4
aI0
aI0
aI0
aI0
aI0
aI0
aI0
aI0
aI0
aI0
aI0
aI0
aI0
aI0
aI0
aI0
aF0.71
aa(lp3
I0
aI0
aI0
aI0
aI0
aI1
aI0
aI0
aI0
aI0
aF0.99
aF0.09
aI7
aI0
aI1
aI0
aI0
aI0
aF0.95
aF0.28
aI4
aI0
aI0
aI0
aI0
aI0
aI0
aI0
aI0
aI0
aI0
aI0
aI0
aI0
aI0
aI0
aI0
aF0.71
aa(lp4
I0
aI0
aI0
aI0
aI0
aI1
aI0
aI0
aI0
aI0
aF0.99
aF0.09
aI7
aI0
aI1
aI0
aI0
aI0
aF0.95
aF0.28
aI4
aI0
aI0
aI0
aI0
aI0
aI0
aI0
aI0
aI0
aI0
aI0
aI0
aI0
aI0
aI0
aI0
aF0.71
aa.(lp0
(lp1
I0
aI1
aI0
aI0
aI0
aI1
aI0
aI0
aI0
aI0
aF0.99
aF0.13
aI7
aI0
aI0
aI0
aI0
aI0
aI0
aI0
aI0
aI0
aI0
aI0
aI0
aI0
aI0
aI0
aI0
aI0
aI0
aI0
aI0
aI0
aI0
aI0
aI0
aF1.0
aa(lp2
I0
aI1
aI0
aI0
aI0
aI1
aI0
aI0
aI0
aI0
aF0.99
aF0.13
aI7
aI0
aI0
aI0
aI0
aI0
aF0.99
aF0.28
aI2
aI0
aI0
aI0
aI0
aI0
aI0
aI0
aI0
aI0
aI0
aI0
aI0
aI0
aI0
aI0
aI0
aF0.43
aa.(lp0
(lp1
I0
aI1
aI0
aI0
aI0
aI1
aI0
aI0
aI0
aI0
aF0.99
aF0.05
aI8
aI0
aI0
aI0
aI0
aI0
aI0
aI0
aI0
aI0
aI0
aI0
aI0
aI0
aI0
aI0
aI0
aI0
aI0
aI0
aI0
aI0
aI0
aI0
aI0
aF0.71
aa(lp2
I0
aI1
aI0
aI0
aI0
aI1
aI0
aI0
aI0
aI0
aF0.99
aF0.05
aI8
aI0
aI1
aI0
aI0
aI0
aF0.99
aF0.28
aI1
aI0
aI0
aI0
aI0
aI0
aI0
aI0
aI0
aI0
aI0
aI0
aI0
aI0
aI0
aI0
aI0
aF0.86
aa.(lp0
(lp1
I1
aI0
aI0
aI0
aI0
aI0
aI0
aI0
aI0
aI0
aF1.0
aF0.03
aI5
aI0
aI0
aI0
aI0
aI0
aI0
aI0
aI0
aI0
aI0
aI0
aI0
aI0
aI0
aI0
aI0
aI0
aI0
aI0
aI0
aI0
aI0
aI0
aI0
aF0.4
aa.(lp0
(lp1
I1
aI0
aI0
aI0
aI0
aI0
aI0
aI0
aI0
aI0
aF0.99
aF0.41
aI2
aI0
aI0
aI0
aI0
aI0
aI0
aI0
aI0
aI0
aI0
aI0
aI0
aI0
aI0
aI0
aI0
aI0
aI0
aI0
aI0
aI0
aI0
aI0
aI0
aF0.0
aa.(lp0
(lp1
I0
aI1
aI0
aI0
aI0
aI2
aI0
aI0
aI0
aI0
aF0.88
aF0.75
aI2
aI0
aI0
aI0
aI0
aI0
aI0
aI0
aI0
aI0
aI0
aI0
aI0
aI0
aI0
aI0
aI0
aI0
aI0
aI0
aI0
aI0
aI0
aI0
aI0
aF0.8
aa(lp2
I0
aI1
aI0
aI0
aI0
aI2
aI0
aI0
aI0
aI0
aF0.88
aF0.75
aI2
aI0
aI0
aI0
aI0
aI0
aF0.88
aF1.11
aI1
aI0
aI0
aI0
aI0
aI0
aI0
aI0
aI0
aI0
aI0
aI0
aI0
aI0
aI0
aI0
aI0
aF0.6
aa.(lp0
(lp1
I1
aI0
aI0
aI0
aI0
aI0
aI0
aI0
aI0
aI0
aF1.0
aF0.41
aI3
aI0
aI0
aI0
aI0
aI0
aI0
aI0
aI0
aI0
aI0
aI0
aI0
aI0
aI0
aI0
aI0
aI0
aI0
aI0
aI0
aI0
aI0
aI0
aI0
aF0.6
aa.(lp0
(lp1
I0
aI0
aI0
aI0
aI0
aI0
aI1
aI0
aI0
aI0
aF0.88
aF0.41
aI5
aI0
aI0
aI0
aI0
aI0
aI0
aI0
aI0
aI0
aI0
aI0
aI0
aI0
aI0
aI0
aI0
aI0
aI0
aI0
aI0
aI0
aI0
aI0
aI0
aF1.0
aa(lp2
I0
aI0
aI0
aI0
aI0
aI0
aI1
aI0
aI0
aI0
aF0.88
aF0.41
aI5
aI0
aI1
aI0
aI0
aI0
aF0.76
aF1.11
aI2
aI0
aI0
aI0
aI0
aI0
aI0
aI0
aI0
aI0
aI0
aI0
aI0
aI0
aI0
aI0
aI0
aF1.0
aa(lp3
I0
aI0
aI0
aI0
aI0
aI0
aI1
aI0
aI0
aI0
aF0.88
aF0.41
aI5
aI0
aI1
aI0
aI0
aI0
aF0.76
aF1.11
aI2
aI0
aI0
aI0
aI0
aI0
aI0
aI0
aI0
aI0
aI0
aI0
aI0
aI0
aI0
aI0
aI0
aF1.0
aa(lp4
I0
aI0
aI0
aI0
aI0
aI0
aI1
aI0
aI0
aI0
aF0.88
aF0.41
aI5
aI0
aI1
aI0
aI0
aI0
aF0.76
aF1.11
aI2
aI0
aI0
aI0
aI0
aI0
aI0
aI0
aI0
aI0
aI0
aI0
aI0
aI0
aI0
aI0
aI0
aF1.0
aa.(lp0
(lp1
I1
aI0
aI0
aI0
aI0
aI0
aI0
aI0
aI0
aI0
aF1.0
aF0.41
aI4
aI0
aI0
aI0
aI0
aI0
aI0
aI0
aI0
aI0
aI0
aI0
aI0
aI0
aI0
aI0
aI0
aI0
aI0
aI0
aI0
aI0
aI0
aI0
aI0
aF0.2
aa.(lp0
(lp1
I1
aI0
aI0
aI0
aI0
aI0
aI0
aI0
aI0
aI0
aF0.99
aF0.77
aI3
aI0
aI0
aI0
aI0
aI0
aI0
aI0
aI0
aI0
aI0
aI0
aI0
aI0
aI0
aI0
aI0
aI0
aI0
aI0
aI0
aI0
aI0
aI0
aI0
aF0.0
aa.(lp0
(lp1
I1
aI0
aI0
aI0
aI0
aI0
aI0
aI0
aI0
aI0
aF0.99
aF0.77
aI4
aI0
aI0
aI0
aI0
aI0
aI0
aI0
aI0
aI0
aI0
aI0
aI0
aI0
aI0
aI0
aI0
aI0
aI0
aI0
aI0
aI0
aI0
aI0
aI0
aF0.4
aa.(lp0
(lp1
I0
aI1
aI0
aI0
aI0
aI2
aI0
aI0
aI0
aI0
aF0.76
aF1.11
aI3
aI0
aI0
aI0
aI0
aI0
aI0
aI0
aI0
aI0
aI0
aI0
aI0
aI0
aI0
aI0
aI0
aI0
aI0
aI0
aI0
aI0
aI0
aI0
aI0
aF0.8
aa(lp2
I0
aI1
aI0
aI0
aI0
aI2
aI0
aI0
aI0
aI0
aF0.76
aF1.11
aI3
aI0
aI0
aI0
aI0
aI0
aF0.76
aF1.23
aI1
aI0
aI0
aI0
aI0
aI0
aI0
aI0
aI0
aI0
aI0
aI0
aI0
aI0
aI0
aI0
aI0
aF0.4
aa.(lp0
(lp1
I1
aI0
aI0
aI0
aI0
aI0
aI0
aI0
aI0
aI0
aF1.0
aF0.77
aI5
aI0
aI0
aI0
aI0
aI0
aI0
aI0
aI0
aI0
aI0
aI0
aI0
aI0
aI0
aI0
aI0
aI0
aI0
aI0
aI0
aI0
aI0
aI0
aI0
aF0.6
aa.(lp0
(lp1
I0
aI0
aI0
aI0
aI0
aI0
aI1
aI0
aI0
aI0
aF1.01
aF0.41
aI6
aI0
aI0
aI0
aI0
aI0
aI0
aI0
aI0
aI0
aI0
aI0
aI0
aI0
aI0
aI0
aI0
aI0
aI0
aI0
aI0
aI0
aI0
aI0
aI0
aF1.0
aa(lp2
I0
aI0
aI0
aI0
aI0
aI0
aI1
aI0
aI0
aI0
aF1.01
aF0.41
aI6
aI0
aI1
aI0
aI0
aI0
aF0.97
aF1.23
aI3
aI0
aI0
aI0
aI0
aI0
aI0
aI0
aI0
aI0
aI0
aI0
aI0
aI0
aI0
aI0
aI0
aF1.0
aa(lp3
I0
aI0
aI0
aI0
aI0
aI0
aI1
aI0
aI0
aI0
aF1.01
aF0.41
aI6
aI0
aI1
aI0
aI0
aI0
aF0.97
aF1.23
aI3
aI0
aI0
aI0
aI0
aI0
aI0
aI0
aI0
aI0
aI0
aI0
aI0
aI0
aI0
aI0
aI0
aF1.0
aa(lp4
I0
aI0
aI0
aI0
aI0
aI0
aI1
aI0
aI0
aI0
aF1.01
aF0.41
aI6
aI0
aI1
aI0
aI0
aI0
aF0.97
aF1.23
aI3
aI0
aI0
aI0
aI0
aI0
aI0
aI0
aI0
aI0
aI0
aI0
aI0
aI0
aI0
aI0
aI0
aF1.0
aa.(lp0
(lp1
I0
aI1
aI0
aI0
aI0
aI1
aI0
aI0
aI0
aI0
aF0.88
aF0.77
aI6
aI0
aI0
aI0
aI0
aI0
aI0
aI0
aI0
aI0
aI0
aI0
aI0
aI0
aI0
aI0
aI0
aI0
aI0
aI0
aI0
aI0
aI0
aI0
aI0
aF0.2
aa(lp2
I0
aI1
aI0
aI0
aI0
aI1
aI0
aI0
aI0
aI0
aF0.88
aF0.77
aI6
aI0
aI0
aI0
aI0
aI0
aF0.88
aF1.23
aI2
aI0
aI0
aI0
aI0
aI0
aI0
aI0
aI0
aI0
aI0
aI0
aI0
aI0
aI0
aI0
aI0
aF0.2
aa.(lp0
(lp1
I0
aI1
aI0
aI0
aI0
aI1
aI0
aI0
aI0
aI0
aF0.99
aF0.1
aI5
aI0
aI0
aI0
aI0
aI0
aI0
aI0
aI0
aI0
aI0
aI0
aI0
aI0
aI0
aI0
aI0
aI0
aI0
aI0
aI0
aI0
aI0
aI0
aI0
aF0.0
aa(lp2
I0
aI1
aI0
aI0
aI0
aI1
aI0
aI0
aI0
aI0
aF0.99
aF0.1
aI5
aI0
aI0
aI0
aI0
aI0
aF0.99
aF0.1
aI4
aI0
aI0
aI0
aI0
aI0
aI0
aI0
aI0
aI0
aI0
aI0
aI0
aI0
aI0
aI0
aI0
aF0.2
aa.(lp0
(lp1
I1
aI0
aI0
aI0
aI0
aI0
aI0
aI0
aI0
aI0
aF0.99
aF0.09
aI5
aI0
aI0
aI0
aI0
aI0
aI0
aI0
aI0
aI0
aI0
aI0
aI0
aI0
aI0
aI0
aI0
aI0
aI0
aI0
aI0
aI0
aI0
aI0
aI0
aF0.4
aa.(lp0
(lp1
I0
aI1
aI0
aI0
aI0
aI1
aI0
aI0
aI0
aI0
aF0.75
aF0.1
aI5
aI0
aI0
aI0
aI0
aI0
aI0
aI0
aI0
aI0
aI0
aI0
aI0
aI0
aI0
aI0
aI0
aI0
aI0
aI0
aI0
aI0
aI0
aI0
aI0
aF1.0
aa(lp2
I0
aI1
aI0
aI0
aI0
aI1
aI0
aI0
aI0
aI0
aF0.75
aF0.1
aI5
aI0
aI0
aI0
aI0
aI0
aF0.75
aF0.1
aI3
aI0
aI0
aI0
aI0
aI0
aI0
aI0
aI0
aI0
aI0
aI0
aI0
aI0
aI0
aI0
aI0
aF0.8
aa.(lp0
(lp1
I0
aI0
aI0
aI0
aI0
aI1
aI0
aI0
aI0
aI0
aF0.99
aF0.09
aI6
aI0
aI0
aI0
aI0
aI0
aI0
aI0
aI0
aI0
aI0
aI0
aI0
aI0
aI0
aI0
aI0
aI0
aI0
aI0
aI0
aI0
aI0
aI0
aI0
aF0.6
aa(lp2
I0
aI0
aI0
aI0
aI0
aI1
aI0
aI0
aI0
aI0
aF0.99
aF0.09
aI6
aI1
aI0
aI0
aI0
aI0
aF0.98
aF0.14
aI2
aI0
aI0
aI0
aI0
aI0
aI0
aI0
aI0
aI0
aI0
aI0
aI0
aI0
aI0
aI0
aI0
aF1.0
aa(lp3
I0
aI0
aI0
aI0
aI0
aI1
aI0
aI0
aI0
aI0
aF0.99
aF0.09
aI6
aI1
aI0
aI0
aI0
aI0
aF0.98
aF0.14
aI2
aI1
aI0
aI0
aI0
aI0
aF0.98
aF0.18
aI2
aI0
aI0
aI0
aI0
aI0
aI0
aI0
aI0
aF1.0
aa(lp4
I0
aI0
aI0
aI0
aI0
aI1
aI0
aI0
aI0
aI0
aF0.99
aF0.09
aI6
aI1
aI0
aI0
aI0
aI0
aF0.98
aF0.14
aI2
aI1
aI0
aI0
aI0
aI0
aF0.98
aF0.18
aI2
aI1
aI0
aI0
aI0
aI0
aF0.97
aF0.22
aI2
aF1.0
aa.(lp0
(lp1
I0
aI1
aI0
aI0
aI0
aI1
aI0
aI0
aI0
aI0
aF1.37
aF0.05
aI6
aI0
aI0
aI0
aI0
aI0
aI0
aI0
aI0
aI0
aI0
aI0
aI0
aI0
aI0
aI0
aI0
aI0
aI0
aI0
aI0
aI0
aI0
aI0
aI0
aF0.2
aa(lp2
I0
aI1
aI0
aI0
aI0
aI1
aI0
aI0
aI0
aI0
aF1.37
aF0.05
aI6
aI0
aI0
aI0
aI0
aI0
aF1.37
aF0.1
aI2
aI0
aI0
aI0
aI0
aI0
aI0
aI0
aI0
aI0
aI0
aI0
aI0
aI0
aI0
aI0
aI0
aF0.0
aa.(lp0
(lp1
I0
aI0
aI0
aI0
aI0
aI1
aI0
aI0
aI0
aI0
aF0.87
aF0.07
aI6
aI0
aI0
aI0
aI0
aI0
aI0
aI0
aI0
aI0
aI0
aI0
aI0
aI0
aI0
aI0
aI0
aI0
aI0
aI0
aI0
aI0
aI0
aI0
aI0
aF0.8
aa(lp2
I0
aI0
aI0
aI0
aI0
aI1
aI0
aI0
aI0
aI0
aF0.87
aF0.07
aI6
aI0
aI1
aI0
aI0
aI0
aF0.87
aF0.12
aI2
aI0
aI0
aI0
aI0
aI0
aI0
aI0
aI0
aI0
aI0
aI0
aI0
aI0
aI0
aI0
aI0
aF0.6
aa(lp3
I0
aI0
aI0
aI0
aI0
aI1
aI0
aI0
aI0
aI0
aF0.87
aF0.07
aI6
aI0
aI1
aI0
aI0
aI0
aF0.87
aF0.12
aI2
aI0
aI1
aI0
aI0
aI0
aF0.86
aF0.16
aI2
aI0
aI0
aI0
aI0
aI0
aI0
aI0
aI0
aF0.6
aa(lp4
I0
aI0
aI0
aI0
aI0
aI1
aI0
aI0
aI0
aI0
aF0.87
aF0.07
aI6
aI0
aI1
aI0
aI0
aI0
aF0.87
aF0.12
aI2
aI0
aI1
aI0
aI0
aI0
aF0.86
aF0.16
aI2
aI0
aI1
aI0
aI0
aI0
aF0.85
aF0.2
aI2
aF0.6
aa.(lp0
(lp1
I0
aI0
aI1
aI0
aI0
aI1
aI0
aI0
aI0
aI0
aF0.98
aF0.07
aI4
aI0
aI0
aI0
aI0
aI0
aI0
aI0
aI0
aI0
aI0
aI0
aI0
aI0
aI0
aI0
aI0
aI0
aI0
aI0
aI0
aI0
aI0
aI0
aI0
aF0.8
aa(lp2
I0
aI0
aI1
aI0
aI0
aI1
aI0
aI0
aI0
aI0
aF0.98
aF0.07
aI4
aI0
aI0
aI1
aI0
aI0
aF0.97
aF0.14
aI3
aI0
aI0
aI0
aI0
aI0
aI0
aI0
aI0
aI0
aI0
aI0
aI0
aI0
aI0
aI0
aI0
aF0.8
aa(lp3
I0
aI0
aI1
aI0
aI0
aI1
aI0
aI0
aI0
aI0
aF0.98
aF0.07
aI4
aI0
aI0
aI1
aI0
aI0
aF0.97
aF0.14
aI3
aI0
aI0
aI0
aI0
aI0
aF0.97
aF0.22
aI2
aI0
aI0
aI0
aI0
aI0
aI0
aI0
aI0
aF0.6
aa.(lp0
(lp1
I1
aI0
aI0
aI0
aI0
aI0
aI0
aI0
aI0
aI0
aF0.99
aF0.05
aI4
aI0
aI0
aI0
aI0
aI0
aI0
aI0
aI0
aI0
aI0
aI0
aI0
aI0
aI0
aI0
aI0
aI0
aI0
aI0
aI0
aI0
aI0
aI0
aI0
aF0.4
aa.(lp0
(lp1
I0
aI0
aI0
aI0
aI0
aI1
aI0
aI0
aI0
aI0
aF0.75
aF0.08
aI4
aI0
aI0
aI0
aI0
aI0
aI0
aI0
aI0
aI0
aI0
aI0
aI0
aI0
aI0
aI0
aI0
aI0
aI0
aI0
aI0
aI0
aI0
aI0
aI0
aF1.0
aa(lp2
I0
aI0
aI0
aI0
aI0
aI1
aI0
aI0
aI0
aI0
aF0.75
aF0.08
aI4
aI1
aI0
aI0
aI0
aI0
aF0.73
aF0.18
aI3
aI0
aI0
aI0
aI0
aI0
aI0
aI0
aI0
aI0
aI0
aI0
aI0
aI0
aI0
aI0
aI0
aF1.0
aa(lp3
I0
aI0
aI0
aI0
aI0
aI1
aI0
aI0
aI0
aI0
aF0.75
aF0.08
aI4
aI1
aI0
aI0
aI0
aI0
aF0.73
aF0.18
aI3
aI1
aI0
aI0
aI0
aI0
aF0.73
aF0.24
aI2
aI0
aI0
aI0
aI0
aI0
aI0
aI0
aI0
aF0.8
aa(lp4
I0
aI0
aI0
aI0
aI0
aI1
aI0
aI0
aI0
aI0
aF0.75
aF0.08
aI4
aI1
aI0
aI0
aI0
aI0
aF0.73
aF0.18
aI3
aI1
aI0
aI0
aI0
aI0
aF0.73
aF0.24
aI2
aI1
aI0
aI0
aI0
aI0
aF0.72
aF0.28
aI2
aF0.8
aa.(lp0
(lp1
I0
aI0
aI0
aI0
aI0
aI1
aI0
aI0
aI0
aI0
aF1.04
aF0.05
aI5
aI0
aI0
aI0
aI0
aI0
aI0
aI0
aI0
aI0
aI0
aI0
aI0
aI0
aI0
aI0
aI0
aI0
aI0
aI0
aI0
aI0
aI0
aI0
aI0
aF0.0
aa(lp2
I0
aI0
aI0
aI0
aI0
aI1
aI0
aI0
aI0
aI0
aF1.04
aF0.05
aI5
aI1
aI1
aI0
aI0
aI0
aF1.02
aF0.2
aI3
aI0
aI0
aI0
aI0
aI0
aI0
aI0
aI0
aI0
aI0
aI0
aI0
aI0
aI0
aI0
aI0
aF0.0
aa(lp3
I0
aI0
aI0
aI0
aI0
aI1
aI0
aI0
aI0
aI0
aF1.04
aF0.05
aI5
aI1
aI1
aI0
aI0
aI0
aF1.02
aF0.2
aI3
aI0
aI1
aI0
aI0
aI0
aF1.02
aF0.22
aI3
aI0
aI0
aI0
aI0
aI0
aI0
aI0
aI0
aF0.0
aa(lp4
I0
aI0
aI0
aI0
aI0
aI1
aI0
aI0
aI0
aI0
aF1.04
aF0.05
aI5
aI1
aI1
aI0
aI0
aI0
aF1.02
aF0.2
aI3
aI0
aI1
aI0
aI0
aI0
aF1.02
aF0.22
aI3
aI0
aI1
aI0
aI0
aI0
aF1.01
aF0.26
aI2
aF0.0
aa.(lp0
(lp1
I0
aI1
aI0
aI0
aI0
aI1
aI0
aI0
aI0
aI0
aF1.37
aF0.08
aI4
aI0
aI0
aI0
aI0
aI0
aI0
aI0
aI0
aI0
aI0
aI0
aI0
aI0
aI0
aI0
aI0
aI0
aI0
aI0
aI0
aI0
aI0
aI0
aI0
aF0.2
aa(lp2
I0
aI1
aI0
aI0
aI0
aI1
aI0
aI0
aI0
aI0
aF1.37
aF0.08
aI4
aI0
aI0
aI0
aI0
aI0
aF1.37
aF0.08
aI3
aI0
aI0
aI0
aI0
aI0
aI0
aI0
aI0
aI0
aI0
aI0
aI0
aI0
aI0
aI0
aI0
aF0.4
aa.(lp0
(lp1
I1
aI0
aI0
aI0
aI0
aI0
aI0
aI0
aI0
aI0
aF0.85
aF0.03
aI5
aI0
aI0
aI0
aI0
aI0
aI0
aI0
aI0
aI0
aI0
aI0
aI0
aI0
aI0
aI0
aI0
aI0
aI0
aI0
aI0
aI0
aI0
aI0
aI0
aF0.6
aa.(lp0
(lp1
I1
aI0
aI0
aI0
aI0
aI1
aI0
aI0
aI0
aI0
aF0.96
aF0.8
aI3
aI0
aI0
aI0
aI0
aI0
aI0
aI0
aI0
aI0
aI0
aI0
aI0
aI0
aI0
aI0
aI0
aI0
aI0
aI0
aI0
aI0
aI0
aI0
aI0
aF0.4
aa.(lp0
(lp1
I1
aI0
aI0
aI0
aI0
aI0
aI0
aI0
aI0
aI0
aF0.99
aF0.05
aI5
aI0
aI0
aI0
aI0
aI0
aI0
aI0
aI0
aI0
aI0
aI0
aI0
aI0
aI0
aI0
aI0
aI0
aI0
aI0
aI0
aI0
aI0
aI0
aI0
aF0.6
aa.(lp0
(lp1
I0
aI1
aI0
aI0
aI0
aI2
aI0
aI0
aI0
aI0
aF0.69
aF1.15
aI3
aI0
aI0
aI0
aI0
aI0
aI0
aI0
aI0
aI0
aI0
aI0
aI0
aI0
aI0
aI0
aI0
aI0
aI0
aI0
aI0
aI0
aI0
aI0
aI0
aF0.8
aa(lp2
I0
aI1
aI0
aI0
aI0
aI2
aI0
aI0
aI0
aI0
aF0.69
aF1.15
aI3
aI0
aI0
aI0
aI0
aI0
aF0.69
aF1.51
aI1
aI0
aI0
aI0
aI0
aI0
aI0
aI0
aI0
aI0
aI0
aI0
aI0
aI0
aI0
aI0
aI0
aF0.4
aa.(lp0
(lp1
I1
aI0
aI0
aI0
aI0
aI1
aI0
aI0
aI0
aI0
aF1.0
aF0.8
aI4
aI0
aI0
aI0
aI0
aI0
aI0
aI0
aI0
aI0
aI0
aI0
aI0
aI0
aI0
aI0
aI0
aI0
aI0
aI0
aI0
aI0
aI0
aI0
aI0
aF0.0
aa.(lp0
(lp1
I0
aI0
aI0
aI0
aI0
aI0
aI1
aI0
aI0
aI0
aF1.24
aF0.45
aI5
aI0
aI0
aI0
aI0
aI0
aI0
aI0
aI0
aI0
aI0
aI0
aI0
aI0
aI0
aI0
aI0
aI0
aI0
aI0
aI0
aI0
aI0
aI0
aI0
aF1.0
aa(lp2
I0
aI0
aI0
aI0
aI0
aI0
aI1
aI0
aI0
aI0
aF1.24
aF0.45
aI5
aI0
aI1
aI0
aI0
aI0
aF1.12
aF1.51
aI3
aI0
aI0
aI0
aI0
aI0
aI0
aI0
aI0
aI0
aI0
aI0
aI0
aI0
aI0
aI0
aI0
aF1.0
aa(lp3
I0
aI0
aI0
aI0
aI0
aI0
aI1
aI0
aI0
aI0
aF1.24
aF0.45
aI5
aI0
aI1
aI0
aI0
aI0
aF1.12
aF1.51
aI3
aI0
aI0
aI0
aI0
aI0
aI0
aI0
aI0
aI0
aI0
aI0
aI0
aI0
aI0
aI0
aI0
aF1.0
aa(lp4
I0
aI0
aI0
aI0
aI0
aI0
aI1
aI0
aI0
aI0
aF1.24
aF0.45
aI5
aI0
aI1
aI0
aI0
aI0
aF1.12
aF1.51
aI3
aI0
aI0
aI0
aI0
aI0
aI0
aI0
aI0
aI0
aI0
aI0
aI0
aI0
aI0
aI0
aI0
aF1.0
aa.(lp0
(lp1
I0
aI1
aI0
aI0
aI0
aI1
aI0
aI0
aI0
aI0
aF0.73
aF0.8
aI5
aI0
aI0
aI0
aI0
aI0
aI0
aI0
aI0
aI0
aI0
aI0
aI0
aI0
aI0
aI0
aI0
aI0
aI0
aI0
aI0
aI0
aI0
aI0
aI0
aF0.2
aa(lp2
I0
aI1
aI0
aI0
aI0
aI1
aI0
aI0
aI0
aI0
aF0.73
aF0.8
aI5
aI0
aI0
aI0
aI0
aI0
aF0.73
aF1.51
aI2
aI0
aI0
aI0
aI0
aI0
aI0
aI0
aI0
aI0
aI0
aI0
aI0
aI0
aI0
aI0
aI0
aF0.2
aa.(lp0
(lp1
I0
aI0
aI0
aI1
aI0
aI2
aI0
aI0
aI0
aI0
aF0.84
aF1.46
aI4
aI0
aI0
aI0
aI0
aI0
aI0
aI0
aI0
aI0
aI0
aI0
aI0
aI0
aI0
aI0
aI0
aI0
aI0
aI0
aI0
aI0
aI0
aI0
aI0
aF0.2
aa(lp2
I0
aI0
aI0
aI1
aI0
aI2
aI0
aI0
aI0
aI0
aF0.84
aF1.46
aI4
aI0
aI0
aI2
aI0
aI0
aF0.6
aF2.92
aI3
aI0
aI0
aI0
aI0
aI0
aI0
aI0
aI0
aI0
aI0
aI0
aI0
aI0
aI0
aI0
aI0
aF0.8
aa(lp3
I0
aI0
aI0
aI1
aI0
aI2
aI0
aI0
aI0
aI0
aF0.84
aF1.46
aI4
aI0
aI0
aI2
aI0
aI0
aF0.6
aF2.92
aI3
aI0
aI0
aI2
aI0
aI0
aF0.2
aF5.46
aI2
aI0
aI0
aI0
aI0
aI0
aI0
aI0
aI0
aF0.8
aa(lp4
I0
aI0
aI0
aI1
aI0
aI2
aI0
aI0
aI0
aI0
aF0.84
aF1.46
aI4
aI0
aI0
aI2
aI0
aI0
aF0.6
aF2.92
aI3
aI0
aI0
aI2
aI0
aI0
aF0.2
aF5.46
aI2
aI0
aI0
aI0
aI0
aI0
aF0.2
aF6.06
aI1
aF0.8
aa.(lp0
(lp1
I0
aI0
aI1
aI0
aI0
aI2
aI0
aI0
aI0
aI0
aF0.87
aF1.12
aI4
aI0
aI0
aI0
aI0
aI0
aI0
aI0
aI0
aI0
aI0
aI0
aI0
aI0
aI0
aI0
aI0
aI0
aI0
aI0
aI0
aI0
aI0
aI0
aI0
aF0.5
aa(lp2
I0
aI0
aI1
aI0
aI0
aI2
aI0
aI0
aI0
aI0
aF0.87
aF1.12
aI4
aI3
aI0
aI0
aI0
aI0
aF0.63
aF3.64
aI3
aI0
aI0
aI0
aI0
aI0
aI0
aI0
aI0
aI0
aI0
aI0
aI0
aI0
aI0
aI0
aI0
aF0.5
aa(lp3
I0
aI0
aI1
aI0
aI0
aI2
aI0
aI0
aI0
aI0
aF0.87
aF1.12
aI4
aI3
aI0
aI0
aI0
aI0
aF0.63
aF3.64
aI3
aI0
aI1
aI0
aI0
aI0
aF0.62
aF4.3
aI2
aI0
aI0
aI0
aI0
aI0
aI0
aI0
aI0
aF0.5
aa.(lp0
(lp1
I1
aI0
aI0
aI0
aI0
aI0
aI0
aI0
aI0
aI0
aF0.69
aF0.07
aI5
aI0
aI0
aI0
aI0
aI0
aI0
aI0
aI0
aI0
aI0
aI0
aI0
aI0
aI0
aI0
aI0
aI0
aI0
aI0
aI0
aI0
aI0
aI0
aI0
aF0.0
aa.(lp0
(lp1
I1
aI0
aI0
aI0
aI0
aI0
aI0
aI0
aI0
aI0
aF1.0
aF0.78
aI4
aI0
aI0
aI0
aI0
aI0
aI0
aI0
aI0
aI0
aI0
aI0
aI0
aI0
aI0
aI0
aI0
aI0
aI0
aI0
aI0
aI0
aI0
aI0
aI0
aF0.8
aa.(lp0
(lp1
I0
aI0
aI0
aI0
aI0
aI0
aI1
aI0
aI0
aI0
aF1.51
aF0.43
aI5
aI0
aI0
aI0
aI0
aI0
aI0
aI0
aI0
aI0
aI0
aI0
aI0
aI0
aI0
aI0
aI0
aI0
aI0
aI0
aI0
aI0
aI0
aI0
aI0
aF1.0
aa(lp2
I0
aI0
aI0
aI0
aI0
aI0
aI1
aI0
aI0
aI0
aF1.51
aF0.43
aI5
aI1
aI1
aI0
aI0
aI0
aF1.27
aF3.28
aI3
aI0
aI0
aI0
aI0
aI0
aI0
aI0
aI0
aI0
aI0
aI0
aI0
aI0
aI0
aI0
aI0
aF1.0
aa(lp3
I0
aI0
aI0
aI0
aI0
aI0
aI1
aI0
aI0
aI0
aF1.51
aF0.43
aI5
aI1
aI1
aI0
aI0
aI0
aF1.27
aF3.28
aI3
aI1
aI1
aI0
aI0
aI0
aF0.87
aF6.06
aI2
aI0
aI0
aI0
aI0
aI0
aI0
aI0
aI0
aF1.0
aa(lp4
I0
aI0
aI0
aI0
aI0
aI0
aI1
aI0
aI0
aI0
aF1.51
aF0.43
aI5
aI1
aI1
aI0
aI0
aI0
aF1.27
aF3.28
aI3
aI1
aI1
aI0
aI0
aI0
aF0.87
aF6.06
aI2
aI1
aI0
aI0
aI0
aI0
aF0.87
aF6.06
aI1
aF1.0
aa.(lp0
(lp1
I0
aI1
aI0
aI0
aI0
aI1
aI0
aI0
aI0
aI0
aF0.61
aF0.78
aI5
aI0
aI0
aI0
aI0
aI0
aI0
aI0
aI0
aI0
aI0
aI0
aI0
aI0
aI0
aI0
aI0
aI0
aI0
aI0
aI0
aI0
aI0
aI0
aI0
aF0.5
aa(lp2
I0
aI1
aI0
aI0
aI0
aI1
aI0
aI0
aI0
aI0
aF0.61
aF0.78
aI5
aI0
aI1
aI0
aI0
aI0
aF0.6
aF1.9
aI3
aI0
aI0
aI0
aI0
aI0
aI0
aI0
aI0
aI0
aI0
aI0
aI0
aI0
aI0
aI0
aI0
aF0.5
aa.(lp0
(lp1
I0
aI0
aI0
aI0
aI0
aI1
aI0
aI0
aI0
aI0
aF0.19
aF0.1
aI6
aI0
aI0
aI0
aI0
aI0
aI0
aI0
aI0
aI0
aI0
aI0
aI0
aI0
aI0
aI0
aI0
aI0
aI0
aI0
aI0
aI0
aI0
aI0
aI0
aF1.0
aa(lp2
I0
aI0
aI0
aI0
aI0
aI1
aI0
aI0
aI0
aI0
aF0.19
aF0.1
aI6
aI0
aI1
aI0
aI0
aI0
aF0.17
aF0.24
aI4
aI0
aI0
aI0
aI0
aI0
aI0
aI0
aI0
aI0
aI0
aI0
aI0
aI0
aI0
aI0
aI0
aF1.0
aa(lp3
I0
aI0
aI0
aI0
aI0
aI1
aI0
aI0
aI0
aI0
aF0.19
aF0.1
aI6
aI0
aI1
aI0
aI0
aI0
aF0.17
aF0.24
aI4
aI0
aI1
aI0
aI0
aI0
aF0.16
aF0.36
aI3
aI0
aI0
aI0
aI0
aI0
aI0
aI0
aI0
aF0.8
aa(lp4
I0
aI0
aI0
aI0
aI0
aI1
aI0
aI0
aI0
aI0
aF0.19
aF0.1
aI6
aI0
aI1
aI0
aI0
aI0
aF0.17
aF0.24
aI4
aI0
aI1
aI0
aI0
aI0
aF0.16
aF0.36
aI3
aI0
aI1
aI0
aI0
aI0
aF0.15
aF0.44
aI2
aF0.8
aa.(lp0
(lp1
I1
aI0
aI0
aI0
aI0
aI0
aI0
aI0
aI0
aI0
aF0.61
aF0.2
aI4
aI0
aI0
aI0
aI0
aI0
aI0
aI0
aI0
aI0
aI0
aI0
aI0
aI0
aI0
aI0
aI0
aI0
aI0
aI0
aI0
aI0
aI0
aI0
aI0
aF0.2
aa.(lp0
(lp1
I1
aI0
aI0
aI0
aI0
aI0
aI0
aI0
aI0
aI0
aF0.69
aF0.1
aI5
aI0
aI0
aI0
aI0
aI0
aI0
aI0
aI0
aI0
aI0
aI0
aI0
aI0
aI0
aI0
aI0
aI0
aI0
aI0
aI0
aI0
aI0
aI0
aI0
aF0.4
aa.(lp0
(lp1
I0
aI1
aI0
aI0
aI0
aI1
aI0
aI0
aI0
aI0
aF0.98
aF0.2
aI5
aI0
aI0
aI0
aI0
aI0
aI0
aI0
aI0
aI0
aI0
aI0
aI0
aI0
aI0
aI0
aI0
aI0
aI0
aI0
aI0
aI0
aI0
aI0
aI0
aF0.0
aa(lp2
I0
aI1
aI0
aI0
aI0
aI1
aI0
aI0
aI0
aI0
aF0.98
aF0.2
aI5
aI0
aI0
aI0
aI0
aI0
aF0.98
aF0.32
aI3
aI0
aI0
aI0
aI0
aI0
aI0
aI0
aI0
aI0
aI0
aI0
aI0
aI0
aI0
aI0
aI0
aF0.0
aa.(lp0
(lp1
I0
aI0
aI1
aI0
aI0
aI1
aI0
aI0
aI0
aI0
aF2.87
aF0.14
aI5
aI0
aI0
aI0
aI0
aI0
aI0
aI0
aI0
aI0
aI0
aI0
aI0
aI0
aI0
aI0
aI0
aI0
aI0
aI0
aI0
aI0
aI0
aI0
aI0
aF0.6
aa(lp2
I0
aI0
aI1
aI0
aI0
aI1
aI0
aI0
aI0
aI0
aF2.87
aF0.14
aI5
aI1
aI0
aI0
aI0
aI0
aF2.86
aF0.28
aI4
aI0
aI0
aI0
aI0
aI0
aI0
aI0
aI0
aI0
aI0
aI0
aI0
aI0
aI0
aI0
aI0
aF0.6
aa(lp3
I0
aI0
aI1
aI0
aI0
aI1
aI0
aI0
aI0
aI0
aF2.87
aF0.14
aI5
aI1
aI0
aI0
aI0
aI0
aF2.86
aF0.28
aI4
aI0
aI0
aI0
aI0
aI0
aF2.86
aF0.36
aI2
aI0
aI0
aI0
aI0
aI0
aI0
aI0
aI0
aF0.5
aa.(lp0
(lp1
I0
aI0
aI0
aI0
aI0
aI1
aI0
aI0
aI0
aI0
aF0.59
aF0.18
aI5
aI0
aI0
aI0
aI0
aI0
aI0
aI0
aI0
aI0
aI0
aI0
aI0
aI0
aI0
aI0
aI0
aI0
aI0
aI0
aI0
aI0
aI0
aI0
aI0
aF0.8
aa(lp2
I0
aI0
aI0
aI0
aI0
aI1
aI0
aI0
aI0
aI0
aF0.59
aF0.18
aI5
aI1
aI0
aI0
aI0
aI0
aF0.58
aF0.32
aI4
aI0
aI0
aI0
aI0
aI0
aI0
aI0
aI0
aI0
aI0
aI0
aI0
aI0
aI0
aI0
aI0
aF0.8
aa(lp3
I0
aI0
aI0
aI0
aI0
aI1
aI0
aI0
aI0
aI0
aF0.59
aF0.18
aI5
aI1
aI0
aI0
aI0
aI0
aF0.58
aF0.32
aI4
aI1
aI0
aI0
aI0
aI0
aF0.56
aF0.4
aI2
aI0
aI0
aI0
aI0
aI0
aI0
aI0
aI0
aF1.0
aa(lp4
I0
aI0
aI0
aI0
aI0
aI1
aI0
aI0
aI0
aI0
aF0.59
aF0.18
aI5
aI1
aI0
aI0
aI0
aI0
aF0.58
aF0.32
aI4
aI1
aI0
aI0
aI0
aI0
aF0.56
aF0.4
aI2
aI1
aI0
aI0
aI0
aI0
aF0.55
aF0.48
aI2
aF1.0
aa.(lp0
(lp1
I1
aI0
aI0
aI0
aI0
aI0
aI0
aI0
aI0
aI0
aF0.13
aF0.78
aI2
aI0
aI0
aI0
aI0
aI0
aI0
aI0
aI0
aI0
aI0
aI0
aI0
aI0
aI0
aI0
aI0
aI0
aI0
aI0
aI0
aI0
aI0
aI0
aI0
aF0.0
aa.(lp0
(lp1
I1
aI0
aI0
aI0
aI0
aI0
aI0
aI0
aI0
aI0
aF0.6
aF0.78
aI3
aI0
aI0
aI0
aI0
aI0
aI0
aI0
aI0
aI0
aI0
aI0
aI0
aI0
aI0
aI0
aI0
aI0
aI0
aI0
aI0
aI0
aI0
aI0
aI0
aF0.8
aa.(lp0
(lp1
I1
aI0
aI0
aI0
aI0
aI0
aI0
aI0
aI0
aI0
aF0.69
aF0.06
aI5
aI0
aI0
aI0
aI0
aI0
aI0
aI0
aI0
aI0
aI0
aI0
aI0
aI0
aI0
aI0
aI0
aI0
aI0
aI0
aI0
aI0
aI0
aI0
aI0
aF0.4
aa.(lp0
(lp1
I1
aI0
aI0
aI0
aI0
aI0
aI0
aI0
aI0
aI0
aF0.98
aF0.78
aI4
aI0
aI0
aI0
aI0
aI0
aI0
aI0
aI0
aI0
aI0
aI0
aI0
aI0
aI0
aI0
aI0
aI0
aI0
aI0
aI0
aI0
aI0
aI0
aI0
aF0.2
aa.(lp0
(lp1
I0
aI1
aI0
aI0
aI0
aI0
aI1
aI0
aI0
aI0
aF2.74
aF0.42
aI5
aI0
aI0
aI0
aI0
aI0
aI0
aI0
aI0
aI0
aI0
aI0
aI0
aI0
aI0
aI0
aI0
aI0
aI0
aI0
aI0
aI0
aI0
aI0
aI0
aF1.0
aa(lp2
I0
aI1
aI0
aI0
aI0
aI0
aI1
aI0
aI0
aI0
aF2.74
aF0.42
aI5
aI0
aI0
aI0
aI0
aI0
aF2.74
aF0.78
aI1
aI0
aI0
aI0
aI0
aI0
aI0
aI0
aI0
aI0
aI0
aI0
aI0
aI0
aI0
aI0
aI0
aF0.4
aa.(lp0
(lp1
I0
aI0
aI0
aI0
aI0
aI1
aI0
aI0
aI0
aI0
aF0.59
aF0.78
aI5
aI0
aI0
aI0
aI0
aI0
aI0
aI0
aI0
aI0
aI0
aI0
aI0
aI0
aI0
aI0
aI0
aI0
aI0
aI0
aI0
aI0
aI0
aI0
aI0
aF0.6
aa(lp2
I0
aI0
aI0
aI0
aI0
aI1
aI0
aI0
aI0
aI0
aF0.59
aF0.78
aI5
aI1
aI0
aI0
aI0
aI0
aF0.59
aF0.78
aI1
aI0
aI0
aI0
aI0
aI0
aI0
aI0
aI0
aI0
aI0
aI0
aI0
aI0
aI0
aI0
aI0
aF0.2
aa(lp3
I0
aI0
aI0
aI0
aI0
aI1
aI0
aI0
aI0
aI0
aF0.59
aF0.78
aI5
aI1
aI0
aI0
aI0
aI0
aF0.59
aF0.78
aI1
aI0
aI0
aI0
aI0
aI0
aI0
aI0
aI0
aI0
aI0
aI0
aI0
aI0
aI0
aI0
aI0
aF0.2
aa(lp4
I0
aI0
aI0
aI0
aI0
aI1
aI0
aI0
aI0
aI0
aF0.59
aF0.78
aI5
aI1
aI0
aI0
aI0
aI0
aF0.59
aF0.78
aI1
aI0
aI0
aI0
aI0
aI0
aI0
aI0
aI0
aI0
aI0
aI0
aI0
aI0
aI0
aI0
aI0
aF0.2
aa.(lp0
(lp1
I0
aI1
aI0
aI0
aI0
aI0
aI0
aI1
aI0
aI0
aF0.11
aF0.24
aI5
aI0
aI0
aI0
aI0
aI0
aI0
aI0
aI0
aI0
aI0
aI0
aI0
aI0
aI0
aI0
aI0
aI0
aI0
aI0
aI0
aI0
aI0
aI0
aI0
aF1.0
aa(lp2
I0
aI1
aI0
aI0
aI0
aI0
aI0
aI1
aI0
aI0
aF0.11
aF0.24
aI5
aI0
aI0
aI0
aI0
aI0
aF0.11
aF0.4
aI4
aI0
aI0
aI0
aI0
aI0
aI0
aI0
aI0
aI0
aI0
aI0
aI0
aI0
aI0
aI0
aI0
aF0.8
aa.(lp0
(lp1
I1
aI0
aI0
aI0
aI0
aI0
aI0
aI0
aI0
aI0
aF0.6
aF0.18
aI5
aI0
aI0
aI0
aI0
aI0
aI0
aI0
aI0
aI0
aI0
aI0
aI0
aI0
aI0
aI0
aI0
aI0
aI0
aI0
aI0
aI0
aI0
aI0
aI0
aF0.2
aa.(lp0
(lp1
I0
aI1
aI0
aI0
aI0
aI1
aI0
aI0
aI0
aI0
aF0.66
aF0.28
aI5
aI0
aI0
aI0
aI0
aI0
aI0
aI0
aI0
aI0
aI0
aI0
aI0
aI0
aI0
aI0
aI0
aI0
aI0
aI0
aI0
aI0
aI0
aI0
aI0
aF0.6
aa(lp2
I0
aI1
aI0
aI0
aI0
aI1
aI0
aI0
aI0
aI0
aF0.66
aF0.28
aI5
aI0
aI0
aI0
aI0
aI0
aF0.66
aF0.4
aI3
aI0
aI0
aI0
aI0
aI0
aI0
aI0
aI0
aI0
aI0
aI0
aI0
aI0
aI0
aI0
aI0
aF0.4
aa.(lp0
(lp1
I0
aI1
aI0
aI0
aI0
aI2
aI0
aI0
aI0
aI0
aF0.96
aF0.4
aI5
aI0
aI0
aI0
aI0
aI0
aI0
aI0
aI0
aI0
aI0
aI0
aI0
aI0
aI0
aI0
aI0
aI0
aI0
aI0
aI0
aI0
aI0
aI0
aI0
aF0.4
aa(lp2
I0
aI1
aI0
aI0
aI0
aI2
aI0
aI0
aI0
aI0
aF0.96
aF0.4
aI5
aI0
aI0
aI0
aI0
aI0
aF0.96
aF0.76
aI1
aI0
aI0
aI0
aI0
aI0
aI0
aI0
aI0
aI0
aI0
aI0
aI0
aI0
aI0
aI0
aI0
aF0.0
aa.(lp0
(lp1
I0
aI0
aI0
aI0
aI0
aI2
aI0
aI0
aI0
aI0
aF2.71
aF0.32
aI5
aI0
aI0
aI0
aI0
aI0
aI0
aI0
aI0
aI0
aI0
aI0
aI0
aI0
aI0
aI0
aI0
aI0
aI0
aI0
aI0
aI0
aI0
aI0
aI0
aF0.0
aa(lp2
I0
aI0
aI0
aI0
aI0
aI2
aI0
aI0
aI0
aI0
aF2.71
aF0.32
aI5
aI0
aI1
aI0
aI0
aI0
aF2.59
aF0.76
aI3
aI0
aI0
aI0
aI0
aI0
aI0
aI0
aI0
aI0
aI0
aI0
aI0
aI0
aI0
aI0
aI0
aF1.0
aa(lp3
I0
aI0
aI0
aI0
aI0
aI2
aI0
aI0
aI0
aI0
aF2.71
aF0.32
aI5
aI0
aI1
aI0
aI0
aI0
aF2.59
aF0.76
aI3
aI0
aI0
aI0
aI0
aI0
aI0
aI0
aI0
aI0
aI0
aI0
aI0
aI0
aI0
aI0
aI0
aF1.0
aa(lp4
I0
aI0
aI0
aI0
aI0
aI2
aI0
aI0
aI0
aI0
aF2.71
aF0.32
aI5
aI0
aI1
aI0
aI0
aI0
aF2.59
aF0.76
aI3
aI0
aI0
aI0
aI0
aI0
aI0
aI0
aI0
aI0
aI0
aI0
aI0
aI0
aI0
aI0
aI0
aF1.0
aa.(lp0
(lp1
I0
aI1
aI0
aI0
aI0
aI2
aI0
aI0
aI0
aI0
aF0.82
aF0.36
aI5
aI0
aI0
aI0
aI0
aI0
aI0
aI0
aI0
aI0
aI0
aI0
aI0
aI0
aI0
aI0
aI0
aI0
aI0
aI0
aI0
aI0
aI0
aI0
aI0
aF0.8
aa(lp2
I0
aI1
aI0
aI0
aI0
aI2
aI0
aI0
aI0
aI0
aF0.82
aF0.36
aI5
aI0
aI0
aI0
aI0
aI0
aF0.82
aF0.76
aI2
aI0
aI0
aI0
aI0
aI0
aI0
aI0
aI0
aI0
aI0
aI0
aI0
aI0
aI0
aI0
aI0
aF0.6
aa.(lp0
(lp1
I0
aI0
aI0
aI0
aI0
aI1
aI0
aI0
aI0
aI0
aF0.09
aF0.18
aI5
aI0
aI0
aI0
aI0
aI0
aI0
aI0
aI0
aI0
aI0
aI0
aI0
aI0
aI0
aI0
aI0
aI0
aI0
aI0
aI0
aI0
aI0
aI0
aI0
aF0.6
aa(lp2
I0
aI0
aI0
aI0
aI0
aI1
aI0
aI0
aI0
aI0
aF0.09
aF0.18
aI5
aI0
aI0
aI1
aI0
aI0
aF0.07
aF0.34
aI3
aI0
aI0
aI0
aI0
aI0
aI0
aI0
aI0
aI0
aI0
aI0
aI0
aI0
aI0
aI0
aI0
aF0.6
aa(lp3
I0
aI0
aI0
aI0
aI0
aI1
aI0
aI0
aI0
aI0
aF0.09
aF0.18
aI5
aI0
aI0
aI1
aI0
aI0
aF0.07
aF0.34
aI3
aI0
aI0
aI1
aI0
aI0
aF0.04
aF0.58
aI3
aI0
aI0
aI0
aI0
aI0
aI0
aI0
aI0
aF0.8
aa(lp4
I0
aI0
aI0
aI0
aI0
aI1
aI0
aI0
aI0
aI0
aF0.09
aF0.18
aI5
aI0
aI0
aI1
aI0
aI0
aF0.07
aF0.34
aI3
aI0
aI0
aI1
aI0
aI0
aF0.04
aF0.58
aI3
aI0
aI0
aI1
aI0
aI0
aF0.01
aF0.82
aI3
aF1.0
aa.(lp0
(lp1
I1
aI0
aI0
aI0
aI0
aI0
aI0
aI0
aI0
aI0
aF0.6
aF0.14
aI5
aI0
aI0
aI0
aI0
aI0
aI0
aI0
aI0
aI0
aI0
aI0
aI0
aI0
aI0
aI0
aI0
aI0
aI0
aI0
aI0
aI0
aI0
aI0
aI0
aF0.2
aa.(lp0
(lp1
I1
aI0
aI0
aI0
aI0
aI0
aI0
aI0
aI0
aI0
aF0.66
aF0.18
aI4
aI0
aI0
aI0
aI0
aI0
aI0
aI0
aI0
aI0
aI0
aI0
aI0
aI0
aI0
aI0
aI0
aI0
aI0
aI0
aI0
aI0
aI0
aI0
aI0
aF1.0
aa.(lp0
(lp1
I0
aI0
aI0
aI0
aI0
aI1
aI0
aI0
aI0
aI0
aF0.94
aF0.14
aI6
aI0
aI0
aI0
aI0
aI0
aI0
aI0
aI0
aI0
aI0
aI0
aI0
aI0
aI0
aI0
aI0
aI0
aI0
aI0
aI0
aI0
aI0
aI0
aI0
aF0.8
aa(lp2
I0
aI0
aI0
aI0
aI0
aI1
aI0
aI0
aI0
aI0
aF0.94
aF0.14
aI6
aI2
aI0
aI0
aI0
aI0
aF0.92
aF0.42
aI3
aI0
aI0
aI0
aI0
aI0
aI0
aI0
aI0
aI0
aI0
aI0
aI0
aI0
aI0
aI0
aI0
aF0.8
aa(lp3
I0
aI0
aI0
aI0
aI0
aI1
aI0
aI0
aI0
aI0
aF0.94
aF0.14
aI6
aI2
aI0
aI0
aI0
aI0
aF0.92
aF0.42
aI3
aI2
aI0
aI0
aI0
aI0
aF0.89
aF0.66
aI3
aI0
aI0
aI0
aI0
aI0
aI0
aI0
aI0
aF0.6
aa(lp4
I0
aI0
aI0
aI0
aI0
aI1
aI0
aI0
aI0
aI0
aF0.94
aF0.14
aI6
aI2
aI0
aI0
aI0
aI0
aF0.92
aF0.42
aI3
aI2
aI0
aI0
aI0
aI0
aF0.89
aF0.66
aI3
aI2
aI0
aI0
aI0
aI0
aF0.86
aF0.9
aI3
aF0.6
aa.(lp0
(lp1
I0
aI1
aI0
aI0
aI0
aI1
aI0
aI0
aI0
aI0
aF2.83
aF0.18
aI4
aI0
aI0
aI0
aI0
aI0
aI0
aI0
aI0
aI0
aI0
aI0
aI0
aI0
aI0
aI0
aI0
aI0
aI0
aI0
aI0
aI0
aI0
aI0
aI0
aF0.0
aa(lp2
I0
aI1
aI0
aI0
aI0
aI1
aI0
aI0
aI0
aI0
aF2.83
aF0.18
aI4
aI0
aI0
aI0
aI0
aI0
aF2.83
aF0.18
aI3
aI0
aI0
aI0
aI0
aI0
aI0
aI0
aI0
aI0
aI0
aI0
aI0
aI0
aI0
aI0
aI0
aF0.0
aa.(lp0
(lp1
I0
aI0
aI0
aI0
aI0
aI1
aI0
aI0
aI0
aI0
aF0.81
aF0.1
aI6
aI0
aI0
aI0
aI0
aI0
aI0
aI0
aI0
aI0
aI0
aI0
aI0
aI0
aI0
aI0
aI0
aI0
aI0
aI0
aI0
aI0
aI0
aI0
aI0
aF0.4
aa(lp2
I0
aI0
aI0
aI0
aI0
aI1
aI0
aI0
aI0
aI0
aF0.81
aF0.1
aI6
aI1
aI1
aI0
aI0
aI0
aF0.78
aF0.38
aI3
aI0
aI0
aI0
aI0
aI0
aI0
aI0
aI0
aI0
aI0
aI0
aI0
aI0
aI0
aI0
aI0
aF0.2
aa(lp3
I0
aI0
aI0
aI0
aI0
aI1
aI0
aI0
aI0
aI0
aF0.81
aF0.1
aI6
aI1
aI1
aI0
aI0
aI0
aF0.78
aF0.38
aI3
aI1
aI1
aI0
aI0
aI0
aF0.76
aF0.62
aI3
aI0
aI0
aI0
aI0
aI0
aI0
aI0
aI0
aF0.2
aa(lp4
I0
aI0
aI0
aI0
aI0
aI1
aI0
aI0
aI0
aI0
aF0.81
aF0.1
aI6
aI1
aI1
aI0
aI0
aI0
aF0.78
aF0.38
aI3
aI1
aI1
aI0
aI0
aI0
aF0.76
aF0.62
aI3
aI1
aI1
aI0
aI0
aI0
aF0.73
aF0.86
aI3
aF0.2
aa.(lp0
(lp1
I0
aI0
aI1
aI0
aI0
aI1
aI0
aI0
aI0
aI0
aF0.3
aF0.14
aI5
aI0
aI0
aI0
aI0
aI0
aI0
aI0
aI0
aI0
aI0
aI0
aI0
aI0
aI0
aI0
aI0
aI0
aI0
aI0
aI0
aI0
aI0
aI0
aI0
aF0.8
aa(lp2
I0
aI0
aI1
aI0
aI0
aI1
aI0
aI0
aI0
aI0
aF0.3
aF0.14
aI5
aI1
aI0
aI0
aI0
aI0
aF0.29
aF0.32
aI4
aI0
aI0
aI0
aI0
aI0
aI0
aI0
aI0
aI0
aI0
aI0
aI0
aI0
aI0
aI0
aI0
aF0.4
aa(lp3
I0
aI0
aI1
aI0
aI0
aI1
aI0
aI0
aI0
aI0
aF0.3
aF0.14
aI5
aI1
aI0
aI0
aI0
aI0
aF0.29
aF0.32
aI4
aI0
aI0
aI0
aI0
aI0
aF0.29
aF0.4
aI2
aI0
aI0
aI0
aI0
aI0
aI0
aI0
aI0
aF0.2
aa.(lp0
(lp1
I1
aI0
aI0
aI0
aI0
aI0
aI0
aI0
aI0
aI0
aF0.6
aF0.1
aI5
aI0
aI0
aI0
aI0
aI0
aI0
aI0
aI0
aI0
aI0
aI0
aI0
aI0
aI0
aI0
aI0
aI0
aI0
aI0
aI0
aI0
aI0
aI0
aI0
aF0.2
aa.(lp0
(lp1
I0
aI1
aI0
aI0
aI0
aI1
aI0
aI0
aI0
aI0
aF0.64
aF0.18
aI5
aI0
aI0
aI0
aI0
aI0
aI0
aI0
aI0
aI0
aI0
aI0
aI0
aI0
aI0
aI0
aI0
aI0
aI0
aI0
aI0
aI0
aI0
aI0
aI0
aF0.6
aa(lp2
I0
aI1
aI0
aI0
aI0
aI1
aI0
aI0
aI0
aI0
aF0.64
aF0.18
aI5
aI0
aI0
aI0
aI0
aI0
aF0.64
aF0.32
aI3
aI0
aI0
aI0
aI0
aI0
aI0
aI0
aI0
aI0
aI0
aI0
aI0
aI0
aI0
aI0
aI0
aF1.0
aa.(lp0
(lp1
I0
aI0
aI0
aI0
aI0
aI1
aI0
aI0
aI0
aI0
aF0.85
aF0.1
aI6
aI0
aI0
aI0
aI0
aI0
aI0
aI0
aI0
aI0
aI0
aI0
aI0
aI0
aI0
aI0
aI0
aI0
aI0
aI0
aI0
aI0
aI0
aI0
aI0
aF1.0
aa(lp2
I0
aI0
aI0
aI0
aI0
aI1
aI0
aI0
aI0
aI0
aF0.85
aF0.1
aI6
aI1
aI0
aI0
aI0
aI0
aF0.84
aF0.28
aI4
aI0
aI0
aI0
aI0
aI0
aI0
aI0
aI0
aI0
aI0
aI0
aI0
aI0
aI0
aI0
aI0
aF0.8
aa(lp3
I0
aI0
aI0
aI0
aI0
aI1
aI0
aI0
aI0
aI0
aF0.85
aF0.1
aI6
aI1
aI0
aI0
aI0
aI0
aF0.84
aF0.28
aI4
aI1
aI0
aI0
aI0
aI0
aF0.82
aF0.4
aI3
aI0
aI0
aI0
aI0
aI0
aI0
aI0
aI0
aF0.8
aa(lp4
I0
aI0
aI0
aI0
aI0
aI1
aI0
aI0
aI0
aI0
aF0.85
aF0.1
aI6
aI1
aI0
aI0
aI0
aI0
aF0.84
aF0.28
aI4
aI1
aI0
aI0
aI0
aI0
aF0.82
aF0.4
aI3
aI1
aI0
aI0
aI0
aI0
aF0.81
aF0.48
aI2
aF0.6
aa.(lp0
(lp1
I0
aI1
aI0
aI0
aI0
aI1
aI0
aI0
aI0
aI0
aF2.82
aF0.2
aI5
aI0
aI0
aI0
aI0
aI0
aI0
aI0
aI0
aI0
aI0
aI0
aI0
aI0
aI0
aI0
aI0
aI0
aI0
aI0
aI0
aI0
aI0
aI0
aI0
aF0.0
aa(lp2
I0
aI1
aI0
aI0
aI0
aI1
aI0
aI0
aI0
aI0
aF2.82
aF0.2
aI5
aI0
aI0
aI0
aI0
aI0
aF2.82
aF0.2
aI4
aI0
aI0
aI0
aI0
aI0
aI0
aI0
aI0
aI0
aI0
aI0
aI0
aI0
aI0
aI0
aI0
aF0.0
aa.(lp0
(lp1
I0
aI0
aI0
aI0
aI0
aI1
aI0
aI0
aI0
aI0
aF0.72
aF0.2
aI5
aI0
aI0
aI0
aI0
aI0
aI0
aI0
aI0
aI0
aI0
aI0
aI0
aI0
aI0
aI0
aI0
aI0
aI0
aI0
aI0
aI0
aI0
aI0
aI0
aF0.4
aa(lp2
I0
aI0
aI0
aI0
aI0
aI1
aI0
aI0
aI0
aI0
aF0.72
aF0.2
aI5
aI0
aI1
aI0
aI0
aI0
aF0.7
aF0.24
aI4
aI0
aI0
aI0
aI0
aI0
aI0
aI0
aI0
aI0
aI0
aI0
aI0
aI0
aI0
aI0
aI0
aF0.6
aa(lp3
I0
aI0
aI0
aI0
aI0
aI1
aI0
aI0
aI0
aI0
aF0.72
aF0.2
aI5
aI0
aI1
aI0
aI0
aI0
aF0.7
aF0.24
aI4
aI0
aI1
aI0
aI0
aI0
aF0.69
aF0.36
aI3
aI0
aI0
aI0
aI0
aI0
aI0
aI0
aI0
aF0.6
aa(lp4
I0
aI0
aI0
aI0
aI0
aI1
aI0
aI0
aI0
aI0
aF0.72
aF0.2
aI5
aI0
aI1
aI0
aI0
aI0
aF0.7
aF0.24
aI4
aI0
aI1
aI0
aI0
aI0
aF0.69
aF0.36
aI3
aI0
aI1
aI0
aI0
aI0
aF0.68
aF0.44
aI2
aF0.4
aa.(lp0
(lp1
I1
aI0
aI0
aI0
aI0
aI0
aI0
aI0
aI0
aI0
aF0.29
aF0.06
aI4
aI0
aI0
aI0
aI0
aI0
aI0
aI0
aI0
aI0
aI0
aI0
aI0
aI0
aI0
aI0
aI0
aI0
aI0
aI0
aI0
aI0
aI0
aI0
aI0
aF0.0
aa.(lp0
(lp1
I1
aI0
aI0
aI0
aI0
aI0
aI0
aI0
aI0
aI0
aF0.6
aF0.06
aI5
aI0
aI0
aI0
aI0
aI0
aI0
aI0
aI0
aI0
aI0
aI0
aI0
aI0
aI0
aI0
aI0
aI0
aI0
aI0
aI0
aI0
aI0
aI0
aI0
aF0.4
aa.(lp0
(lp1
I0
aI0
aI1
aI0
aI0
aI2
aI0
aI0
aI0
aI0
aF0.52
aF1.12
aI3
aI0
aI0
aI0
aI0
aI0
aI0
aI0
aI0
aI0
aI0
aI0
aI0
aI0
aI0
aI0
aI0
aI0
aI0
aI0
aI0
aI0
aI0
aI0
aI0
aF0.6
aa(lp2
I0
aI0
aI1
aI0
aI0
aI2
aI0
aI0
aI0
aI0
aF0.52
aF1.12
aI3
aI2
aI0
aI0
aI0
aI0
aF0.4
aF2.2
aI3
aI0
aI0
aI0
aI0
aI0
aI0
aI0
aI0
aI0
aI0
aI0
aI0
aI0
aI0
aI0
aI0
aF0.8
aa(lp3
I0
aI0
aI1
aI0
aI0
aI2
aI0
aI0
aI0
aI0
aF0.52
aF1.12
aI3
aI2
aI0
aI0
aI0
aI0
aF0.4
aF2.2
aI3
aI1
aI0
aI0
aI0
aI0
aF0.39
aF3.44
aI2
aI0
aI0
aI0
aI0
aI0
aI0
aI0
aI0
aF0.9
aa.(lp0
(lp1
I1
aI0
aI0
aI0
aI0
aI0
aI0
aI0
aI0
aI0
aF0.96
aF0.8
aI3
aI0
aI0
aI0
aI0
aI0
aI0
aI0
aI0
aI0
aI0
aI0
aI0
aI0
aI0
aI0
aI0
aI0
aI0
aI0
aI0
aI0
aI0
aI0
aI0
aF0.2
aa.(lp0
(lp1
I0
aI0
aI0
aI0
aI0
aI0
aI1
aI0
aI0
aI0
aF2.7
aF0.46
aI4
aI0
aI0
aI0
aI0
aI0
aI0
aI0
aI0
aI0
aI0
aI0
aI0
aI0
aI0
aI0
aI0
aI0
aI0
aI0
aI0
aI0
aI0
aI0
aI0
aF1.0
aa(lp2
I0
aI0
aI0
aI0
aI0
aI0
aI1
aI0
aI0
aI0
aF2.7
aF0.46
aI4
aI0
aI1
aI0
aI0
aI0
aF2.58
aF1.56
aI3
aI0
aI0
aI0
aI0
aI0
aI0
aI0
aI0
aI0
aI0
aI0
aI0
aI0
aI0
aI0
aI0
aF0.6
aa(lp3
I0
aI0
aI0
aI0
aI0
aI0
aI1
aI0
aI0
aI0
aF2.7
aF0.46
aI4
aI0
aI1
aI0
aI0
aI0
aF2.58
aF1.56
aI3
aI0
aI1
aI0
aI0
aI0
aF2.38
aF2.88
aI3
aI0
aI0
aI0
aI0
aI0
aI0
aI0
aI0
aF0.6
aa(lp4
I0
aI0
aI0
aI0
aI0
aI0
aI1
aI0
aI0
aI0
aF2.7
aF0.46
aI4
aI0
aI1
aI0
aI0
aI0
aF2.58
aF1.56
aI3
aI0
aI1
aI0
aI0
aI0
aF2.38
aF2.88
aI3
aI0
aI1
aI0
aI0
aI0
aF2.26
aF3.84
aI2
aF0.6
aa.(lp0
(lp1
I0
aI0
aI0
aI0
aI0
aI1
aI0
aI0
aI0
aI0
aF0.56
aF0.8
aI4
aI0
aI0
aI0
aI0
aI0
aI0
aI0
aI0
aI0
aI0
aI0
aI0
aI0
aI0
aI0
aI0
aI0
aI0
aI0
aI0
aI0
aI0
aI0
aI0
aF0.8
aa(lp2
I0
aI0
aI0
aI0
aI0
aI1
aI0
aI0
aI0
aI0
aF0.56
aF0.8
aI4
aI1
aI1
aI0
aI0
aI0
aF0.44
aF1.88
aI3
aI0
aI0
aI0
aI0
aI0
aI0
aI0
aI0
aI0
aI0
aI0
aI0
aI0
aI0
aI0
aI0
aF1.0
aa(lp3
I0
aI0
aI0
aI0
aI0
aI1
aI0
aI0
aI0
aI0
aF0.56
aF0.8
aI4
aI1
aI1
aI0
aI0
aI0
aF0.44
aF1.88
aI3
aI1
aI1
aI0
aI0
aI0
aF0.24
aF3.44
aI3
aI0
aI0
aI0
aI0
aI0
aI0
aI0
aI0
aF0.9
aa(lp4
I0
aI0
aI0
aI0
aI0
aI1
aI0
aI0
aI0
aI0
aF0.56
aF0.8
aI4
aI1
aI1
aI0
aI0
aI0
aF0.44
aF1.88
aI3
aI1
aI1
aI0
aI0
aI0
aF0.24
aF3.44
aI3
aI1
aI1
aI0
aI0
aI0
aF0.12
aF4.16
aI2
aF0.9
aa.(lp0
(lp1
I0
aI0
aI0
aI1
aI0
aI1
aI0
aI0
aI0
aI0
aF0.26
aF0.2
aI6
aI0
aI0
aI0
aI0
aI0
aI0
aI0
aI0
aI0
aI0
aI0
aI0
aI0
aI0
aI0
aI0
aI0
aI0
aI0
aI0
aI0
aI0
aI0
aI0
aF0.8
aa(lp2
I0
aI0
aI0
aI1
aI0
aI1
aI0
aI0
aI0
aI0
aF0.26
aF0.2
aI6
aI0
aI0
aI1
aI0
aI0
aF0.21
aF0.72
aI6
aI0
aI0
aI0
aI0
aI0
aI0
aI0
aI0
aI0
aI0
aI0
aI0
aI0
aI0
aI0
aI0
aF0.8
aa(lp3
I0
aI0
aI0
aI1
aI0
aI1
aI0
aI0
aI0
aI0
aF0.26
aF0.2
aI6
aI0
aI0
aI1
aI0
aI0
aF0.21
aF0.72
aI6
aI0
aI0
aI1
aI0
aI0
aF0.15
aF1.2
aI3
aI0
aI0
aI0
aI0
aI0
aI0
aI0
aI0
aF0.8
aa(lp4
I0
aI0
aI0
aI1
aI0
aI1
aI0
aI0
aI0
aI0
aF0.26
aF0.2
aI6
aI0
aI0
aI1
aI0
aI0
aF0.21
aF0.72
aI6
aI0
aI0
aI1
aI0
aI0
aF0.15
aF1.2
aI3
aI0
aI0
aI0
aI0
aI0
aF0.15
aF1.52
aI2
aF0.6
aa.(lp0
(lp1
I0
aI0
aI0
aI0
aI0
aI1
aI0
aI0
aI0
aI0
aF0.58
aF0.48
aI6
aI0
aI0
aI0
aI0
aI0
aI0
aI0
aI0
aI0
aI0
aI0
aI0
aI0
aI0
aI0
aI0
aI0
aI0
aI0
aI0
aI0
aI0
aI0
aI0
aF1.0
aa(lp2
I0
aI0
aI0
aI0
aI0
aI1
aI0
aI0
aI0
aI0
aF0.58
aF0.48
aI6
aI1
aI1
aI0
aI0
aI0
aF0.52
aF0.96
aI3
aI0
aI0
aI0
aI0
aI0
aI0
aI0
aI0
aI0
aI0
aI0
aI0
aI0
aI0
aI0
aI0
aF1.0
aa(lp3
I0
aI0
aI0
aI0
aI0
aI1
aI0
aI0
aI0
aI0
aF0.58
aF0.48
aI6
aI1
aI1
aI0
aI0
aI0
aF0.52
aF0.96
aI3
aI1
aI1
aI0
aI0
aI0
aF0.47
aF1.44
aI3
aI0
aI0
aI0
aI0
aI0
aI0
aI0
aI0
aF1.0
aa(lp4
I0
aI0
aI0
aI0
aI0
aI1
aI0
aI0
aI0
aI0
aF0.58
aF0.48
aI6
aI1
aI1
aI0
aI0
aI0
aF0.52
aF0.96
aI3
aI1
aI1
aI0
aI0
aI0
aF0.47
aF1.44
aI3
aI0
aI1
aI0
aI0
aI0
aF0.44
aF1.52
aI3
aF0.8
aa.(lp0
(lp1
I0
aI1
aI0
aI0
aI0
aI1
aI0
aI0
aI0
aI0
aF0.36
aF0.28
aI6
aI0
aI0
aI0
aI0
aI0
aI0
aI0
aI0
aI0
aI0
aI0
aI0
aI0
aI0
aI0
aI0
aI0
aI0
aI0
aI0
aI0
aI0
aI0
aI0
aF0.6
aa(lp2
I0
aI1
aI0
aI0
aI0
aI1
aI0
aI0
aI0
aI0
aF0.36
aF0.28
aI6
aI0
aI0
aI0
aI0
aI0
aF0.36
aF0.72
aI5
aI0
aI0
aI0
aI0
aI0
aI0
aI0
aI0
aI0
aI0
aI0
aI0
aI0
aI0
aI0
aI0
aF0.4
aa.(lp0
(lp1
I0
aI1
aI0
aI0
aI0
aI1
aI0
aI0
aI0
aI0
aF0.93
aF0.48
aI6
aI0
aI0
aI0
aI0
aI0
aI0
aI0
aI0
aI0
aI0
aI0
aI0
aI0
aI0
aI0
aI0
aI0
aI0
aI0
aI0
aI0
aI0
aI0
aI0
aF0.2
aa(lp2
I0
aI1
aI0
aI0
aI0
aI1
aI0
aI0
aI0
aI0
aF0.93
aF0.48
aI6
aI0
aI0
aI0
aI0
aI0
aF0.93
aF0.88
aI3
aI0
aI0
aI0
aI0
aI0
aI0
aI0
aI0
aI0
aI0
aI0
aI0
aI0
aI0
aI0
aI0
aF0.2
aa.(lp0
(lp1
I0
aI1
aI0
aI0
aI0
aI1
aI0
aI0
aI0
aI0
aF2.23
aF0.36
aI6
aI0
aI0
aI0
aI0
aI0
aI0
aI0
aI0
aI0
aI0
aI0
aI0
aI0
aI0
aI0
aI0
aI0
aI0
aI0
aI0
aI0
aI0
aI0
aI0
aF0.0
aa(lp2
I0
aI1
aI0
aI0
aI0
aI1
aI0
aI0
aI0
aI0
aF2.23
aF0.36
aI6
aI0
aI0
aI0
aI0
aI0
aF2.23
aF0.72
aI4
aI0
aI0
aI0
aI0
aI0
aI0
aI0
aI0
aI0
aI0
aI0
aI0
aI0
aI0
aI0
aI0
aF0.0
aa.(lp0
(lp1
I0
aI0
aI0
aI0
aI0
aI1
aI0
aI0
aI0
aI0
aF1.48
aF0.44
aI6
aI0
aI0
aI0
aI0
aI0
aI0
aI0
aI0
aI0
aI0
aI0
aI0
aI0
aI0
aI0
aI0
aI0
aI0
aI0
aI0
aI0
aI0
aI0
aI0
aF0.4
aa(lp2
I0
aI0
aI0
aI0
aI0
aI1
aI0
aI0
aI0
aI0
aF1.48
aF0.44
aI6
aI1
aI0
aI0
aI0
aI0
aF1.42
aF0.88
aI4
aI0
aI0
aI0
aI0
aI0
aI0
aI0
aI0
aI0
aI0
aI0
aI0
aI0
aI0
aI0
aI0
aF0.6
aa(lp3
I0
aI0
aI0
aI0
aI0
aI1
aI0
aI0
aI0
aI0
aF1.48
aF0.44
aI6
aI1
aI0
aI0
aI0
aI0
aF1.42
aF0.88
aI4
aI1
aI0
aI0
aI0
aI0
aF1.37
aF1.36
aI3
aI0
aI0
aI0
aI0
aI0
aI0
aI0
aI0
aF0.6
aa(lp4
I0
aI0
aI0
aI0
aI0
aI1
aI0
aI0
aI0
aI0
aF1.48
aF0.44
aI6
aI1
aI0
aI0
aI0
aI0
aF1.42
aF0.88
aI4
aI1
aI0
aI0
aI0
aI0
aF1.37
aF1.36
aI3
aI1
aI0
aI0
aI0
aI0
aF1.34
aF1.6
aI2
aF0.4
aa.(lp0
(lp1
I0
aI0
aI1
aI0
aI0
aI1
aI0
aI0
aI0
aI0
aF0.13
aF0.36
aI4
aI0
aI0
aI0
aI0
aI0
aI0
aI0
aI0
aI0
aI0
aI0
aI0
aI0
aI0
aI0
aI0
aI0
aI0
aI0
aI0
aI0
aI0
aI0
aI0
aF0.6
aa(lp2
I0
aI0
aI1
aI0
aI0
aI1
aI0
aI0
aI0
aI0
aF0.13
aF0.36
aI4
aI1
aI1
aI0
aI0
aI0
aF0.09
aF0.72
aI3
aI0
aI0
aI0
aI0
aI0
aI0
aI0
aI0
aI0
aI0
aI0
aI0
aI0
aI0
aI0
aI0
aF0.2
aa(lp3
I0
aI0
aI1
aI0
aI0
aI1
aI0
aI0
aI0
aI0
aF0.13
aF0.36
aI4
aI1
aI1
aI0
aI0
aI0
aF0.09
aF0.72
aI3
aI0
aI0
aI0
aI0
aI0
aF0.09
aF0.72
aI2
aI0
aI0
aI0
aI0
aI0
aI0
aI0
aI0
aF0.2
aa.(lp0
(lp1
I1
aI0
aI0
aI0
aI0
aI0
aI0
aI0
aI0
aI0
aF0.96
aF0.36
aI4
aI0
aI0
aI0
aI0
aI0
aI0
aI0
aI0
aI0
aI0
aI0
aI0
aI0
aI0
aI0
aI0
aI0
aI0
aI0
aI0
aI0
aI0
aI0
aI0
aF0.8
aa.(lp0
(lp1
I1
aI0
aI0
aI0
aI0
aI0
aI0
aI0
aI0
aI0
aF0.36
aF0.12
aI5
aI0
aI0
aI0
aI0
aI0
aI0
aI0
aI0
aI0
aI0
aI0
aI0
aI0
aI0
aI0
aI0
aI0
aI0
aI0
aI0
aI0
aI0
aI0
aI0
aF0.2
aa.(lp0
(lp1
I0
aI1
aI0
aI0
aI0
aI1
aI0
aI0
aI0
aI0
aF0.9
aF0.36
aI5
aI0
aI0
aI0
aI0
aI0
aI0
aI0
aI0
aI0
aI0
aI0
aI0
aI0
aI0
aI0
aI0
aI0
aI0
aI0
aI0
aI0
aI0
aI0
aI0
aF1.0
aa(lp2
I0
aI1
aI0
aI0
aI0
aI1
aI0
aI0
aI0
aI0
aF0.9
aF0.36
aI5
aI0
aI0
aI0
aI0
aI0
aF0.9
aF0.68
aI3
aI0
aI0
aI0
aI0
aI0
aI0
aI0
aI0
aI0
aI0
aI0
aI0
aI0
aI0
aI0
aI0
aF1.0
aa.(lp0
(lp1
I0
aI0
aI0
aI0
aI0
aI1
aI0
aI0
aI0
aI0
aF2.21
aF0.2
aI5
aI0
aI0
aI0
aI0
aI0
aI0
aI0
aI0
aI0
aI0
aI0
aI0
aI0
aI0
aI0
aI0
aI0
aI0
aI0
aI0
aI0
aI0
aI0
aI0
aF0.0
aa(lp2
I0
aI0
aI0
aI0
aI0
aI1
aI0
aI0
aI0
aI0
aF2.21
aF0.2
aI5
aI0
aI1
aI0
aI0
aI0
aF2.17
aF0.56
aI4
aI0
aI0
aI0
aI0
aI0
aI0
aI0
aI0
aI0
aI0
aI0
aI0
aI0
aI0
aI0
aI0
aF0.6
aa(lp3
I0
aI0
aI0
aI0
aI0
aI1
aI0
aI0
aI0
aI0
aF2.21
aF0.2
aI5
aI0
aI1
aI0
aI0
aI0
aF2.17
aF0.56
aI4
aI0
aI1
aI0
aI0
aI0
aF1.97
aF1.32
aI2
aI0
aI0
aI0
aI0
aI0
aI0
aI0
aI0
aF1.0
aa(lp4
I0
aI0
aI0
aI0
aI0
aI1
aI0
aI0
aI0
aI0
aF2.21
aF0.2
aI5
aI0
aI1
aI0
aI0
aI0
aF2.17
aF0.56
aI4
aI0
aI1
aI0
aI0
aI0
aF1.97
aF1.32
aI2
aI0
aI0
aI0
aI0
aI0
aI0
aI0
aI0
aF1.0
aa.(lp0
(lp1
I0
aI0
aI1
aI0
aI0
aI1
aI0
aI0
aI0
aI0
aF1.32
aF0.28
aI5
aI0
aI0
aI0
aI0
aI0
aI0
aI0
aI0
aI0
aI0
aI0
aI0
aI0
aI0
aI0
aI0
aI0
aI0
aI0
aI0
aI0
aI0
aI0
aI0
aF0.4
aa(lp2
I0
aI0
aI1
aI0
aI0
aI1
aI0
aI0
aI0
aI0
aF1.32
aF0.28
aI5
aI1
aI0
aI0
aI0
aI0
aF1.28
aF0.68
aI4
aI0
aI0
aI0
aI0
aI0
aI0
aI0
aI0
aI0
aI0
aI0
aI0
aI0
aI0
aI0
aI0
aF0.4
aa(lp3
I0
aI0
aI1
aI0
aI0
aI1
aI0
aI0
aI0
aI0
aF1.32
aF0.28
aI5
aI1
aI0
aI0
aI0
aI0
aF1.28
aF0.68
aI4
aI0
aI0
aI0
aI0
aI0
aF1.28
aF1.32
aI1
aI0
aI0
aI0
aI0
aI0
aI0
aI0
aI0
aF0.4
aa.(lp0
(lp1
I0
aI0
aI0
aI0
aI0
aI1
aI0
aI0
aI0
aI0
aF0.23
aF0.28
aI4
aI0
aI0
aI0
aI0
aI0
aI0
aI0
aI0
aI0
aI0
aI0
aI0
aI0
aI0
aI0
aI0
aI0
aI0
aI0
aI0
aI0
aI0
aI0
aI0
aF1.0
aa(lp2
I0
aI0
aI0
aI0
aI0
aI1
aI0
aI0
aI0
aI0
aF0.23
aF0.28
aI4
aI1
aI0
aI0
aI0
aI0
aF0.2
aF0.44
aI2
aI0
aI0
aI0
aI0
aI0
aI0
aI0
aI0
aI0
aI0
aI0
aI0
aI0
aI0
aI0
aI0
aF0.6
aa(lp3
I0
aI0
aI0
aI0
aI0
aI1
aI0
aI0
aI0
aI0
aF0.23
aF0.28
aI4
aI1
aI0
aI0
aI0
aI0
aF0.2
aF0.44
aI2
aI0
aI0
aI1
aI0
aI0
aF0.15
aF0.68
aI2
aI0
aI0
aI0
aI0
aI0
aI0
aI0
aI0
aF1.0
aa(lp4
I0
aI0
aI0
aI0
aI0
aI1
aI0
aI0
aI0
aI0
aF0.23
aF0.28
aI4
aI1
aI0
aI0
aI0
aI0
aF0.2
aF0.44
aI2
aI0
aI0
aI1
aI0
aI0
aF0.15
aF0.68
aI2
aI0
aI0
aI1
aI0
aI0
aF0.09
aF1.0
aI2
aF1.0
aa.(lp0
(lp1
I1
aI0
aI0
aI0
aI0
aI0
aI0
aI0
aI0
aI0
aF0.96
aF0.2
aI4
aI0
aI0
aI0
aI0
aI0
aI0
aI0
aI0
aI0
aI0
aI0
aI0
aI0
aI0
aI0
aI0
aI0
aI0
aI0
aI0
aI0
aI0
aI0
aI0
aF0.4
aa.(lp0
(lp1
I1
aI0
aI0
aI0
aI0
aI0
aI0
aI0
aI0
aI0
aF0.3
aF0.28
aI3
aI0
aI0
aI0
aI0
aI0
aI0
aI0
aI0
aI0
aI0
aI0
aI0
aI0
aI0
aI0
aI0
aI0
aI0
aI0
aI0
aI0
aI0
aI0
aI0
aF0.2
aa.(lp0
(lp1
I0
aI0
aI0
aI0
aI0
aI1
aI0
aI0
aI0
aI0
aF0.85
aF0.2
aI5
aI0
aI0
aI0
aI0
aI0
aI0
aI0
aI0
aI0
aI0
aI0
aI0
aI0
aI0
aI0
aI0
aI0
aI0
aI0
aI0
aI0
aI0
aI0
aI0
aF0.8
aa(lp2
I0
aI0
aI0
aI0
aI0
aI1
aI0
aI0
aI0
aI0
aF0.85
aF0.2
aI5
aI0
aI1
aI0
aI0
aI0
aF0.82
aF0.36
aI2
aI0
aI0
aI0
aI0
aI0
aI0
aI0
aI0
aI0
aI0
aI0
aI0
aI0
aI0
aI0
aI0
aF1.0
aa(lp3
I0
aI0
aI0
aI0
aI0
aI1
aI0
aI0
aI0
aI0
aF0.85
aF0.2
aI5
aI0
aI1
aI0
aI0
aI0
aF0.82
aF0.36
aI2
aI1
aI1
aI0
aI0
aI0
aF0.77
aF0.76
aI2
aI0
aI0
aI0
aI0
aI0
aI0
aI0
aI0
aF0.8
aa(lp4
I0
aI0
aI0
aI0
aI0
aI1
aI0
aI0
aI0
aI0
aF0.85
aF0.2
aI5
aI0
aI1
aI0
aI0
aI0
aF0.82
aF0.36
aI2
aI1
aI1
aI0
aI0
aI0
aF0.77
aF0.76
aI2
aI1
aI1
aI0
aI0
aI0
aF0.72
aF1.08
aI2
aF0.8
aa.(lp0
(lp1
I0
aI1
aI0
aI0
aI0
aI1
aI0
aI0
aI0
aI0
aF2.29
aF0.28
aI3
aI0
aI0
aI0
aI0
aI0
aI0
aI0
aI0
aI0
aI0
aI0
aI0
aI0
aI0
aI0
aI0
aI0
aI0
aI0
aI0
aI0
aI0
aI0
aI0
aF0.6
aa(lp2
I0
aI1
aI0
aI0
aI0
aI1
aI0
aI0
aI0
aI0
aF2.29
aF0.28
aI3
aI0
aI0
aI0
aI0
aI0
aF2.29
aF0.28
aI2
aI0
aI0
aI0
aI0
aI0
aI0
aI0
aI0
aI0
aI0
aI0
aI0
aI0
aI0
aI0
aI0
aF0.4
aa.(lp0
(lp1
I1
aI0
aI0
aI0
aI0
aI0
aI0
aI0
aI0
aI0
aF1.28
aF0.12
aI5
aI0
aI0
aI0
aI0
aI0
aI0
aI0
aI0
aI0
aI0
aI0
aI0
aI0
aI0
aI0
aI0
aI0
aI0
aI0
aI0
aI0
aI0
aI0
aI0
aF0.0
aa.(lp0
(lp1
I0
aI0
aI1
aI0
aI0
aI1
aI0
aI0
aI0
aI0
aF0.43
aF0.28
aI5
aI0
aI0
aI0
aI0
aI0
aI0
aI0
aI0
aI0
aI0
aI0
aI0
aI0
aI0
aI0
aI0
aI0
aI0
aI0
aI0
aI0
aI0
aI0
aI0
aF0.6
aa(lp2
I0
aI0
aI1
aI0
aI0
aI1
aI0
aI0
aI0
aI0
aF0.43
aF0.28
aI5
aI0
aI0
aI1
aI0
aI0
aF0.37
aF0.64
aI3
aI0
aI0
aI0
aI0
aI0
aI0
aI0
aI0
aI0
aI0
aI0
aI0
aI0
aI0
aI0
aI0
aF0.8
aa(lp3
I0
aI0
aI1
aI0
aI0
aI1
aI0
aI0
aI0
aI0
aF0.43
aF0.28
aI5
aI0
aI0
aI1
aI0
aI0
aF0.37
aF0.64
aI3
aI0
aI0
aI0
aI0
aI0
aF0.37
aF0.8
aI1
aI0
aI0
aI0
aI0
aI0
aI0
aI0
aI0
aF0.8
aa.(lp0
(lp1
I1
aI0
aI0
aI0
aI0
aI0
aI0
aI0
aI0
aI0
aF0.96
aF0.2
aI5
aI0
aI0
aI0
aI0
aI0
aI0
aI0
aI0
aI0
aI0
aI0
aI0
aI0
aI0
aI0
aI0
aI0
aI0
aI0
aI0
aI0
aI0
aI0
aI0
aF0.2
aa.(lp0
(lp1
I0
aI1
aI0
aI0
aI0
aI1
aI0
aI0
aI0
aI0
aF0.27
aF0.36
aI5
aI0
aI0
aI0
aI0
aI0
aI0
aI0
aI0
aI0
aI0
aI0
aI0
aI0
aI0
aI0
aI0
aI0
aI0
aI0
aI0
aI0
aI0
aI0
aI0
aF0.8
aa(lp2
I0
aI1
aI0
aI0
aI0
aI1
aI0
aI0
aI0
aI0
aF0.27
aF0.36
aI5
aI0
aI0
aI0
aI0
aI0
aF0.27
aF0.64
aI2
aI0
aI0
aI0
aI0
aI0
aI0
aI0
aI0
aI0
aI0
aI0
aI0
aI0
aI0
aI0
aI0
aF0.4
aa.(lp0
(lp1
I0
aI1
aI0
aI0
aI0
aI1
aI0
aI0
aI0
aI0
aF0.69
aF0.2
aI6
aI0
aI0
aI0
aI0
aI0
aI0
aI0
aI0
aI0
aI0
aI0
aI0
aI0
aI0
aI0
aI0
aI0
aI0
aI0
aI0
aI0
aI0
aI0
aI0
aF0.0
aa(lp2
I0
aI1
aI0
aI0
aI0
aI1
aI0
aI0
aI0
aI0
aF0.69
aF0.2
aI6
aI0
aI0
aI0
aI0
aI0
aF0.69
aF0.48
aI3
aI0
aI0
aI0
aI0
aI0
aI0
aI0
aI0
aI0
aI0
aI0
aI0
aI0
aI0
aI0
aI0
aF0.0
aa.(lp0
(lp1
I0
aI1
aI0
aI0
aI0
aI1
aI0
aI0
aI0
aI0
aF2.27
aF0.4
aI5
aI0
aI0
aI0
aI0
aI0
aI0
aI0
aI0
aI0
aI0
aI0
aI0
aI0
aI0
aI0
aI0
aI0
aI0
aI0
aI0
aI0
aI0
aI0
aI0
aF0.4
aa(lp2
I0
aI1
aI0
aI0
aI0
aI1
aI0
aI0
aI0
aI0
aF2.27
aF0.4
aI5
aI0
aI0
aI0
aI0
aI0
aF2.27
aF0.4
aI4
aI0
aI0
aI0
aI0
aI0
aI0
aI0
aI0
aI0
aI0
aI0
aI0
aI0
aI0
aI0
aI0
aF0.2
aa.(lp0
(lp1
I0
aI0
aI0
aI0
aI0
aI1
aI0
aI0
aI0
aI0
aF1.25
aF0.4
aI5
aI0
aI0
aI0
aI0
aI0
aI0
aI0
aI0
aI0
aI0
aI0
aI0
aI0
aI0
aI0
aI0
aI0
aI0
aI0
aI0
aI0
aI0
aI0
aI0
aF1.0
aa(lp2
I0
aI0
aI0
aI0
aI0
aI1
aI0
aI0
aI0
aI0
aF1.25
aF0.4
aI5
aI1
aI1
aI0
aI0
aI0
aF1.2
aF0.72
aI2
aI0
aI0
aI0
aI0
aI0
aI0
aI0
aI0
aI0
aI0
aI0
aI0
aI0
aI0
aI0
aI0
aF0.6
aa(lp3
I0
aI0
aI0
aI0
aI0
aI1
aI0
aI0
aI0
aI0
aF1.25
aF0.4
aI5
aI1
aI1
aI0
aI0
aI0
aF1.2
aF0.72
aI2
aI0
aI1
aI0
aI0
aI0
aF1.17
aF0.8
aI2
aI0
aI0
aI0
aI0
aI0
aI0
aI0
aI0
aF0.6
aa(lp4
I0
aI0
aI0
aI0
aI0
aI1
aI0
aI0
aI0
aI0
aF1.25
aF0.4
aI5
aI1
aI1
aI0
aI0
aI0
aF1.2
aF0.72
aI2
aI0
aI1
aI0
aI0
aI0
aF1.17
aF0.8
aI2
aI0
aI0
aI0
aI0
aI0
aI0
aI0
aI0
aF0.6
aa.(lp0
(lp1
I0
aI0
aI0
aI0
aI0
aI2
aI0
aI0
aI0
aI0
aF0.25
aF1.24
aI4
aI0
aI0
aI0
aI0
aI0
aI0
aI0
aI0
aI0
aI0
aI0
aI0
aI0
aI0
aI0
aI0
aI0
aI0
aI0
aI0
aI0
aI0
aI0
aI0
aF0.8
aa(lp2
I0
aI0
aI0
aI0
aI0
aI2
aI0
aI0
aI0
aI0
aF0.25
aF1.24
aI4
aI0
aI0
aI1
aI0
aI0
aF0.2
aF1.48
aI3
aI0
aI0
aI0
aI0
aI0
aI0
aI0
aI0
aI0
aI0
aI0
aI0
aI0
aI0
aI0
aI0
aF1.0
aa(lp3
I0
aI0
aI0
aI0
aI0
aI2
aI0
aI0
aI0
aI0
aF0.25
aF1.24
aI4
aI0
aI0
aI1
aI0
aI0
aF0.2
aF1.48
aI3
aI0
aI0
aI1
aI0
aI0
aF0.15
aF1.96
aI3
aI0
aI0
aI0
aI0
aI0
aI0
aI0
aI0
aF0.8
aa(lp4
I0
aI0
aI0
aI0
aI0
aI2
aI0
aI0
aI0
aI0
aF0.25
aF1.24
aI4
aI0
aI0
aI1
aI0
aI0
aF0.2
aF1.48
aI3
aI0
aI0
aI1
aI0
aI0
aF0.15
aF1.96
aI3
aI0
aI0
aI1
aI0
aI0
aF0.09
aF2.28
aI2
aF0.8
aa.(lp0
(lp1
I1
aI0
aI0
aI0
aI0
aI0
aI0
aI0
aI0
aI0
aF0.96
aF0.12
aI5
aI0
aI0
aI0
aI0
aI0
aI0
aI0
aI0
aI0
aI0
aI0
aI0
aI0
aI0
aI0
aI0
aI0
aI0
aI0
aI0
aI0
aI0
aI0
aI0
aF0.0
aa.(lp0
(lp1
I1
aI0
aI0
aI0
aI0
aI1
aI0
aI0
aI0
aI0
aF0.24
aF1.24
aI3
aI0
aI0
aI0
aI0
aI0
aI0
aI0
aI0
aI0
aI0
aI0
aI0
aI0
aI0
aI0
aI0
aI0
aI0
aI0
aI0
aI0
aI0
aI0
aI0
aF0.4
aa.(lp0
(lp1
I1
aI0
aI0
aI0
aI0
aI0
aI0
aI0
aI0
aI0
aF0.66
aF0.96
aI4
aI0
aI0
aI0
aI0
aI0
aI0
aI0
aI0
aI0
aI0
aI0
aI0
aI0
aI0
aI0
aI0
aI0
aI0
aI0
aI0
aI0
aI0
aI0
aI0
aF0.6
aa.(lp0
(lp1
I0
aI0
aI1
aI0
aI0
aI0
aI1
aI0
aI0
aI0
aF2.15
aF0.64
aI5
aI0
aI0
aI0
aI0
aI0
aI0
aI0
aI0
aI0
aI0
aI0
aI0
aI0
aI0
aI0
aI0
aI0
aI0
aI0
aI0
aI0
aI0
aI0
aI0
aF1.0
aa(lp2
I0
aI0
aI1
aI0
aI0
aI0
aI1
aI0
aI0
aI0
aF2.15
aF0.64
aI5
aI1
aI0
aI0
aI0
aI0
aF2.09
aF1.64
aI3
aI0
aI0
aI0
aI0
aI0
aI0
aI0
aI0
aI0
aI0
aI0
aI0
aI0
aI0
aI0
aI0
aF0.4
aa(lp3
I0
aI0
aI1
aI0
aI0
aI0
aI1
aI0
aI0
aI0
aF2.15
aF0.64
aI5
aI1
aI0
aI0
aI0
aI0
aF2.09
aF1.64
aI3
aI0
aI0
aI0
aI0
aI0
aF2.09
aF1.96
aI2
aI0
aI0
aI0
aI0
aI0
aI0
aI0
aI0
aF0.4
aa.(lp0
(lp1
I0
aI0
aI0
aI0
aI0
aI1
aI0
aI0
aI0
aI0
aF1.32
aF0.96
aI5
aI0
aI0
aI0
aI0
aI0
aI0
aI0
aI0
aI0
aI0
aI0
aI0
aI0
aI0
aI0
aI0
aI0
aI0
aI0
aI0
aI0
aI0
aI0
aI0
aF0.2
aa(lp2
I0
aI0
aI0
aI0
aI0
aI1
aI0
aI0
aI0
aI0
aF1.32
aF0.96
aI5
aI1
aI1
aI0
aI0
aI0
aF1.26
aF1.72
aI3
aI0
aI0
aI0
aI0
aI0
aI0
aI0
aI0
aI0
aI0
aI0
aI0
aI0
aI0
aI0
aI0
aF0.8
aa(lp3
I0
aI0
aI0
aI0
aI0
aI1
aI0
aI0
aI0
aI0
aF1.32
aF0.96
aI5
aI1
aI1
aI0
aI0
aI0
aF1.26
aF1.72
aI3
aI1
aI1
aI0
aI0
aI0
aF1.21
aF2.04
aI2
aI0
aI0
aI0
aI0
aI0
aI0
aI0
aI0
aF1.0
aa(lp4
I0
aI0
aI0
aI0
aI0
aI1
aI0
aI0
aI0
aI0
aF1.32
aF0.96
aI5
aI1
aI1
aI0
aI0
aI0
aF1.26
aF1.72
aI3
aI1
aI1
aI0
aI0
aI0
aF1.21
aF2.04
aI2
aI1
aI1
aI0
aI0
aI0
aF1.16
aF2.36
aI2
aF1.0
aa.(lp0
(lp1
I0
aI0
aI0
aI0
aI0
aI1
aI0
aI0
aI0
aI0
aF0.04
aF0.4
aI6
aI0
aI0
aI0
aI0
aI0
aI0
aI0
aI0
aI0
aI0
aI0
aI0
aI0
aI0
aI0
aI0
aI0
aI0
aI0
aI0
aI0
aI0
aI0
aI0
aF1.0
aa(lp2
I0
aI0
aI0
aI0
aI0
aI1
aI0
aI0
aI0
aI0
aF0.04
aF0.4
aI6
aI0
aI0
aI0
aI0
aI1
aF0.0
aF0.92
aI4
aI0
aI0
aI0
aI0
aI0
aI0
aI0
aI0
aI0
aI0
aI0
aI0
aI0
aI0
aI0
aI0
aF1.0
aa(lp3
I0
aI0
aI0
aI0
aI0
aI1
aI0
aI0
aI0
aI0
aF0.04
aF0.4
aI6
aI0
aI0
aI0
aI0
aI1
aF0.0
aF0.92
aI4
aI0
aI0
aI0
aI0
aI0
aI0
aI0
aI0
aI0
aI0
aI0
aI0
aI0
aI0
aI0
aI0
aF1.0
aa(lp4
I0
aI0
aI0
aI0
aI0
aI1
aI0
aI0
aI0
aI0
aF0.04
aF0.4
aI6
aI0
aI0
aI0
aI0
aI1
aF0.0
aF0.92
aI4
aI0
aI0
aI0
aI0
aI0
aI0
aI0
aI0
aI0
aI0
aI0
aI0
aI0
aI0
aI0
aI0
aF1.0
aa.(lp0
(lp1
I1
aI0
aI0
aI0
aI0
aI0
aI0
aI0
aI0
aI0
aF0.91
aF0.8
aI4
aI0
aI0
aI0
aI0
aI0
aI0
aI0
aI0
aI0
aI0
aI0
aI0
aI0
aI0
aI0
aI0
aI0
aI0
aI0
aI0
aI0
aI0
aI0
aI0
aF0.6
aa.(lp0
(lp1
I0
aI1
aI0
aI0
aI0
aI1
aI0
aI0
aI0
aI0
aF0.19
aF0.56
aI6
aI0
aI0
aI0
aI0
aI0
aI0
aI0
aI0
aI0
aI0
aI0
aI0
aI0
aI0
aI0
aI0
aI0
aI0
aI0
aI0
aI0
aI0
aI0
aI0
aF0.8
aa(lp2
I0
aI1
aI0
aI0
aI0
aI1
aI0
aI0
aI0
aI0
aF0.19
aF0.56
aI6
aI0
aI0
aI0
aI0
aI0
aF0.19
aF0.92
aI3
aI0
aI0
aI0
aI0
aI0
aI0
aI0
aI0
aI0
aI0
aI0
aI0
aI0
aI0
aI0
aI0
aF0.6
aa.(lp0
(lp1
I0
aI1
aI0
aI0
aI0
aI1
aI0
aI0
aI0
aI0
aF0.61
aF0.8
aI5
aI0
aI0
aI0
aI0
aI0
aI0
aI0
aI0
aI0
aI0
aI0
aI0
aI0
aI0
aI0
aI0
aI0
aI0
aI0
aI0
aI0
aI0
aI0
aI0
aF0.4
aa(lp2
I0
aI1
aI0
aI0
aI0
aI1
aI0
aI0
aI0
aI0
aF0.61
aF0.8
aI5
aI0
aI0
aI0
aI0
aI0
aF0.61
aF0.92
aI1
aI0
aI0
aI0
aI0
aI0
aI0
aI0
aI0
aI0
aI0
aI0
aI0
aI0
aI0
aI0
aI0
aF0.4
aa.(lp0
(lp1
I0
aI1
aI0
aI0
aI0
aI1
aI0
aI0
aI0
aI0
aF2.04
aF0.72
aI6
aI0
aI0
aI0
aI0
aI0
aI0
aI0
aI0
aI0
aI0
aI0
aI0
aI0
aI0
aI0
aI0
aI0
aI0
aI0
aI0
aI0
aI0
aI0
aI0
aF0.2
aa(lp2
I0
aI1
aI0
aI0
aI0
aI1
aI0
aI0
aI0
aI0
aF2.04
aF0.72
aI6
aI0
aI0
aI0
aI0
aI0
aF2.04
aF0.92
aI2
aI0
aI0
aI0
aI0
aI0
aI0
aI0
aI0
aI0
aI0
aI0
aI0
aI0
aI0
aI0
aI0
aF0.2
aa.(lp0
(lp1
I1
aI0
aI0
aI0
aI0
aI0
aI0
aI0
aI0
aI0
aF1.94
aF0.72
aI5
aI0
aI0
aI0
aI0
aI0
aI0
aI0
aI0
aI0
aI0
aI0
aI0
aI0
aI0
aI0
aI0
aI0
aI0
aI0
aI0
aI0
aI0
aI0
aI0
aF0.0
aa.(lp0
(lp1
I0
aI1
aI0
aI0
aI0
aI1
aI0
aI0
aI0
aI0
aF0.25
aF0.96
aI6
aI0
aI0
aI0
aI0
aI0
aI0
aI0
aI0
aI0
aI0
aI0
aI0
aI0
aI0
aI0
aI0
aI0
aI0
aI0
aI0
aI0
aI0
aI0
aI0
aF0.4
aa(lp2
I0
aI1
aI0
aI0
aI0
aI1
aI0
aI0
aI0
aI0
aF0.25
aF0.96
aI6
aI1
aI0
aI0
aI0
aI0
aF0.2
aF1.76
aI1
aI0
aI0
aI0
aI0
aI0
aI0
aI0
aI0
aI0
aI0
aI0
aI0
aI0
aI0
aI0
aI0
aF0.2
aa.(lp0
(lp1
I0
aI1
aI0
aI0
aI0
aI1
aI0
aI0
aI0
aI0
aF0.86
aF0.96
aI6
aI0
aI0
aI0
aI0
aI0
aI0
aI0
aI0
aI0
aI0
aI0
aI0
aI0
aI0
aI0
aI0
aI0
aI0
aI0
aI0
aI0
aI0
aI0
aI0
aF0.8
aa(lp2
I0
aI1
aI0
aI0
aI0
aI1
aI0
aI0
aI0
aI0
aF0.86
aF0.96
aI6
aI0
aI1
aI0
aI0
aI0
aF0.8
aF1.76
aI2
aI0
aI0
aI0
aI0
aI0
aI0
aI0
aI0
aI0
aI0
aI0
aI0
aI0
aI0
aI0
aI0
aF0.6
aa.(lp0
(lp1
I0
aI1
aI0
aI0
aI0
aI1
aI0
aI0
aI0
aI0
aF0.14
aF0.4
aI6
aI0
aI0
aI0
aI0
aI0
aI0
aI0
aI0
aI0
aI0
aI0
aI0
aI0
aI0
aI0
aI0
aI0
aI0
aI0
aI0
aI0
aI0
aI0
aI0
aF1.0
aa(lp2
I0
aI1
aI0
aI0
aI0
aI1
aI0
aI0
aI0
aI0
aF0.14
aF0.4
aI6
aI0
aI0
aI0
aI0
aI0
aF0.14
aF1.28
aI5
aI0
aI0
aI0
aI0
aI0
aI0
aI0
aI0
aI0
aI0
aI0
aI0
aI0
aI0
aI0
aI0
aF0.8
aa.(lp0
(lp1
I0
aI1
aI0
aI0
aI0
aI1
aI0
aI0
aI0
aI0
aF0.56
aF0.88
aI6
aI0
aI0
aI0
aI0
aI0
aI0
aI0
aI0
aI0
aI0
aI0
aI0
aI0
aI0
aI0
aI0
aI0
aI0
aI0
aI0
aI0
aI0
aI0
aI0
aF0.0
aa(lp2
I0
aI1
aI0
aI0
aI0
aI1
aI0
aI0
aI0
aI0
aF0.56
aF0.88
aI6
aI0
aI0
aI0
aI0
aI0
aF0.56
aF1.76
aI3
aI0
aI0
aI0
aI0
aI0
aI0
aI0
aI0
aI0
aI0
aI0
aI0
aI0
aI0
aI0
aI0
aF0.0
aa.(lp0
(lp1
I0
aI0
aI0
aI0
aI0
aI1
aI0
aI0
aI0
aI0
aF1.99
aF0.56
aI6
aI0
aI0
aI0
aI0
aI0
aI0
aI0
aI0
aI0
aI0
aI0
aI0
aI0
aI0
aI0
aI0
aI0
aI0
aI0
aI0
aI0
aI0
aI0
aI0
aF0.2
aa(lp2
I0
aI0
aI0
aI0
aI0
aI1
aI0
aI0
aI0
aI0
aF1.99
aF0.56
aI6
aI0
aI1
aI0
aI0
aI0
aF1.83
aF1.76
aI5
aI0
aI0
aI0
aI0
aI0
aI0
aI0
aI0
aI0
aI0
aI0
aI0
aI0
aI0
aI0
aI0
aF1.0
aa(lp3
I0
aI0
aI0
aI0
aI0
aI1
aI0
aI0
aI0
aI0
aF1.99
aF0.56
aI6
aI0
aI1
aI0
aI0
aI0
aF1.83
aF1.76
aI5
aI0
aI0
aI0
aI0
aI0
aI0
aI0
aI0
aI0
aI0
aI0
aI0
aI0
aI0
aI0
aI0
aF1.0
aa(lp4
I0
aI0
aI0
aI0
aI0
aI1
aI0
aI0
aI0
aI0
aF1.99
aF0.56
aI6
aI0
aI1
aI0
aI0
aI0
aF1.83
aF1.76
aI5
aI0
aI0
aI0
aI0
aI0
aI0
aI0
aI0
aI0
aI0
aI0
aI0
aI0
aI0
aI0
aI0
aF1.0
aa.(lp0
(lp1
I0
aI1
aI0
aI0
aI0
aI1
aI0
aI0
aI0
aI0
aF1.89
aF0.72
aI6
aI0
aI0
aI0
aI0
aI0
aI0
aI0
aI0
aI0
aI0
aI0
aI0
aI0
aI0
aI0
aI0
aI0
aI0
aI0
aI0
aI0
aI0
aI0
aI0
aF0.6
aa(lp2
I0
aI1
aI0
aI0
aI0
aI1
aI0
aI0
aI0
aI0
aF1.89
aF0.72
aI6
aI0
aI0
aI0
aI0
aI0
aF1.89
aF1.76
aI4
aI0
aI0
aI0
aI0
aI0
aI0
aI0
aI0
aI0
aI0
aI0
aI0
aI0
aI0
aI0
aI0
aF0.4
aa.(lp0
(lp1
I0
aI0
aI0
aI0
aI0
aI1
aI0
aI0
aI0
aI0
aF0.15
aF0.96
aI6
aI0
aI0
aI0
aI0
aI0
aI0
aI0
aI0
aI0
aI0
aI0
aI0
aI0
aI0
aI0
aI0
aI0
aI0
aI0
aI0
aI0
aI0
aI0
aI0
aF0.6
aa(lp2
I0
aI0
aI0
aI0
aI0
aI1
aI0
aI0
aI0
aI0
aF0.15
aF0.96
aI6
aI0
aI1
aI0
aI0
aI0
aF0.09
aF1.12
aI5
aI0
aI0
aI0
aI0
aI0
aI0
aI0
aI0
aI0
aI0
aI0
aI0
aI0
aI0
aI0
aI0
aF0.8
aa(lp3
I0
aI0
aI0
aI0
aI0
aI1
aI0
aI0
aI0
aI0
aF0.15
aF0.96
aI6
aI0
aI1
aI0
aI0
aI0
aF0.09
aF1.12
aI5
aI0
aI1
aI0
aI0
aI0
aF0.04
aF1.44
aI2
aI0
aI0
aI0
aI0
aI0
aI0
aI0
aI0
aF1.0
aa(lp4
I0
aI0
aI0
aI0
aI0
aI1
aI0
aI0
aI0
aI0
aF0.15
aF0.96
aI6
aI0
aI1
aI0
aI0
aI0
aF0.09
aF1.12
aI5
aI0
aI1
aI0
aI0
aI0
aF0.04
aF1.44
aI2
aI0
aI0
aI0
aI0
aI1
aF0.0
aF1.72
aI2
aF1.0
aa.(lp0
(lp1
I0
aI0
aI0
aI0
aI0
aI1
aI0
aI0
aI0
aI0
aF0.75
aF0.88
aI6
aI0
aI0
aI0
aI0
aI0
aI0
aI0
aI0
aI0
aI0
aI0
aI0
aI0
aI0
aI0
aI0
aI0
aI0
aI0
aI0
aI0
aI0
aI0
aI0
aF1.0
aa(lp2
I0
aI0
aI0
aI0
aI0
aI1
aI0
aI0
aI0
aI0
aF0.75
aF0.88
aI6
aI1
aI0
aI0
aI0
aI0
aF0.7
aF1.28
aI2
aI0
aI0
aI0
aI0
aI0
aI0
aI0
aI0
aI0
aI0
aI0
aI0
aI0
aI0
aI0
aI0
aF0.4
aa(lp3
I0
aI0
aI0
aI0
aI0
aI1
aI0
aI0
aI0
aI0
aF0.75
aF0.88
aI6
aI1
aI0
aI0
aI0
aI0
aF0.7
aF1.28
aI2
aI1
aI0
aI0
aI0
aI0
aF0.64
aF1.6
aI2
aI0
aI0
aI0
aI0
aI0
aI0
aI0
aI0
aF0.4
aa(lp4
I0
aI0
aI0
aI0
aI0
aI1
aI0
aI0
aI0
aI0
aF0.75
aF0.88
aI6
aI1
aI0
aI0
aI0
aI0
aF0.7
aF1.28
aI2
aI1
aI0
aI0
aI0
aI0
aF0.64
aF1.6
aI2
aI1
aI0
aI0
aI0
aI0
aF0.6
aF1.84
aI2
aF0.4
aa.(lp0
(lp1
I1
aI0
aI0
aI0
aI0
aI0
aI0
aI0
aI0
aI0
aF0.08
aF0.96
aI5
aI0
aI0
aI0
aI0
aI0
aI0
aI0
aI0
aI0
aI0
aI0
aI0
aI0
aI0
aI0
aI0
aI0
aI0
aI0
aI0
aI0
aI0
aI0
aI0
aF0.2
aa.(lp0
(lp1
I0
aI1
aI0
aI0
aI0
aI1
aI0
aI0
aI0
aI0
aF0.5
aF0.72
aI6
aI0
aI0
aI0
aI0
aI0
aI0
aI0
aI0
aI0
aI0
aI0
aI0
aI0
aI0
aI0
aI0
aI0
aI0
aI0
aI0
aI0
aI0
aI0
aI0
aF0.4
aa(lp2
I0
aI1
aI0
aI0
aI0
aI1
aI0
aI0
aI0
aI0
aF0.5
aF0.72
aI6
aI0
aI0
aI0
aI0
aI0
aF0.5
aF1.12
aI2
aI0
aI0
aI0
aI0
aI0
aI0
aI0
aI0
aI0
aI0
aI0
aI0
aI0
aI0
aI0
aI0
aF1.0
aa.(lp0
(lp1
I0
aI1
aI0
aI0
aI0
aI1
aI0
aI0
aI0
aI0
aF2.36
aF0.4
aI6
aI0
aI0
aI0
aI0
aI0
aI0
aI0
aI0
aI0
aI0
aI0
aI0
aI0
aI0
aI0
aI0
aI0
aI0
aI0
aI0
aI0
aI0
aI0
aI0
aF0.0
aa(lp2
I0
aI1
aI0
aI0
aI0
aI1
aI0
aI0
aI0
aI0
aF2.36
aF0.4
aI6
aI0
aI0
aI0
aI0
aI0
aF2.36
aF1.12
aI4
aI0
aI0
aI0
aI0
aI0
aI0
aI0
aI0
aI0
aI0
aI0
aI0
aI0
aI0
aI0
aI0
aF0.0
aa.(lp0
(lp1
I0
aI1
aI0
aI0
aI0
aI1
aI0
aI0
aI0
aI0
aF1.84
aF0.56
aI6
aI0
aI0
aI0
aI0
aI0
aI0
aI0
aI0
aI0
aI0
aI0
aI0
aI0
aI0
aI0
aI0
aI0
aI0
aI0
aI0
aI0
aI0
aI0
aI0
aF0.8
aa(lp2
I0
aI1
aI0
aI0
aI0
aI1
aI0
aI0
aI0
aI0
aF1.84
aF0.56
aI6
aI0
aI0
aI0
aI0
aI0
aF1.84
aF1.12
aI3
aI0
aI0
aI0
aI0
aI0
aI0
aI0
aI0
aI0
aI0
aI0
aI0
aI0
aI0
aI0
aI0
aF0.2
aa.(lp0
(lp1
I1
aI0
aI0
aI0
aI0
aI0
aI0
aI0
aI0
aI0
aF0.61
aF0.72
aI5
aI0
aI0
aI0
aI0
aI0
aI0
aI0
aI0
aI0
aI0
aI0
aI0
aI0
aI0
aI0
aI0
aI0
aI0
aI0
aI0
aI0
aI0
aI0
aI0
aF0.0
aa.(lp0
(lp1
I1
aI0
aI0
aI0
aI0
aI1
aI0
aI0
aI0
aI0
aF0.55
aF1.68
aI2
aI0
aI0
aI0
aI0
aI0
aI0
aI0
aI0
aI0
aI0
aI0
aI0
aI0
aI0
aI0
aI0
aI0
aI0
aI0
aI0
aI0
aI0
aI0
aI0
aF1.0
aa.(lp0
(lp1
I1
aI0
aI0
aI0
aI0
aI0
aI0
aI0
aI0
aI0
aF0.06
aF0.72
aI4
aI0
aI0
aI0
aI0
aI0
aI0
aI0
aI0
aI0
aI0
aI0
aI0
aI0
aI0
aI0
aI0
aI0
aI0
aI0
aI0
aI0
aI0
aI0
aI0
aF0.6
aa.(lp0
(lp1
I1
aI0
aI0
aI0
aI0
aI1
aI0
aI0
aI0
aI0
aF0.45
aF1.68
aI3
aI0
aI0
aI0
aI0
aI0
aI0
aI0
aI0
aI0
aI0
aI0
aI0
aI0
aI0
aI0
aI0
aI0
aI0
aI0
aI0
aI0
aI0
aI0
aI0
aF0.2
aa.(lp0
(lp1
I0
aI0
aI0
aI0
aI0
aI0
aI1
aI0
aI0
aI0
aF2.15
aF1.2
aI4
aI0
aI0
aI0
aI0
aI0
aI0
aI0
aI0
aI0
aI0
aI0
aI0
aI0
aI0
aI0
aI0
aI0
aI0
aI0
aI0
aI0
aI0
aI0
aI0
aF0.8
aa(lp2
I0
aI0
aI0
aI0
aI0
aI0
aI1
aI0
aI0
aI0
aF2.15
aF1.2
aI4
aI0
aI1
aI0
aI0
aI0
aF1.99
aF2.16
aI2
aI0
aI0
aI0
aI0
aI0
aI0
aI0
aI0
aI0
aI0
aI0
aI0
aI0
aI0
aI0
aI0
aF1.0
aa(lp3
I0
aI0
aI0
aI0
aI0
aI0
aI1
aI0
aI0
aI0
aF2.15
aF1.2
aI4
aI0
aI1
aI0
aI0
aI0
aF1.99
aF2.16
aI2
aI0
aI0
aI0
aI0
aI0
aI0
aI0
aI0
aI0
aI0
aI0
aI0
aI0
aI0
aI0
aI0
aF1.0
aa(lp4
I0
aI0
aI0
aI0
aI0
aI0
aI1
aI0
aI0
aI0
aF2.15
aF1.2
aI4
aI0
aI1
aI0
aI0
aI0
aF1.99
aF2.16
aI2
aI0
aI0
aI0
aI0
aI0
aI0
aI0
aI0
aI0
aI0
aI0
aI0
aI0
aI0
aI0
aI0
aF1.0
aa.(lp0
(lp1
I0
aI1
aI0
aI0
aI0
aI2
aI0
aI0
aI0
aI0
aF1.62
aF1.68
aI4
aI0
aI0
aI0
aI0
aI0
aI0
aI0
aI0
aI0
aI0
aI0
aI0
aI0
aI0
aI0
aI0
aI0
aI0
aI0
aI0
aI0
aI0
aI0
aI0
aF0.4
aa(lp2
I0
aI1
aI0
aI0
aI0
aI2
aI0
aI0
aI0
aI0
aF1.62
aF1.68
aI4
aI0
aI0
aI0
aI0
aI0
aF1.62
aF2.16
aI1
aI0
aI0
aI0
aI0
aI0
aI0
aI0
aI0
aI0
aI0
aI0
aI0
aI0
aI0
aI0
aI0
aF0.4
aa.(lp0
(lp1
I0
aI1
aI0
aI0
aI0
aI1
aI0
aI0
aI0
aI0
aF0.56
aF0.56
aI5
aI0
aI0
aI0
aI0
aI0
aI0
aI0
aI0
aI0
aI0
aI0
aI0
aI0
aI0
aI0
aI0
aI0
aI0
aI0
aI0
aI0
aI0
aI0
aI0
aF0.4
aa(lp2
I0
aI1
aI0
aI0
aI0
aI1
aI0
aI0
aI0
aI0
aF0.56
aF0.56
aI5
aI0
aI0
aI0
aI0
aI0
aF0.56
aF0.8
aI2
aI0
aI0
aI0
aI0
aI0
aI0
aI0
aI0
aI0
aI0
aI0
aI0
aI0
aI0
aI0
aI0
aF0.2
aa.(lp0
(lp1
I1
aI0
aI0
aI0
aI0
aI0
aI0
aI0
aI0
aI0
aF0.55
aF0.4
aI5
aI0
aI0
aI0
aI0
aI0
aI0
aI0
aI0
aI0
aI0
aI0
aI0
aI0
aI0
aI0
aI0
aI0
aI0
aI0
aI0
aI0
aI0
aI0
aI0
aF0.6
aa.(lp0
(lp1
I0
aI1
aI0
aI0
aI0
aI1
aI0
aI0
aI0
aI0
aF0.0
aF0.72
aI5
aI0
aI0
aI0
aI0
aI0
aI0
aI0
aI0
aI0
aI0
aI0
aI0
aI0
aI0
aI0
aI0
aI0
aI0
aI0
aI0
aI0
aI0
aI0
aI0
aF1.0
aa(lp2
I0
aI1
aI0
aI0
aI0
aI1
aI0
aI0
aI0
aI0
aF0.0
aF0.72
aI5
aI0
aI0
aI0
aI0
aI0
aF0.0
aF0.8
aI1
aI0
aI0
aI0
aI0
aI0
aI0
aI0
aI0
aI0
aI0
aI0
aI0
aI0
aI0
aI0
aI0
aF1.0
aa.(lp0
(lp1
I0
aI0
aI0
aI0
aI0
aI1
aI0
aI0
aI0
aI0
aF0.4
aF0.4
aI6
aI0
aI0
aI0
aI0
aI0
aI0
aI0
aI0
aI0
aI0
aI0
aI0
aI0
aI0
aI0
aI0
aI0
aI0
aI0
aI0
aI0
aI0
aI0
aI0
aF0.2
aa(lp2
I0
aI0
aI0
aI0
aI0
aI1
aI0
aI0
aI0
aI0
aF0.4
aF0.4
aI6
aI0
aI0
aI0
aI0
aI0
aF0.4
aF0.8
aI3
aI0
aI0
aI0
aI0
aI0
aI0
aI0
aI0
aI0
aI0
aI0
aI0
aI0
aI0
aI0
aI0
aF0.4
aa(lp3
I0
aI0
aI0
aI0
aI0
aI1
aI0
aI0
aI0
aI0
aF0.4
aF0.4
aI6
aI0
aI0
aI0
aI0
aI0
aF0.4
aF0.8
aI3
aI0
aI0
aI0
aI0
aI0
aI0
aI0
aI0
aI0
aI0
aI0
aI0
aI0
aI0
aI0
aI0
aF0.4
aa(lp4
I0
aI0
aI0
aI0
aI0
aI1
aI0
aI0
aI0
aI0
aF0.4
aF0.4
aI6
aI0
aI0
aI0
aI0
aI0
aF0.4
aF0.8
aI3
aI0
aI0
aI0
aI0
aI0
aI0
aI0
aI0
aI0
aI0
aI0
aI0
aI0
aI0
aI0
aI0
aF0.4
aa.(lp0
(lp1
I0
aI1
aI0
aI0
aI0
aI1
aI0
aI0
aI0
aI0
aF2.65
aF0.8
aI5
aI0
aI0
aI0
aI0
aI0
aI0
aI0
aI0
aI0
aI0
aI0
aI0
aI0
aI0
aI0
aI0
aI0
aI0
aI0
aI0
aI0
aI0
aI0
aI0
aF0.0
aa(lp2
I0
aI1
aI0
aI0
aI0
aI1
aI0
aI0
aI0
aI0
aF2.65
aF0.8
aI5
aI0
aI0
aI0
aI0
aI0
aF2.65
aF0.8
aI4
aI0
aI0
aI0
aI0
aI0
aI0
aI0
aI0
aI0
aI0
aI0
aI0
aI0
aI0
aI0
aI0
aF0.0
aa.(lp0
(lp1
I0
aI1
aI0
aI0
aI0
aI1
aI0
aI0
aI0
aI0
aF1.57
aF0.8
aI5
aI0
aI0
aI0
aI0
aI0
aI0
aI0
aI0
aI0
aI0
aI0
aI0
aI0
aI0
aI0
aI0
aI0
aI0
aI0
aI0
aI0
aI0
aI0
aI0
aF0.8
aa(lp2
I0
aI1
aI0
aI0
aI0
aI1
aI0
aI0
aI0
aI0
aF1.57
aF0.8
aI5
aI0
aI0
aI0
aI0
aI0
aF1.57
aF0.8
aI3
aI0
aI0
aI0
aI0
aI0
aI0
aI0
aI0
aI0
aI0
aI0
aI0
aI0
aI0
aI0
aI0
aF0.8
aa.(lp0
(lp1
I0
aI1
aI0
aI0
aI0
aI1
aI0
aI0
aI0
aI0
aF0.51
aF0.4
aI5
aI0
aI0
aI0
aI0
aI0
aI0
aI0
aI0
aI0
aI0
aI0
aI0
aI0
aI0
aI0
aI0
aI0
aI0
aI0
aI0
aI0
aI0
aI0
aI0
aF0.2
aa(lp2
I0
aI1
aI0
aI0
aI0
aI1
aI0
aI0
aI0
aI0
aF0.51
aF0.4
aI5
aI0
aI0
aI0
aI0
aI0
aF0.51
aF0.57
aI3
aI0
aI0
aI0
aI0
aI0
aI0
aI0
aI0
aI0
aI0
aI0
aI0
aI0
aI0
aI0
aI0
aF0.2
aa.(lp0
(lp1
I1
aI0
aI0
aI0
aI0
aI0
aI0
aI0
aI0
aI0
aF0.55
aF0.24
aI5
aI0
aI0
aI0
aI0
aI0
aI0
aI0
aI0
aI0
aI0
aI0
aI0
aI0
aI0
aI0
aI0
aI0
aI0
aI0
aI0
aI0
aI0
aI0
aI0
aF0.8
aa.(lp0
(lp1
I0
aI0
aI0
aI0
aI0
aI0
aI0
aI0
aI0
aI1
aF0.0
aF0.41
aI5
aI0
aI0
aI0
aI0
aI0
aI0
aI0
aI0
aI0
aI0
aI0
aI0
aI0
aI0
aI0
aI0
aI0
aI0
aI0
aI0
aI0
aI0
aI0
aI0
aF1.0
aa(lp2
I0
aI0
aI0
aI0
aI0
aI0
aI0
aI0
aI0
aI1
aF0.0
aF0.41
aI5
aI0
aI0
aI0
aI0
aI0
aI0
aI0
aI0
aI0
aI0
aI0
aI0
aI0
aI0
aI0
aI0
aI0
aI0
aI0
aI0
aI0
aI0
aI0
aI0
aF0.8
aa(lp3
I0
aI0
aI0
aI0
aI0
aI0
aI0
aI0
aI0
aI1
aF0.0
aF0.41
aI5
aI0
aI0
aI0
aI0
aI0
aI0
aI0
aI0
aI0
aI0
aI0
aI0
aI0
aI0
aI0
aI0
aI0
aI0
aI0
aI0
aI0
aI0
aI0
aI0
aF0.8
aa(lp4
I0
aI0
aI0
aI0
aI0
aI0
aI0
aI0
aI0
aI1
aF0.0
aF0.41
aI5
aI0
aI0
aI0
aI0
aI0
aI0
aI0
aI0
aI0
aI0
aI0
aI0
aI0
aI0
aI0
aI0
aI0
aI0
aI0
aI0
aI0
aI0
aI0
aI0
aF0.8
aa.(lp0
(lp1
I0
aI1
aI0
aI0
aI0
aI1
aI0
aI0
aI0
aI0
aF0.61
aF0.57
aI4
aI0
aI0
aI0
aI0
aI0
aI0
aI0
aI0
aI0
aI0
aI0
aI0
aI0
aI0
aI0
aI0
aI0
aI0
aI0
aI0
aI0
aI0
aI0
aI0
aF0.0
aa(lp2
I0
aI1
aI0
aI0
aI0
aI1
aI0
aI0
aI0
aI0
aF0.61
aF0.57
aI4
aI0
aI0
aI0
aI0
aI0
aF0.61
aF0.73
aI2
aI0
aI0
aI0
aI0
aI0
aI0
aI0
aI0
aI0
aI0
aI0
aI0
aI0
aI0
aI0
aI0
aF0.0
aa.(lp0
(lp1
I0
aI0
aI0
aI0
aI0
aI1
aI0
aI0
aI0
aI0
aF2.6
aF0.57
aI5
aI0
aI0
aI0
aI0
aI0
aI0
aI0
aI0
aI0
aI0
aI0
aI0
aI0
aI0
aI0
aI0
aI0
aI0
aI0
aI0
aI0
aI0
aI0
aI0
aF0.4
aa(lp2
I0
aI0
aI0
aI0
aI0
aI1
aI0
aI0
aI0
aI0
aF2.6
aF0.57
aI5
aI0
aI1
aI0
aI0
aI0
aF2.55
aF0.73
aI3
aI0
aI0
aI0
aI0
aI0
aI0
aI0
aI0
aI0
aI0
aI0
aI0
aI0
aI0
aI0
aI0
aF0.4
aa(lp3
I0
aI0
aI0
aI0
aI0
aI1
aI0
aI0
aI0
aI0
aF2.6
aF0.57
aI5
aI0
aI1
aI0
aI0
aI0
aF2.55
aF0.73
aI3
aI0
aI0
aI0
aI0
aI0
aI0
aI0
aI0
aI0
aI0
aI0
aI0
aI0
aI0
aI0
aI0
aF0.4
aa(lp4
I0
aI0
aI0
aI0
aI0
aI1
aI0
aI0
aI0
aI0
aF2.6
aF0.57
aI5
aI0
aI1
aI0
aI0
aI0
aF2.55
aF0.73
aI3
aI0
aI0
aI0
aI0
aI0
aI0
aI0
aI0
aI0
aI0
aI0
aI0
aI0
aI0
aI0
aI0
aF0.4
aa.(lp0
(lp1
I1
aI0
aI0
aI0
aI0
aI0
aI0
aI0
aI0
aI0
aF1.54
aF0.57
aI4
aI0
aI0
aI0
aI0
aI0
aI0
aI0
aI0
aI0
aI0
aI0
aI0
aI0
aI0
aI0
aI0
aI0
aI0
aI0
aI0
aI0
aI0
aI0
aI0
aF0.6
aa.(lp0
(lp1
I1
aI0
aI0
aI0
aI0
aI0
aI0
aI0
aI0
aI0
aF0.51
aF0.48
aI5
aI0
aI0
aI0
aI0
aI0
aI0
aI0
aI0
aI0
aI0
aI0
aI0
aI0
aI0
aI0
aI0
aI0
aI0
aI0
aI0
aI0
aI0
aI0
aI0
aF0.2
aa.(lp0
(lp1
I1
aI0
aI0
aI0
aI0
aI0
aI0
aI0
aI0
aI0
aF0.44
aF2.4
aI2
aI0
aI0
aI0
aI0
aI0
aI0
aI0
aI0
aI0
aI0
aI0
aI0
aI0
aI0
aI0
aI0
aI0
aI0
aI0
aI0
aI0
aI0
aI0
aI0
aF0.6
aa.(lp0
(lp1
I1
aI0
aI0
aI0
aI0
aI0
aI0
aI0
aI0
aI0
aF0.02
aF0.48
aI4
aI0
aI0
aI0
aI0
aI0
aI0
aI0
aI0
aI0
aI0
aI0
aI0
aI0
aI0
aI0
aI0
aI0
aI0
aI0
aI0
aI0
aI0
aI0
aI0
aF0.0
aa.(lp0
(lp1
I1
aI0
aI0
aI0
aI0
aI0
aI0
aI0
aI0
aI0
aF0.56
aF2.4
aI3
aI0
aI0
aI0
aI0
aI0
aI0
aI0
aI0
aI0
aI0
aI0
aI0
aI0
aI0
aI0
aI0
aI0
aI0
aI0
aI0
aI0
aI0
aI0
aI0
aF0.4
aa.(lp0
(lp1
I0
aI0
aI0
aI0
aI0
aI0
aI1
aI0
aI0
aI0
aF2.45
aF1.44
aI4
aI0
aI0
aI0
aI0
aI0
aI0
aI0
aI0
aI0
aI0
aI0
aI0
aI0
aI0
aI0
aI0
aI0
aI0
aI0
aI0
aI0
aI0
aI0
aI0
aF1.0
aa(lp2
I0
aI0
aI0
aI0
aI0
aI0
aI1
aI0
aI0
aI0
aF2.45
aF1.44
aI4
aI0
aI1
aI0
aI0
aI0
aF2.13
aF3.36
aI2
aI0
aI0
aI0
aI0
aI0
aI0
aI0
aI0
aI0
aI0
aI0
aI0
aI0
aI0
aI0
aI0
aF1.0
aa(lp3
I0
aI0
aI0
aI0
aI0
aI0
aI1
aI0
aI0
aI0
aF2.45
aF1.44
aI4
aI0
aI1
aI0
aI0
aI0
aF2.13
aF3.36
aI2
aI0
aI0
aI0
aI0
aI0
aI0
aI0
aI0
aI0
aI0
aI0
aI0
aI0
aI0
aI0
aI0
aF1.0
aa(lp4
I0
aI0
aI0
aI0
aI0
aI0
aI1
aI0
aI0
aI0
aF2.45
aF1.44
aI4
aI0
aI1
aI0
aI0
aI0
aF2.13
aF3.36
aI2
aI0
aI0
aI0
aI0
aI0
aI0
aI0
aI0
aI0
aI0
aI0
aI0
aI0
aI0
aI0
aI0
aF1.0
aa.(lp0
(lp1
I0
aI1
aI0
aI0
aI0
aI1
aI0
aI0
aI0
aI0
aF1.22
aF2.4
aI4
aI0
aI0
aI0
aI0
aI0
aI0
aI0
aI0
aI0
aI0
aI0
aI0
aI0
aI0
aI0
aI0
aI0
aI0
aI0
aI0
aI0
aI0
aI0
aI0
aF0.8
aa(lp2
I0
aI1
aI0
aI0
aI0
aI1
aI0
aI0
aI0
aI0
aF1.22
aF2.4
aI4
aI0
aI0
aI0
aI0
aI0
aF1.22
aF3.36
aI1
aI0
aI0
aI0
aI0
aI0
aI0
aI0
aI0
aI0
aI0
aI0
aI0
aI0
aI0
aI0
aI0
aF0.6
aa.(lp0
(lp1
I0
aI0
aI0
aI0
aI0
aI1
aI0
aI0
aI0
aI0
aF0.19
aF2.08
aI2
aI0
aI0
aI0
aI0
aI0
aI0
aI0
aI0
aI0
aI0
aI0
aI0
aI0
aI0
aI0
aI0
aI0
aI0
aI0
aI0
aI0
aI0
aI0
aI0
aF0.4
aa(lp2
I0
aI0
aI0
aI0
aI0
aI1
aI0
aI0
aI0
aI0
aF0.19
aF2.08
aI2
aI0
aI1
aI0
aI0
aI0
aF0.08
aF2.4
aI2
aI0
aI0
aI0
aI0
aI0
aI0
aI0
aI0
aI0
aI0
aI0
aI0
aI0
aI0
aI0
aI0
aF1.0
aa(lp3
I0
aI0
aI0
aI0
aI0
aI1
aI0
aI0
aI0
aI0
aF0.19
aF2.08
aI2
aI0
aI1
aI0
aI0
aI0
aF0.08
aF2.4
aI2
aI0
aI0
aI0
aI0
aI1
aF0.0
aF2.96
aI2
aI0
aI0
aI0
aI0
aI0
aI0
aI0
aI0
aF1.0
aa(lp4
I0
aI0
aI0
aI0
aI0
aI1
aI0
aI0
aI0
aI0
aF0.19
aF2.08
aI2
aI0
aI1
aI0
aI0
aI0
aF0.08
aF2.4
aI2
aI0
aI0
aI0
aI0
aI1
aF0.0
aF2.96
aI2
aI0
aI0
aI0
aI0
aI0
aI0
aI0
aI0
aF1.0
aa.(lp0
(lp1
I1
aI0
aI0
aI0
aI0
aI0
aI0
aI0
aI0
aI0
aF0.39
aF1.44
aI2
aI0
aI0
aI0
aI0
aI0
aI0
aI0
aI0
aI0
aI0
aI0
aI0
aI0
aI0
aI0
aI0
aI0
aI0
aI0
aI0
aI0
aI0
aI0
aI0
aF0.2
aa.(lp0
(lp1
I1
aI0
aI0
aI0
aI0
aI0
aI0
aI0
aI0
aI0
aF0.02
aF0.48
aI5
aI0
aI0
aI0
aI0
aI0
aI0
aI0
aI0
aI0
aI0
aI0
aI0
aI0
aI0
aI0
aI0
aI0
aI0
aI0
aI0
aI0
aI0
aI0
aI0
aF0.8
aa.(lp0
(lp1
I1
aI0
aI0
aI0
aI0
aI0
aI0
aI0
aI0
aI0
aF0.56
aF1.44
aI3
aI0
aI0
aI0
aI0
aI0
aI0
aI0
aI0
aI0
aI0
aI0
aI0
aI0
aI0
aI0
aI0
aI0
aI0
aI0
aI0
aI0
aI0
aI0
aI0
aF0.0
aa.(lp0
(lp1
I0
aI0
aI1
aI0
aI0
aI0
aI1
aI0
aI0
aI0
aF2.93
aF1.44
aI5
aI0
aI0
aI0
aI0
aI0
aI0
aI0
aI0
aI0
aI0
aI0
aI0
aI0
aI0
aI0
aI0
aI0
aI0
aI0
aI0
aI0
aI0
aI0
aI0
aF1.0
aa(lp2
I0
aI0
aI1
aI0
aI0
aI0
aI1
aI0
aI0
aI0
aF2.93
aF1.44
aI5
aI1
aI0
aI0
aI0
aI0
aF2.83
aF2.72
aI2
aI0
aI0
aI0
aI0
aI0
aI0
aI0
aI0
aI0
aI0
aI0
aI0
aI0
aI0
aI0
aI0
aF0.8
aa(lp3
I0
aI0
aI1
aI0
aI0
aI0
aI1
aI0
aI0
aI0
aF2.93
aF1.44
aI5
aI1
aI0
aI0
aI0
aI0
aF2.83
aF2.72
aI2
aI0
aI0
aI0
aI0
aI0
aF2.83
aF2.96
aI1
aI0
aI0
aI0
aI0
aI0
aI0
aI0
aI0
aF0.6
aa.(lp0
(lp1
I1
aI0
aI0
aI0
aI0
aI0
aI0
aI0
aI0
aI0
aF1.22
aF1.44
aI4
aI0
aI0
aI0
aI0
aI0
aI0
aI0
aI0
aI0
aI0
aI0
aI0
aI0
aI0
aI0
aI0
aI0
aI0
aI0
aI0
aI0
aI0
aI0
aI0
aF0.6
aa.(lp0
(lp1
I0
aI1
aI0
aI0
aI0
aI1
aI0
aI0
aI0
aI0
aF0.5
aF0.69
aI6
aI0
aI0
aI0
aI0
aI0
aI0
aI0
aI0
aI0
aI0
aI0
aI0
aI0
aI0
aI0
aI0
aI0
aI0
aI0
aI0
aI0
aI0
aI0
aI0
aF0.8
aa(lp2
I0
aI1
aI0
aI0
aI0
aI1
aI0
aI0
aI0
aI0
aF0.5
aF0.69
aI6
aI0
aI0
aI0
aI0
aI0
aF0.5
aF1.65
aI4
aI0
aI0
aI0
aI0
aI0
aI0
aI0
aI0
aI0
aI0
aI0
aI0
aI0
aI0
aI0
aI0
aF0.2
aa.(lp0
(lp1
I0
aI0
aI0
aI1
aI0
aI1
aI0
aI0
aI0
aI0
aF0.93
aF0.69
aI5
aI0
aI0
aI0
aI0
aI0
aI0
aI0
aI0
aI0
aI0
aI0
aI0
aI0
aI0
aI0
aI0
aI0
aI0
aI0
aI0
aI0
aI0
aI0
aI0
aF0.0
aa(lp2
I0
aI0
aI0
aI1
aI0
aI1
aI0
aI0
aI0
aI0
aF0.93
aF0.69
aI5
aI0
aI1
aI0
aI0
aI0
aF0.83
aF1.01
aI5
aI0
aI0
aI0
aI0
aI0
aI0
aI0
aI0
aI0
aI0
aI0
aI0
aI0
aI0
aI0
aI0
aF1.0
aa(lp3
I0
aI0
aI0
aI1
aI0
aI1
aI0
aI0
aI0
aI0
aF0.93
aF0.69
aI5
aI0
aI1
aI0
aI0
aI0
aF0.83
aF1.01
aI5
aI0
aI1
aI1
aI0
aI0
aF0.19
aF5.49
aI4
aI0
aI0
aI0
aI0
aI0
aI0
aI0
aI0
aF0.8
aa(lp4
I0
aI0
aI0
aI1
aI0
aI1
aI0
aI0
aI0
aI0
aF0.93
aF0.69
aI5
aI0
aI1
aI0
aI0
aI0
aF0.83
aF1.01
aI5
aI0
aI1
aI1
aI0
aI0
aF0.19
aF5.49
aI4
aI0
aI0
aI0
aI0
aI0
aF0.19
aF7.41
aI3
aF0.4
aa.(lp0
(lp1
I1
aI0
aI0
aI0
aI0
aI0
aI0
aI0
aI0
aI0
aF0.39
aF0.69
aI5
aI0
aI0
aI0
aI0
aI0
aI0
aI0
aI0
aI0
aI0
aI0
aI0
aI0
aI0
aI0
aI0
aI0
aI0
aI0
aI0
aI0
aI0
aI0
aI0
aF0.2
aa.(lp0
(lp1
I0
aI0
aI0
aI0
aI0
aI1
aI0
aI0
aI0
aI0
aF2.77
aF0.37
aI6
aI0
aI0
aI0
aI0
aI0
aI0
aI0
aI0
aI0
aI0
aI0
aI0
aI0
aI0
aI0
aI0
aI0
aI0
aI0
aI0
aI0
aI0
aI0
aI0
aF0.6
aa(lp2
I0
aI0
aI0
aI0
aI0
aI1
aI0
aI0
aI0
aI0
aF2.77
aF0.37
aI6
aI1
aI0
aI0
aI0
aI0
aF2.67
aF1.33
aI5
aI0
aI0
aI0
aI0
aI0
aI0
aI0
aI0
aI0
aI0
aI0
aI0
aI0
aI0
aI0
aI0
aF0.4
aa(lp3
I0
aI0
aI0
aI0
aI0
aI1
aI0
aI0
aI0
aI0
aF2.77
aF0.37
aI6
aI1
aI0
aI0
aI0
aI0
aF2.67
aF1.33
aI5
aI1
aI1
aI0
aI0
aI0
aF2.03
aF6.45
aI4
aI0
aI0
aI0
aI0
aI0
aI0
aI0
aI0
aF0.2
aa(lp4
I0
aI0
aI0
aI0
aI0
aI1
aI0
aI0
aI0
aI0
aF2.77
aF0.37
aI6
aI1
aI0
aI0
aI0
aI0
aF2.67
aF1.33
aI5
aI1
aI1
aI0
aI0
aI0
aF2.03
aF6.45
aI4
aI0
aI1
aI0
aI0
aI0
aF1.92
aF7.73
aI3
aF0.2
aa.(lp0
(lp1
I0
aI0
aI0
aI0
aI0
aI1
aI0
aI0
aI0
aI0
aF1.17
aF0.53
aI6
aI0
aI0
aI0
aI0
aI0
aI0
aI0
aI0
aI0
aI0
aI0
aI0
aI0
aI0
aI0
aI0
aI0
aI0
aI0
aI0
aI0
aI0
aI0
aI0
aF0.4
aa(lp2
I0
aI0
aI0
aI0
aI0
aI1
aI0
aI0
aI0
aI0
aF1.17
aF0.53
aI6
aI1
aI0
aI0
aI0
aI0
aF1.06
aF1.65
aI5
aI0
aI0
aI0
aI0
aI0
aI0
aI0
aI0
aI0
aI0
aI0
aI0
aI0
aI0
aI0
aI0
aF0.8
aa(lp3
I0
aI0
aI0
aI0
aI0
aI1
aI0
aI0
aI0
aI0
aF1.17
aF0.53
aI6
aI1
aI0
aI0
aI0
aI0
aF1.06
aF1.65
aI5
aI2
aI0
aI0
aI0
aI0
aF0.42
aF7.41
aI4
aI0
aI0
aI0
aI0
aI0
aI0
aI0
aI0
aF0.6
aa(lp4
I0
aI0
aI0
aI0
aI0
aI1
aI0
aI0
aI0
aI0
aF1.17
aF0.53
aI6
aI1
aI0
aI0
aI0
aI0
aF1.06
aF1.65
aI5
aI2
aI0
aI0
aI0
aI0
aF0.42
aF7.41
aI4
aI1
aI0
aI0
aI0
aI0
aF0.32
aF8.05
aI3
aF0.8
aa.(lp0
(lp1
I0
aI0
aI0
aI0
aI0
aI1
aI0
aI0
aI0
aI0
aF0.08
aF0.8
aI3
aI0
aI0
aI0
aI0
aI0
aI0
aI0
aI0
aI0
aI0
aI0
aI0
aI0
aI0
aI0
aI0
aI0
aI0
aI0
aI0
aI0
aI0
aI0
aI0
aF1.0
aa(lp2
I0
aI0
aI0
aI0
aI0
aI1
aI0
aI0
aI0
aI0
aF0.08
aF0.8
aI3
aI0
aI0
aI0
aI0
aI1
aF0.0
aF2.0
aI2
aI0
aI0
aI0
aI0
aI0
aI0
aI0
aI0
aI0
aI0
aI0
aI0
aI0
aI0
aI0
aI0
aF0.8
aa(lp3
I0
aI0
aI0
aI0
aI0
aI1
aI0
aI0
aI0
aI0
aF0.08
aF0.8
aI3
aI0
aI0
aI0
aI0
aI1
aF0.0
aF2.0
aI2
aI0
aI0
aI0
aI0
aI0
aI0
aI0
aI0
aI0
aI0
aI0
aI0
aI0
aI0
aI0
aI0
aF0.8
aa(lp4
I0
aI0
aI0
aI0
aI0
aI1
aI0
aI0
aI0
aI0
aF0.08
aF0.8
aI3
aI0
aI0
aI0
aI0
aI1
aF0.0
aF2.0
aI2
aI0
aI0
aI0
aI0
aI0
aI0
aI0
aI0
aI0
aI0
aI0
aI0
aI0
aI0
aI0
aI0
aF0.8
aa.(lp0
(lp1
I1
aI0
aI0
aI0
aI0
aI0
aI0
aI0
aI0
aI0
aF0.39
aF0.48
aI3
aI0
aI0
aI0
aI0
aI0
aI0
aI0
aI0
aI0
aI0
aI0
aI0
aI0
aI0
aI0
aI0
aI0
aI0
aI0
aI0
aI0
aI0
aI0
aI0
aF0.2
aa.(lp0
(lp1
I1
aI0
aI0
aI0
aI0
aI0
aI0
aI0
aI0
aI0
aF0.03
aF0.8
aI2
aI0
aI0
aI0
aI0
aI0
aI0
aI0
aI0
aI0
aI0
aI0
aI0
aI0
aI0
aI0
aI0
aI0
aI0
aI0
aI0
aI0
aI0
aI0
aI0
aF0.0
aa.(lp0
(lp1
I1
aI0
aI0
aI0
aI0
aI0
aI0
aI0
aI0
aI0
aF0.5
aF0.48
aI4
aI0
aI0
aI0
aI0
aI0
aI0
aI0
aI0
aI0
aI0
aI0
aI0
aI0
aI0
aI0
aI0
aI0
aI0
aI0
aI0
aI0
aI0
aI0
aI0
aF0.8
aa.(lp0
(lp1
I0
aI0
aI0
aI0
aI0
aI1
aI0
aI0
aI0
aI0
aF1.81
aF0.8
aI2
aI0
aI0
aI0
aI0
aI0
aI0
aI0
aI0
aI0
aI0
aI0
aI0
aI0
aI0
aI0
aI0
aI0
aI0
aI0
aI0
aI0
aI0
aI0
aI0
aF0.4
aa(lp2
I0
aI0
aI0
aI0
aI0
aI1
aI0
aI0
aI0
aI0
aF1.81
aF0.8
aI2
aI0
aI1
aI0
aI0
aI0
aF1.49
aF1.76
aI2
aI0
aI0
aI0
aI0
aI0
aI0
aI0
aI0
aI0
aI0
aI0
aI0
aI0
aI0
aI0
aI0
aF1.0
aa(lp3
I0
aI0
aI0
aI0
aI0
aI1
aI0
aI0
aI0
aI0
aF1.81
aF0.8
aI2
aI0
aI1
aI0
aI0
aI0
aF1.49
aF1.76
aI2
aI0
aI0
aI0
aI0
aI0
aI0
aI0
aI0
aI0
aI0
aI0
aI0
aI0
aI0
aI0
aI0
aF1.0
aa(lp4
I0
aI0
aI0
aI0
aI0
aI1
aI0
aI0
aI0
aI0
aF1.81
aF0.8
aI2
aI0
aI1
aI0
aI0
aI0
aF1.49
aF1.76
aI2
aI0
aI0
aI0
aI0
aI0
aI0
aI0
aI0
aI0
aI0
aI0
aI0
aI0
aI0
aI0
aI0
aF1.0
aa.(lp0
(lp1
I1
aI0
aI0
aI0
aI0
aI0
aI0
aI0
aI0
aI0
aF2.92
aF0.48
aI5
aI0
aI0
aI0
aI0
aI0
aI0
aI0
aI0
aI0
aI0
aI0
aI0
aI0
aI0
aI0
aI0
aI0
aI0
aI0
aI0
aI0
aI0
aI0
aI0
aF0.6
aa.(lp0
(lp1
I1
aI0
aI0
aI0
aI0
aI0
aI0
aI0
aI0
aI0
aF0.5
aF0.48
aI4
aI0
aI0
aI0
aI0
aI0
aI0
aI0
aI0
aI0
aI0
aI0
aI0
aI0
aI0
aI0
aI0
aI0
aI0
aI0
aI0
aI0
aI0
aI0
aI0
aF0.6
aa.(lp0
(lp1
I1
aI0
aI0
aI0
aI0
aI0
aI0
aI0
aI0
aI0
aF0.03
aF0.48
aI2
aI0
aI0
aI0
aI0
aI0
aI0
aI0
aI0
aI0
aI0
aI0
aI0
aI0
aI0
aI0
aI0
aI0
aI0
aI0
aI0
aI0
aI0
aI0
aI0
aF0.2
aa.(lp0
(lp1
I1
aI0
aI0
aI0
aI0
aI0
aI0
aI0
aI0
aI0
aF0.39
aF0.48
aI3
aI0
aI0
aI0
aI0
aI0
aI0
aI0
aI0
aI0
aI0
aI0
aI0
aI0
aI0
aI0
aI0
aI0
aI0
aI0
aI0
aI0
aI0
aI0
aI0
aF0.4
aa.(lp0
(lp1
I0
aI0
aI0
aI0
aI0
aI0
aI1
aI0
aI0
aI0
aF1.79
aF1.44
aI2
aI0
aI0
aI0
aI0
aI0
aI0
aI0
aI0
aI0
aI0
aI0
aI0
aI0
aI0
aI0
aI0
aI0
aI0
aI0
aI0
aI0
aI0
aI0
aI0
aF1.0
aa(lp2
I0
aI0
aI0
aI0
aI0
aI0
aI1
aI0
aI0
aI0
aF1.79
aF1.44
aI2
aI0
aI1
aI0
aI0
aI0
aF1.47
aF3.2
aI2
aI0
aI0
aI0
aI0
aI0
aI0
aI0
aI0
aI0
aI0
aI0
aI0
aI0
aI0
aI0
aI0
aF1.0
aa(lp3
I0
aI0
aI0
aI0
aI0
aI0
aI1
aI0
aI0
aI0
aF1.79
aF1.44
aI2
aI0
aI1
aI0
aI0
aI0
aF1.47
aF3.2
aI2
aI0
aI0
aI0
aI0
aI0
aI0
aI0
aI0
aI0
aI0
aI0
aI0
aI0
aI0
aI0
aI0
aF1.0
aa(lp4
I0
aI0
aI0
aI0
aI0
aI0
aI1
aI0
aI0
aI0
aF1.79
aF1.44
aI2
aI0
aI1
aI0
aI0
aI0
aF1.47
aF3.2
aI2
aI0
aI0
aI0
aI0
aI0
aI0
aI0
aI0
aI0
aI0
aI0
aI0
aI0
aI0
aI0
aI0
aF1.0
aa.(lp0
(lp1
I0
aI1
aI0
aI0
aI0
aI1
aI0
aI0
aI0
aI0
aF2.54
aF2.24
aI2
aI0
aI0
aI0
aI0
aI0
aI0
aI0
aI0
aI0
aI0
aI0
aI0
aI0
aI0
aI0
aI0
aI0
aI0
aI0
aI0
aI0
aI0
aI0
aI0
aF0.8
aa(lp2
I0
aI1
aI0
aI0
aI0
aI1
aI0
aI0
aI0
aI0
aF2.54
aF2.24
aI2
aI0
aI0
aI0
aI0
aI0
aF2.54
aF3.2
aI1
aI0
aI0
aI0
aI0
aI0
aI0
aI0
aI0
aI0
aI0
aI0
aI0
aI0
aI0
aI0
aI0
aF0.4
aa.(lp0
(lp1
I1
aI0
aI0
aI0
aI0
aI0
aI0
aI0
aI0
aI0
aF0.4
aF2.24
aI2
aI0
aI0
aI0
aI0
aI0
aI0
aI0
aI0
aI0
aI0
aI0
aI0
aI0
aI0
aI0
aI0
aI0
aI0
aI0
aI0
aI0
aI0
aI0
aI0
aF0.4
aa.(lp0
(lp1
I1
aI0
aI0
aI0
aI0
aI0
aI0
aI0
aI0
aI0
aF0.03
aF0.48
aI3
aI0
aI0
aI0
aI0
aI0
aI0
aI0
aI0
aI0
aI0
aI0
aI0
aI0
aI0
aI0
aI0
aI0
aI0
aI0
aI0
aI0
aI0
aI0
aI0
aF0.8
aa.(lp0
(lp1
I1
aI0
aI0
aI0
aI0
aI0
aI0
aI0
aI0
aI0
aF0.39
aF0.48
aI4
aI0
aI0
aI0
aI0
aI0
aI0
aI0
aI0
aI0
aI0
aI0
aI0
aI0
aI0
aI0
aI0
aI0
aI0
aI0
aI0
aI0
aI0
aI0
aI0
aF0.6
aa.(lp0
(lp1
I0
aI1
aI0
aI0
aI0
aI0
aI1
aI0
aI0
aI0
aF2.21
aF1.44
aI3
aI0
aI0
aI0
aI0
aI0
aI0
aI0
aI0
aI0
aI0
aI0
aI0
aI0
aI0
aI0
aI0
aI0
aI0
aI0
aI0
aI0
aI0
aI0
aI0
aF1.0
aa(lp2
I0
aI1
aI0
aI0
aI0
aI0
aI1
aI0
aI0
aI0
aF2.21
aF1.44
aI3
aI0
aI0
aI0
aI0
aI0
aF2.21
aF2.56
aI1
aI0
aI0
aI0
aI0
aI0
aI0
aI0
aI0
aI0
aI0
aI0
aI0
aI0
aI0
aI0
aI0
aF0.4
aa.(lp0
(lp1
I0
aI0
aI0
aI0
aI0
aI1
aI0
aI0
aI0
aI0
aF2.22
aF2.24
aI3
aI0
aI0
aI0
aI0
aI0
aI0
aI0
aI0
aI0
aI0
aI0
aI0
aI0
aI0
aI0
aI0
aI0
aI0
aI0
aI0
aI0
aI0
aI0
aI0
aF0.2
aa(lp2
I0
aI0
aI0
aI0
aI0
aI1
aI0
aI0
aI0
aI0
aF2.22
aF2.24
aI3
aI0
aI1
aI0
aI0
aI0
aF2.12
aF2.56
aI2
aI0
aI0
aI0
aI0
aI0
aI0
aI0
aI0
aI0
aI0
aI0
aI0
aI0
aI0
aI0
aI0
aF0.8
aa(lp3
I0
aI0
aI0
aI0
aI0
aI1
aI0
aI0
aI0
aI0
aF2.22
aF2.24
aI3
aI0
aI1
aI0
aI0
aI0
aF2.12
aF2.56
aI2
aI0
aI0
aI0
aI0
aI0
aI0
aI0
aI0
aI0
aI0
aI0
aI0
aI0
aI0
aI0
aI0
aF0.8
aa(lp4
I0
aI0
aI0
aI0
aI0
aI1
aI0
aI0
aI0
aI0
aF2.22
aF2.24
aI3
aI0
aI1
aI0
aI0
aI0
aF2.12
aF2.56
aI2
aI0
aI0
aI0
aI0
aI0
aI0
aI0
aI0
aI0
aI0
aI0
aI0
aI0
aI0
aI0
aI0
aF0.8
aa.(lp0
(lp1
I1
aI0
aI0
aI0
aI0
aI0
aI0
aI0
aI0
aI0
aF0.29
aF1.05
aI4
aI0
aI0
aI0
aI0
aI0
aI0
aI0
aI0
aI0
aI0
aI0
aI0
aI0
aI0
aI0
aI0
aI0
aI0
aI0
aI0
aI0
aI0
aI0
aI0
aF1.0
aa.(lp0
(lp1
I1
aI0
aI0
aI0
aI0
aI0
aI0
aI0
aI0
aI0
aF0.07
aF1.05
aI3
aI0
aI0
aI0
aI0
aI0
aI0
aI0
aI0
aI0
aI0
aI0
aI0
aI0
aI0
aI0
aI0
aI0
aI0
aI0
aI0
aI0
aI0
aI0
aI0
aF0.2
aa.(lp0
(lp1
I0
aI0
aI0
aI0
aI0
aI1
aI0
aI0
aI0
aI0
aF2.43
aF0.73
aI5
aI0
aI0
aI0
aI0
aI0
aI0
aI0
aI0
aI0
aI0
aI0
aI0
aI0
aI0
aI0
aI0
aI0
aI0
aI0
aI0
aI0
aI0
aI0
aI0
aF0.4
aa(lp2
I0
aI0
aI0
aI0
aI0
aI1
aI0
aI0
aI0
aI0
aF2.43
aF0.73
aI5
aI0
aI1
aI0
aI0
aI0
aF1.79
aF2.97
aI3
aI0
aI0
aI0
aI0
aI0
aI0
aI0
aI0
aI0
aI0
aI0
aI0
aI0
aI0
aI0
aI0
aF1.0
aa(lp3
I0
aI0
aI0
aI0
aI0
aI1
aI0
aI0
aI0
aI0
aF2.43
aF0.73
aI5
aI0
aI1
aI0
aI0
aI0
aF1.79
aF2.97
aI3
aI0
aI0
aI0
aI0
aI0
aI0
aI0
aI0
aI0
aI0
aI0
aI0
aI0
aI0
aI0
aI0
aF1.0
aa(lp4
I0
aI0
aI0
aI0
aI0
aI1
aI0
aI0
aI0
aI0
aF2.43
aF0.73
aI5
aI0
aI1
aI0
aI0
aI0
aF1.79
aF2.97
aI3
aI0
aI0
aI0
aI0
aI0
aI0
aI0
aI0
aI0
aI0
aI0
aI0
aI0
aI0
aI0
aI0
aF1.0
aa.(lp0
(lp1
I0
aI1
aI0
aI0
aI0
aI1
aI0
aI0
aI0
aI0
aF2.86
aF1.05
aI5
aI0
aI0
aI0
aI0
aI0
aI0
aI0
aI0
aI0
aI0
aI0
aI0
aI0
aI0
aI0
aI0
aI0
aI0
aI0
aI0
aI0
aI0
aI0
aI0
aF0.8
aa(lp2
I0
aI1
aI0
aI0
aI0
aI1
aI0
aI0
aI0
aI0
aF2.86
aF1.05
aI5
aI0
aI0
aI0
aI0
aI0
aF2.86
aF2.97
aI2
aI0
aI0
aI0
aI0
aI0
aI0
aI0
aI0
aI0
aI0
aI0
aI0
aI0
aI0
aI0
aI0
aF0.4
aa.(lp0
(lp1
I1
aI0
aI0
aI0
aI0
aI0
aI0
aI0
aI0
aI0
aF0.29
aF0.96
aI3
aI0
aI0
aI0
aI0
aI0
aI0
aI0
aI0
aI0
aI0
aI0
aI0
aI0
aI0
aI0
aI0
aI0
aI0
aI0
aI0
aI0
aI0
aI0
aI0
aF0.4
aa.(lp0
(lp1
I1
aI0
aI0
aI0
aI0
aI0
aI0
aI0
aI0
aI0
aF0.07
aF0.96
aI2
aI0
aI0
aI0
aI0
aI0
aI0
aI0
aI0
aI0
aI0
aI0
aI0
aI0
aI0
aI0
aI0
aI0
aI0
aI0
aI0
aI0
aI0
aI0
aI0
aF1.0
aa.(lp0
(lp1
I0
aI1
aI0
aI0
aI0
aI1
aI0
aI0
aI0
aI0
aF2.56
aF1.28
aI2
aI0
aI0
aI0
aI0
aI0
aI0
aI0
aI0
aI0
aI0
aI0
aI0
aI0
aI0
aI0
aI0
aI0
aI0
aI0
aI0
aI0
aI0
aI0
aI0
aF0.6
aa(lp2
I0
aI1
aI0
aI0
aI0
aI1
aI0
aI0
aI0
aI0
aF2.56
aF1.28
aI2
aI0
aI0
aI0
aI0
aI0
aF2.56
aF1.28
aI1
aI0
aI0
aI0
aI0
aI0
aI0
aI0
aI0
aI0
aI0
aI0
aI0
aI0
aI0
aI0
aI0
aF0.4
aa.(lp0
(lp1
I0
aI0
aI0
aI0
aI0
aI1
aI0
aI0
aI0
aI0
aF2.65
aF1.28
aI2
aI0
aI0
aI0
aI0
aI0
aI0
aI0
aI0
aI0
aI0
aI0
aI0
aI0
aI0
aI0
aI0
aI0
aI0
aI0
aI0
aI0
aI0
aI0
aI0
aF0.8
aa(lp2
I0
aI0
aI0
aI0
aI0
aI1
aI0
aI0
aI0
aI0
aF2.65
aF1.28
aI2
aI1
aI0
aI0
aI0
aI0
aF2.65
aF1.28
aI1
aI0
aI0
aI0
aI0
aI0
aI0
aI0
aI0
aI0
aI0
aI0
aI0
aI0
aI0
aI0
aI0
aF0.8
aa(lp3
I0
aI0
aI0
aI0
aI0
aI1
aI0
aI0
aI0
aI0
aF2.65
aF1.28
aI2
aI1
aI0
aI0
aI0
aI0
aF2.65
aF1.28
aI1
aI0
aI0
aI0
aI0
aI0
aI0
aI0
aI0
aI0
aI0
aI0
aI0
aI0
aI0
aI0
aI0
aF0.8
aa(lp4
I0
aI0
aI0
aI0
aI0
aI1
aI0
aI0
aI0
aI0
aF2.65
aF1.28
aI2
aI1
aI0
aI0
aI0
aI0
aF2.65
aF1.28
aI1
aI0
aI0
aI0
aI0
aI0
aI0
aI0
aI0
aI0
aI0
aI0
aI0
aI0
aI0
aI0
aI0
aF0.8
aa.(lp0
(lp1
I0
aI1
aI0
aI0
aI0
aI1
aI0
aI0
aI0
aI0
aF0.08
aF1.92
aI3
aI0
aI0
aI0
aI0
aI0
aI0
aI0
aI0
aI0
aI0
aI0
aI0
aI0
aI0
aI0
aI0
aI0
aI0
aI0
aI0
aI0
aI0
aI0
aI0
aF1.0
aa(lp2
I0
aI1
aI0
aI0
aI0
aI1
aI0
aI0
aI0
aI0
aF0.08
aF1.92
aI3
aI0
aI0
aI0
aI0
aI0
aF0.08
aF10.51
aI2
aI0
aI0
aI0
aI0
aI0
aI0
aI0
aI0
aI0
aI0
aI0
aI0
aI0
aI0
aI0
aI0
aF0.8
aa.(lp0
(lp1
I1
aI0
aI0
aI0
aI0
aI0
aI0
aI0
aI0
aI0
aF0.07
aF0.96
aI3
aI0
aI0
aI0
aI0
aI0
aI0
aI0
aI0
aI0
aI0
aI0
aI0
aI0
aI0
aI0
aI0
aI0
aI0
aI0
aI0
aI0
aI0
aI0
aI0
aF0.6
aa.(lp0
(lp1
I0
aI1
aI0
aI0
aI0
aI1
aI0
aI0
aI0
aI0
aF2.35
aF1.6
aI3
aI0
aI0
aI0
aI0
aI0
aI0
aI0
aI0
aI0
aI0
aI0
aI0
aI0
aI0
aI0
aI0
aI0
aI0
aI0
aI0
aI0
aI0
aI0
aI0
aF0.4
aa(lp2
I0
aI1
aI0
aI0
aI0
aI1
aI0
aI0
aI0
aI0
aF2.35
aF1.6
aI3
aI0
aI0
aI0
aI0
aI0
aF2.35
aF10.51
aI1
aI0
aI0
aI0
aI0
aI0
aI0
aI0
aI0
aI0
aI0
aI0
aI0
aI0
aI0
aI0
aI0
aF0.4
aa.(lp0
(lp1
I0
aI0
aI0
aI0
aI0
aI1
aI0
aI0
aI0
aI0
aF2.86
aF1.92
aI3
aI0
aI0
aI0
aI0
aI0
aI0
aI0
aI0
aI0
aI0
aI0
aI0
aI0
aI0
aI0
aI0
aI0
aI0
aI0
aI0
aI0
aI0
aI0
aI0
aF0.8
aa(lp2
I0
aI0
aI0
aI0
aI0
aI1
aI0
aI0
aI0
aI0
aF2.86
aF1.92
aI3
aI0
aI0
aI0
aI0
aI1
aF0.0
aF10.51
aI3
aI0
aI0
aI0
aI0
aI0
aI0
aI0
aI0
aI0
aI0
aI0
aI0
aI0
aI0
aI0
aI0
aF1.0
aa(lp3
I0
aI0
aI0
aI0
aI0
aI1
aI0
aI0
aI0
aI0
aF2.86
aF1.92
aI3
aI0
aI0
aI0
aI0
aI1
aF0.0
aF10.51
aI3
aI0
aI0
aI0
aI0
aI0
aI0
aI0
aI0
aI0
aI0
aI0
aI0
aI0
aI0
aI0
aI0
aF1.0
aa(lp4
I0
aI0
aI0
aI0
aI0
aI1
aI0
aI0
aI0
aI0
aF2.86
aF1.92
aI3
aI0
aI0
aI0
aI0
aI1
aF0.0
aF10.51
aI3
aI0
aI0
aI0
aI0
aI0
aI0
aI0
aI0
aI0
aI0
aI0
aI0
aI0
aI0
aI0
aI0
aF1.0
aa.