(lp0
(lp1
I0
aI1
aI0
aI0
aI0
aI1
aI0
aI0
aI0
aI0
aF2.0933333333333333
aF0.56
aI3
aI0
aI0
aI0
aI0
aI0
aI0
aI0
aI0
aI0
aI0
aI0
aI0
aI0
aI0
aI0
aI0
aI0
aI0
aI0
aI0
aI0
aI0
aI0
aI0
aF0.75
aa.(lp0
(lp1
I1
aI0
aI0
aI0
aI0
aI0
aI0
aI0
aI0
aI0
aF1.43
aF0.56
aI3
aI0
aI0
aI0
aI0
aI0
aI0
aI0
aI0
aI0
aI0
aI0
aI0
aI0
aI0
aI0
aI0
aI0
aI0
aI0
aI0
aI0
aI0
aI0
aI0
aF1.0
aa.(lp0
(lp1
I0
aI1
aI0
aI0
aI0
aI1
aI0
aI0
aI0
aI0
aF0.82
aF0.56
aI4
aI0
aI0
aI0
aI0
aI0
aI0
aI0
aI0
aI0
aI0
aI0
aI0
aI0
aI0
aI0
aI0
aI0
aI0
aI0
aI0
aI0
aI0
aI0
aI0
aF0.25
aa.(lp0
(lp1
I0
aI0
aI0
aI0
aI0
aI1
aI0
aI0
aI0
aI0
aF0.47
aF0.4
aI4
aI0
aI0
aI0
aI0
aI0
aI0
aI0
aI0
aI0
aI0
aI0
aI0
aI0
aI0
aI0
aI0
aI0
aI0
aI0
aI0
aI0
aI0
aI0
aI0
aF0.5
aa.(lp0
(lp1
I1
aI0
aI0
aI0
aI0
aI0
aI0
aI0
aI0
aI0
aF2.066666666666667
aF0.56
aI3
aI0
aI0
aI0
aI0
aI0
aI0
aI0
aI0
aI0
aI0
aI0
aI0
aI0
aI0
aI0
aI0
aI0
aI0
aI0
aI0
aI0
aI0
aI0
aI0
aF0.75
aa.(lp0
(lp1
I0
aI0
aI0
aI0
aI0
aI1
aI0
aI0
aI0
aI0
aF1.3766666666666667
aF0.56
aI4
aI0
aI0
aI0
aI0
aI0
aI0
aI0
aI0
aI0
aI0
aI0
aI0
aI0
aI0
aI0
aI0
aI0
aI0
aI0
aI0
aI0
aI0
aI0
aI0
aF0.25
aa.(lp0
(lp1
I0
aI0
aI1
aI0
aI0
aI1
aI0
aI0
aI0
aI0
aF0.7666666666666667
aF0.4
aI4
aI0
aI0
aI0
aI0
aI0
aI0
aI0
aI0
aI0
aI0
aI0
aI0
aI0
aI0
aI0
aI0
aI0
aI0
aI0
aI0
aI0
aI0
aI0
aI0
aF0.5
aa.(lp0
(lp1
I0
aI1
aI0
aI0
aI0
aI1
aI0
aI0
aI0
aI0
aF0.6033333333333334
aF0.56
aI3
aI0
aI0
aI0
aI0
aI0
aI0
aI0
aI0
aI0
aI0
aI0
aI0
aI0
aI0
aI0
aI0
aI0
aI0
aI0
aI0
aI0
aI0
aI0
aI0
aF1.0
aa.(lp0
(lp1
I1
aI0
aI0
aI0
aI0
aI0
aI0
aI0
aI0
aI0
aF2.066666666666667
aF0.48
aI2
aI0
aI0
aI0
aI0
aI0
aI0
aI0
aI0
aI0
aI0
aI0
aI0
aI0
aI0
aI0
aI0
aI0
aI0
aI0
aI0
aI0
aI0
aI0
aI0
aF0.5
aa.(lp0
(lp1
I1
aI0
aI0
aI0
aI0
aI0
aI0
aI0
aI0
aI0
aF1.6166666666666667
aF0.48
aI3
aI0
aI0
aI0
aI0
aI0
aI0
aI0
aI0
aI0
aI0
aI0
aI0
aI0
aI0
aI0
aI0
aI0
aI0
aI0
aI0
aI0
aI0
aI0
aI0
aF1.0
aa.(lp0
(lp1
I0
aI1
aI0
aI0
aI0
aI1
aI0
aI0
aI0
aI0
aF0.6066666666666667
aF0.64
aI2
aI0
aI0
aI0
aI0
aI0
aI0
aI0
aI0
aI0
aI0
aI0
aI0
aI0
aI0
aI0
aI0
aI0
aI0
aI0
aI0
aI0
aI0
aI0
aI0
aF0.25
aa.(lp0
(lp1
I0
aI0
aI0
aI0
aI0
aI1
aI0
aI0
aI0
aI0
aF0.49666666666666665
aF0.64
aI2
aI0
aI0
aI0
aI0
aI0
aI0
aI0
aI0
aI0
aI0
aI0
aI0
aI0
aI0
aI0
aI0
aI0
aI0
aI0
aI0
aI0
aI0
aI0
aI0
aF0.75
aa.(lp0
(lp1
I0
aI0
aI0
aI0
aI0
aI1
aI0
aI0
aI0
aI0
aF1.7466666666666666
aF3.2
aI4
aI0
aI0
aI0
aI0
aI0
aI0
aI0
aI0
aI0
aI0
aI0
aI0
aI0
aI0
aI0
aI0
aI0
aI0
aI0
aI0
aI0
aI0
aI0
aI0
aF1.0
aa.(lp0
(lp1
I0
aI1
aI0
aI0
aI0
aI1
aI0
aI0
aI0
aI0
aF1.19
aF2.56
aI4
aI0
aI0
aI0
aI0
aI0
aI0
aI0
aI0
aI0
aI0
aI0
aI0
aI0
aI0
aI0
aI0
aI0
aI0
aI0
aI0
aI0
aI0
aI0
aI0
aF0.5
aa.(lp0
(lp1
I0
aI1
aI0
aI0
aI0
aI0
aI1
aI0
aI0
aI0
aF0.5
aF1.76
aI4
aI0
aI0
aI0
aI0
aI0
aI0
aI0
aI0
aI0
aI0
aI0
aI0
aI0
aI0
aI0
aI0
aI0
aI0
aI0
aI0
aI0
aI0
aI0
aI0
aF0.75
aa.(lp0
(lp1
I0
aI0
aI0
aI0
aI0
aI2
aI0
aI0
aI0
aI0
aF0.2833333333333333
aF3.84
aI4
aI0
aI0
aI0
aI0
aI0
aI0
aI0
aI0
aI0
aI0
aI0
aI0
aI0
aI0
aI0
aI0
aI0
aI0
aI0
aI0
aI0
aI0
aI0
aI0
aF0.25
aa.(lp0
(lp1
I1
aI0
aI0
aI0
aI0
aI0
aI0
aI0
aI0
aI0
aF1.41
aF1.12
aI3
aI0
aI0
aI0
aI0
aI0
aI0
aI0
aI0
aI0
aI0
aI0
aI0
aI0
aI0
aI0
aI0
aI0
aI0
aI0
aI0
aI0
aI0
aI0
aI0
aF0.75
aa.(lp0
(lp1
I0
aI0
aI1
aI0
aI0
aI1
aI0
aI0
aI0
aI0
aF1.0833333333333333
aF1.12
aI4
aI0
aI0
aI0
aI0
aI0
aI0
aI0
aI0
aI0
aI0
aI0
aI0
aI0
aI0
aI0
aI0
aI0
aI0
aI0
aI0
aI0
aI0
aI0
aI0
aF0.5
aa.(lp0
(lp1
I0
aI0
aI0
aI0
aI0
aI1
aI0
aI0
aI0
aI0
aF0.3933333333333333
aF0.8
aI4
aI0
aI0
aI0
aI0
aI0
aI0
aI0
aI0
aI0
aI0
aI0
aI0
aI0
aI0
aI0
aI0
aI0
aI0
aI0
aI0
aI0
aI0
aI0
aI0
aF0.25
aa.(lp0
(lp1
I0
aI1
aI0
aI0
aI0
aI1
aI0
aI0
aI0
aI0
aF1.74
aF1.12
aI3
aI0
aI0
aI0
aI0
aI0
aI0
aI0
aI0
aI0
aI0
aI0
aI0
aI0
aI0
aI0
aI0
aI0
aI0
aI0
aI0
aI0
aI0
aI0
aI0
aF1.0
aa.(lp0
(lp1
I0
aI0
aI0
aI1
aI0
aI1
aI0
aI0
aI0
aI0
aF1.1966666666666668
aF2.24
aI4
aI0
aI0
aI0
aI0
aI0
aI0
aI0
aI0
aI0
aI0
aI0
aI0
aI0
aI0
aI0
aI0
aI0
aI0
aI0
aI0
aI0
aI0
aI0
aI0
aF0.25
aa.(lp0
(lp1
I0
aI1
aI0
aI0
aI0
aI1
aI0
aI0
aI0
aI0
aF0.7633333333333333
aF1.6
aI4
aI0
aI0
aI0
aI0
aI0
aI0
aI0
aI0
aI0
aI0
aI0
aI0
aI0
aI0
aI0
aI0
aI0
aI0
aI0
aI0
aI0
aI0
aI0
aI0
aF0.5
aa.(lp0
(lp1
I0
aI1
aI0
aI0
aI0
aI1
aI0
aI0
aI0
aI0
aF0.66
aF2.56
aI4
aI0
aI0
aI0
aI0
aI0
aI0
aI0
aI0
aI0
aI0
aI0
aI0
aI0
aI0
aI0
aI0
aI0
aI0
aI0
aI0
aI0
aI0
aI0
aI0
aF1.0
aa.(lp0
(lp1
I0
aI0
aI0
aI0
aI0
aI1
aI0
aI0
aI0
aI0
aF1.5266666666666666
aF2.56
aI4
aI0
aI0
aI0
aI0
aI0
aI0
aI0
aI0
aI0
aI0
aI0
aI0
aI0
aI0
aI0
aI0
aI0
aI0
aI0
aI0
aI0
aI0
aI0
aI0
aF0.75
aa.(lp0
(lp1
I1
aI0
aI0
aI0
aI0
aI0
aI0
aI0
aI0
aI0
aF0.5206666666666667
aF0.96
aI3
aI0
aI0
aI0
aI0
aI0
aI0
aI0
aI0
aI0
aI0
aI0
aI0
aI0
aI0
aI0
aI0
aI0
aI0
aI0
aI0
aI0
aI0
aI0
aI0
aF1.0
aa.(lp0
(lp1
I0
aI1
aI0
aI0
aI0
aI1
aI0
aI0
aI0
aI0
aF0.10333333333333333
aF4.6
aI3
aI0
aI0
aI0
aI0
aI0
aI0
aI0
aI0
aI0
aI0
aI0
aI0
aI0
aI0
aI0
aI0
aI0
aI0
aI0
aI0
aI0
aI0
aI0
aI0
aF0.75
aa.(lp0
(lp1
I0
aI0
aI0
aI0
aI0
aI0
aI0
aI0
aI0
aI1
aF0.0
aF3.26
aI3
aI0
aI0
aI0
aI0
aI0
aI0
aI0
aI0
aI0
aI0
aI0
aI0
aI0
aI0
aI0
aI0
aI0
aI0
aI0
aI0
aI0
aI0
aI0
aI0
aF0.25
aa.(lp0
(lp1
I0
aI0
aI0
aI0
aI0
aI2
aI0
aI0
aI0
aI0
aF2.396
aF5.94
aI3
aI0
aI0
aI0
aI0
aI0
aI0
aI0
aI0
aI0
aI0
aI0
aI0
aI0
aI0
aI0
aI0
aI0
aI0
aI0
aI0
aI0
aI0
aI0
aI0
aF0.5
aa.(lp0
(lp1
I1
aI0
aI0
aI0
aI0
aI0
aI0
aI0
aI0
aI0
aF0.20066666666666666
aF1.6
aI2
aI0
aI0
aI0
aI0
aI0
aI0
aI0
aI0
aI0
aI0
aI0
aI0
aI0
aI0
aI0
aI0
aI0
aI0
aI0
aI0
aI0
aI0
aI0
aI0
aF1.0
aa.(lp0
(lp1
I1
aI0
aI0
aI0
aI0
aI0
aI0
aI0
aI0
aI0
aF0.41333333333333333
aF1.6
aI3
aI0
aI0
aI0
aI0
aI0
aI0
aI0
aI0
aI0
aI0
aI0
aI0
aI0
aI0
aI0
aI0
aI0
aI0
aI0
aI0
aI0
aI0
aI0
aI0
aF0.75
aa.(lp0
(lp1
I0
aI0
aI0
aI0
aI0
aI1
aI0
aI0
aI0
aI0
aF1.8833333333333333
aF1.6
aI4
aI0
aI0
aI0
aI0
aI0
aI0
aI0
aI0
aI0
aI0
aI0
aI0
aI0
aI0
aI0
aI0
aI0
aI0
aI0
aI0
aI0
aI0
aI0
aI0
aF0.5
aa.(lp0
(lp1
I0
aI1
aI0
aI0
aI0
aI1
aI0
aI0
aI0
aI0
aF1.9693333333333334
aF1.6
aI2
aI0
aI0
aI0
aI0
aI0
aI0
aI0
aI0
aI0
aI0
aI0
aI0
aI0
aI0
aI0
aI0
aI0
aI0
aI0
aI0
aI0
aI0
aI0
aI0
aF0.25
aa.(lp0
(lp1
I1
aI0
aI0
aI0
aI0
aI0
aI0
aI0
aI0
aI0
aF0.20066666666666666
aF1.92
aI2
aI0
aI0
aI0
aI0
aI0
aI0
aI0
aI0
aI0
aI0
aI0
aI0
aI0
aI0
aI0
aI0
aI0
aI0
aI0
aI0
aI0
aI0
aI0
aI0
aF0.75
aa.(lp0
(lp1
I1
aI0
aI0
aI0
aI0
aI0
aI0
aI0
aI0
aI0
aF0.41333333333333333
aF1.92
aI3
aI0
aI0
aI0
aI0
aI0
aI0
aI0
aI0
aI0
aI0
aI0
aI0
aI0
aI0
aI0
aI0
aI0
aI0
aI0
aI0
aI0
aI0
aI0
aI0
aF1.0
aa.(lp0
(lp1
I0
aI0
aI0
aI0
aI0
aI0
aI1
aI0
aI0
aI0
aF0.9233333333333333
aF6.4
aI2
aI0
aI0
aI0
aI0
aI0
aI0
aI0
aI0
aI0
aI0
aI0
aI0
aI0
aI0
aI0
aI0
aI0
aI0
aI0
aI0
aI0
aI0
aI0
aI0
aF0.5
aa.(lp0
(lp1
I0
aI0
aI0
aI0
aI0
aI2
aI0
aI0
aI0
aI0
aF0.04933333333333333
aF10.24
aI2
aI0
aI0
aI0
aI0
aI0
aI0
aI0
aI0
aI0
aI0
aI0
aI0
aI0
aI0
aI0
aI0
aI0
aI0
aI0
aI0
aI0
aI0
aI0
aI0
aF0.25
aa.(lp0
(lp1
I1
aI0
aI0
aI0
aI0
aI0
aI0
aI0
aI0
aI0
aF1.0
aF0.03
aI7
aI0
aI0
aI0
aI0
aI0
aI0
aI0
aI0
aI0
aI0
aI0
aI0
aI0
aI0
aI0
aI0
aI0
aI0
aI0
aI0
aI0
aI0
aI0
aI0
aF1.0
aa.(lp0
(lp1
I0
aI0
aI0
aI0
aI0
aI1
aI0
aI0
aI0
aI0
aF0.9933333333333333
aF0.07
aI5
aI0
aI0
aI0
aI0
aI0
aI0
aI0
aI0
aI0
aI0
aI0
aI0
aI0
aI0
aI0
aI0
aI0
aI0
aI0
aI0
aI0
aI0
aI0
aI0
aF0.5714285714285714
aa.(lp0
(lp1
I0
aI1
aI0
aI0
aI0
aI1
aI0
aI0
aI0
aI0
aF0.9933333333333333
aF0.1
aI5
aI0
aI0
aI0
aI0
aI0
aI0
aI0
aI0
aI0
aI0
aI0
aI0
aI0
aI0
aI0
aI0
aI0
aI0
aI0
aI0
aI0
aI0
aI0
aI0
aF0.8571428571428571
aa.(lp0
(lp1
I1
aI0
aI0
aI0
aI0
aI0
aI0
aI0
aI0
aI0
aF1.0
aF0.03
aI6
aI0
aI0
aI0
aI0
aI0
aI0
aI0
aI0
aI0
aI0
aI0
aI0
aI0
aI0
aI0
aI0
aI0
aI0
aI0
aI0
aI0
aI0
aI0
aI0
aF0.14285714285714285
aa.(lp0
(lp1
I1
aI0
aI0
aI0
aI0
aI0
aI0
aI0
aI0
aI0
aF1.0
aF0.05
aI5
aI0
aI0
aI0
aI0
aI0
aI0
aI0
aI0
aI0
aI0
aI0
aI0
aI0
aI0
aI0
aI0
aI0
aI0
aI0
aI0
aI0
aI0
aI0
aI0
aF0.7142857142857143
aa.(lp0
(lp1
I0
aI1
aI0
aI0
aI0
aI1
aI0
aI0
aI0
aI0
aF0.9933333333333333
aF0.1
aI5
aI0
aI0
aI0
aI0
aI0
aI0
aI0
aI0
aI0
aI0
aI0
aI0
aI0
aI0
aI0
aI0
aI0
aI0
aI0
aI0
aI0
aI0
aI0
aI0
aF0.42857142857142855
aa.(lp0
(lp1
I0
aI1
aI0
aI0
aI0
aI1
aI0
aI0
aI0
aI0
aF0.9933333333333333
aF0.05
aI6
aI0
aI0
aI0
aI0
aI0
aI0
aI0
aI0
aI0
aI0
aI0
aI0
aI0
aI0
aI0
aI0
aI0
aI0
aI0
aI0
aI0
aI0
aI0
aI0
aF0.0
aa.(lp0
(lp1
I0
aI1
aI0
aI0
aI0
aI1
aI0
aI0
aI0
aI0
aF0.9933333333333333
aF0.09
aI5
aI0
aI0
aI0
aI0
aI0
aI0
aI0
aI0
aI0
aI0
aI0
aI0
aI0
aI0
aI0
aI0
aI0
aI0
aI0
aI0
aI0
aI0
aI0
aI0
aF0.2857142857142857
aa.(lp0
(lp1
I1
aI0
aI0
aI0
aI0
aI0
aI0
aI0
aI0
aI0
aF0.9933333333333333
aF0.278
aI4
aI0
aI0
aI0
aI0
aI0
aI0
aI0
aI0
aI0
aI0
aI0
aI0
aI0
aI0
aI0
aI0
aI0
aI0
aI0
aI0
aI0
aI0
aI0
aI0
aF0.8571428571428571
aa.(lp0
(lp1
I0
aI0
aI0
aI0
aI0
aI1
aI0
aI0
aI0
aI0
aF1.006
aF0.216
aI7
aI0
aI0
aI0
aI0
aI0
aI0
aI0
aI0
aI0
aI0
aI0
aI0
aI0
aI0
aI0
aI0
aI0
aI0
aI0
aI0
aI0
aI0
aI0
aI0
aF1.0
aa.(lp0
(lp1
I0
aI1
aI0
aI0
aI0
aI1
aI0
aI0
aI0
aI0
aF0.9726666666666667
aF0.278
aI6
aI0
aI0
aI0
aI0
aI0
aI0
aI0
aI0
aI0
aI0
aI0
aI0
aI0
aI0
aI0
aI0
aI0
aI0
aI0
aI0
aI0
aI0
aI0
aI0
aF0.5714285714285714
aa.(lp0
(lp1
I0
aI1
aI0
aI0
aI0
aI0
aI1
aI0
aI0
aI0
aF0.9793333333333333
aF0.092
aI8
aI0
aI0
aI0
aI0
aI0
aI0
aI0
aI0
aI0
aI0
aI0
aI0
aI0
aI0
aI0
aI0
aI0
aI0
aI0
aI0
aI0
aI0
aI0
aI0
aF0.0
aa.(lp0
(lp1
I1
aI0
aI0
aI0
aI0
aI0
aI0
aI0
aI0
aI0
aF1.0
aF0.154
aI7
aI0
aI0
aI0
aI0
aI0
aI0
aI0
aI0
aI0
aI0
aI0
aI0
aI0
aI0
aI0
aI0
aI0
aI0
aI0
aI0
aI0
aI0
aI0
aI0
aF0.14285714285714285
aa.(lp0
(lp1
I1
aI0
aI0
aI0
aI0
aI0
aI0
aI0
aI0
aI0
aF0.99
aF0.278
aI5
aI0
aI0
aI0
aI0
aI0
aI0
aI0
aI0
aI0
aI0
aI0
aI0
aI0
aI0
aI0
aI0
aI0
aI0
aI0
aI0
aI0
aI0
aI0
aI0
aF0.2857142857142857
aa.(lp0
(lp1
I0
aI0
aI0
aI0
aI0
aI1
aI0
aI0
aI0
aI0
aF0.9726666666666667
aF0.154
aI8
aI0
aI0
aI0
aI0
aI0
aI0
aI0
aI0
aI0
aI0
aI0
aI0
aI0
aI0
aI0
aI0
aI0
aI0
aI0
aI0
aI0
aI0
aI0
aI0
aF0.7142857142857143
aa.(lp0
(lp1
I1
aI0
aI0
aI0
aI0
aI0
aI0
aI0
aI0
aI0
aF0.9933333333333333
aF0.216
aI6
aI0
aI0
aI0
aI0
aI0
aI0
aI0
aI0
aI0
aI0
aI0
aI0
aI0
aI0
aI0
aI0
aI0
aI0
aI0
aI0
aI0
aI0
aI0
aI0
aF0.42857142857142855
aa.(lp0
(lp1
I1
aI0
aI0
aI0
aI0
aI0
aI0
aI0
aI0
aI0
aF0.99
aF0.13
aI6
aI0
aI0
aI0
aI0
aI0
aI0
aI0
aI0
aI0
aI0
aI0
aI0
aI0
aI0
aI0
aI0
aI0
aI0
aI0
aI0
aI0
aI0
aI0
aI0
aF1.0
aa.(lp0
(lp1
I0
aI0
aI0
aI0
aI0
aI2
aI0
aI0
aI0
aI0
aF0.9586666666666667
aF0.316
aI5
aI0
aI0
aI0
aI0
aI0
aI0
aI0
aI0
aI0
aI0
aI0
aI0
aI0
aI0
aI0
aI0
aI0
aI0
aI0
aI0
aI0
aI0
aI0
aI0
aF0.14285714285714285
aa.(lp0
(lp1
I0
aI0
aI0
aI0
aI0
aI2
aI0
aI0
aI0
aI0
aF0.9453333333333334
aF0.44
aI5
aI0
aI0
aI0
aI0
aI0
aI0
aI0
aI0
aI0
aI0
aI0
aI0
aI0
aI0
aI0
aI0
aI0
aI0
aI0
aI0
aI0
aI0
aI0
aI0
aF0.7142857142857143
aa.(lp0
(lp1
I0
aI0
aI0
aI0
aI0
aI0
aI1
aI0
aI0
aI0
aF0.952
aF0.192
aI6
aI0
aI0
aI0
aI0
aI0
aI0
aI0
aI0
aI0
aI0
aI0
aI0
aI0
aI0
aI0
aI0
aI0
aI0
aI0
aI0
aI0
aI0
aI0
aI0
aF0.0
aa.(lp0
(lp1
I1
aI0
aI0
aI0
aI0
aI1
aI0
aI0
aI0
aI0
aF0.9933333333333333
aF0.254
aI5
aI0
aI0
aI0
aI0
aI0
aI0
aI0
aI0
aI0
aI0
aI0
aI0
aI0
aI0
aI0
aI0
aI0
aI0
aI0
aI0
aI0
aI0
aI0
aI0
aF0.42857142857142855
aa.(lp0
(lp1
I1
aI0
aI0
aI0
aI0
aI0
aI0
aI0
aI0
aI0
aF0.99
aF0.13
aI7
aI0
aI0
aI0
aI0
aI0
aI0
aI0
aI0
aI0
aI0
aI0
aI0
aI0
aI0
aI0
aI0
aI0
aI0
aI0
aI0
aI0
aI0
aI0
aI0
aF0.8571428571428571
aa.(lp0
(lp1
I0
aI1
aI0
aI0
aI0
aI2
aI0
aI0
aI0
aI0
aF1.058
aF0.254
aI6
aI0
aI0
aI0
aI0
aI0
aI0
aI0
aI0
aI0
aI0
aI0
aI0
aI0
aI0
aI0
aI0
aI0
aI0
aI0
aI0
aI0
aI0
aI0
aI0
aF0.2857142857142857
aa.(lp0
(lp1
I0
aI1
aI0
aI0
aI0
aI2
aI0
aI0
aI0
aI0
aF0.966
aF0.378
aI5
aI0
aI0
aI0
aI0
aI0
aI0
aI0
aI0
aI0
aI0
aI0
aI0
aI0
aI0
aI0
aI0
aI0
aI0
aI0
aI0
aI0
aI0
aI0
aI0
aF0.5714285714285714
aa.(lp0
(lp1
I1
aI0
aI0
aI0
aI0
aI0
aI0
aI0
aI0
aI0
aF0.99
aF0.09
aI6
aI0
aI0
aI0
aI0
aI0
aI0
aI0
aI0
aI0
aI0
aI0
aI0
aI0
aI0
aI0
aI0
aI0
aI0
aI0
aI0
aI0
aI0
aI0
aI0
aF0.5714285714285714
aa.(lp0
(lp1
I0
aI0
aI0
aI0
aI0
aI0
aI0
aI0
aI0
aI1
aF0.0
aF0.07
aI7
aI0
aI0
aI0
aI0
aI0
aI0
aI0
aI0
aI0
aI0
aI0
aI0
aI0
aI0
aI0
aI0
aI0
aI0
aI0
aI0
aI0
aI0
aI0
aI0
aF0.14285714285714285
aa.(lp0
(lp1
I0
aI1
aI0
aI0
aI0
aI1
aI0
aI0
aI0
aI0
aF2.966666666666667
aF0.256
aI6
aI0
aI0
aI0
aI0
aI0
aI0
aI0
aI0
aI0
aI0
aI0
aI0
aI0
aI0
aI0
aI0
aI0
aI0
aI0
aI0
aI0
aI0
aI0
aI0
aF0.8571428571428571
aa.(lp0
(lp1
I0
aI1
aI0
aI0
aI0
aI2
aI0
aI0
aI0
aI0
aF0.964
aF0.324
aI5
aI0
aI0
aI0
aI0
aI0
aI0
aI0
aI0
aI0
aI0
aI0
aI0
aI0
aI0
aI0
aI0
aI0
aI0
aI0
aI0
aI0
aI0
aI0
aI0
aF0.2857142857142857
aa.(lp0
(lp1
I0
aI0
aI0
aI0
aI0
aI0
aI1
aI0
aI0
aI0
aF0.9606666666666667
aF0.178
aI6
aI0
aI0
aI0
aI0
aI0
aI0
aI0
aI0
aI0
aI0
aI0
aI0
aI0
aI0
aI0
aI0
aI0
aI0
aI0
aI0
aI0
aI0
aI0
aI0
aF0.42857142857142855
aa.(lp0
(lp1
I1
aI0
aI0
aI0
aI0
aI0
aI0
aI0
aI0
aI0
aF1.0513333333333332
aF0.256
aI5
aI0
aI0
aI0
aI0
aI0
aI0
aI0
aI0
aI0
aI0
aI0
aI0
aI0
aI0
aI0
aI0
aI0
aI0
aI0
aI0
aI0
aI0
aI0
aI0
aF0.7142857142857143
aa.(lp0
(lp1
I0
aI1
aI0
aI0
aI0
aI2
aI0
aI0
aI0
aI0
aF0.9366666666666666
aF0.392
aI5
aI0
aI0
aI0
aI0
aI0
aI0
aI0
aI0
aI0
aI0
aI0
aI0
aI0
aI0
aI0
aI0
aI0
aI0
aI0
aI0
aI0
aI0
aI0
aI0
aF1.0
aa.(lp0
(lp1
I0
aI1
aI0
aI0
aI0
aI1
aI0
aI1
aI0
aI0
aF0.9486666666666667
aF0.31
aI4
aI0
aI0
aI0
aI0
aI0
aI0
aI0
aI0
aI0
aI0
aI0
aI0
aI0
aI0
aI0
aI0
aI0
aI0
aI0
aI0
aI0
aI0
aI0
aI0
aF0.5714285714285714
aa.(lp0
(lp1
I0
aI1
aI0
aI0
aI0
aI1
aI1
aI0
aI0
aI0
aF2.925333333333333
aF0.372
aI4
aI0
aI0
aI0
aI0
aI0
aI0
aI0
aI0
aI0
aI0
aI0
aI0
aI0
aI0
aI0
aI0
aI0
aI0
aI0
aI0
aI0
aI0
aI0
aI0
aF0.42857142857142855
aa.(lp0
(lp1
I0
aI0
aI0
aI0
aI0
aI2
aI0
aI0
aI0
aI0
aF0.9226666666666666
aF0.496
aI4
aI0
aI0
aI0
aI0
aI0
aI0
aI0
aI0
aI0
aI0
aI0
aI0
aI0
aI0
aI0
aI0
aI0
aI0
aI0
aI0
aI0
aI0
aI0
aI0
aF0.2857142857142857
aa.(lp0
(lp1
I1
aI0
aI0
aI0
aI0
aI0
aI0
aI0
aI0
aI0
aF1.098
aF0.05
aI4
aI0
aI0
aI0
aI0
aI0
aI0
aI0
aI0
aI0
aI0
aI0
aI0
aI0
aI0
aI0
aI0
aI0
aI0
aI0
aI0
aI0
aI0
aI0
aI0
aF0.7142857142857143
aa.(lp0
(lp1
I0
aI0
aI0
aI0
aI0
aI2
aI0
aI0
aI0
aI0
aF1.01
aF0.434
aI4
aI0
aI0
aI0
aI0
aI0
aI0
aI0
aI0
aI0
aI0
aI0
aI0
aI0
aI0
aI0
aI0
aI0
aI0
aI0
aI0
aI0
aI0
aI0
aI0
aF0.8571428571428571
aa.(lp0
(lp1
I1
aI0
aI0
aI0
aI0
aI0
aI0
aI0
aI0
aI0
aF0.93
aF0.03
aI5
aI0
aI0
aI0
aI0
aI0
aI0
aI0
aI0
aI0
aI0
aI0
aI0
aI0
aI0
aI0
aI0
aI0
aI0
aI0
aI0
aI0
aI0
aI0
aI0
aF1.0
aa.(lp0
(lp1
I0
aI0
aI0
aI0
aI0
aI1
aI0
aI0
aI0
aI0
aF2.9186666666666667
aF0.05
aI4
aI0
aI0
aI0
aI0
aI0
aI0
aI0
aI0
aI0
aI0
aI0
aI0
aI0
aI0
aI0
aI0
aI0
aI0
aI0
aI0
aI0
aI0
aI0
aI0
aF0.5714285714285714
aa.(lp0
(lp1
I1
aI0
aI0
aI0
aI0
aI0
aI0
aI0
aI0
aI0
aF1.098
aF0.03
aI4
aI0
aI0
aI0
aI0
aI0
aI0
aI0
aI0
aI0
aI0
aI0
aI0
aI0
aI0
aI0
aI0
aI0
aI0
aI0
aI0
aI0
aI0
aI0
aI0
aF0.8571428571428571
aa.(lp0
(lp1
I0
aI0
aI1
aI0
aI0
aI1
aI0
aI0
aI0
aI0
aF0.942
aF0.08
aI4
aI0
aI0
aI0
aI0
aI0
aI0
aI0
aI0
aI0
aI0
aI0
aI0
aI0
aI0
aI0
aI0
aI0
aI0
aI0
aI0
aI0
aI0
aI0
aI0
aF1.0
aa.(lp0
(lp1
I0
aI0
aI0
aI0
aI0
aI1
aI0
aI0
aI0
aI0
aF2.0913333333333335
aF0.07
aI4
aI0
aI0
aI0
aI0
aI0
aI0
aI0
aI0
aI0
aI0
aI0
aI0
aI0
aI0
aI0
aI0
aI0
aI0
aI0
aI0
aI0
aI0
aI0
aI0
aF0.42857142857142855
aa.(lp0
(lp1
I0
aI0
aI1
aI0
aI0
aI1
aI0
aI0
aI0
aI0
aF0.9233333333333333
aF0.08
aI4
aI0
aI0
aI0
aI0
aI0
aI0
aI0
aI0
aI0
aI0
aI0
aI0
aI0
aI0
aI0
aI0
aI0
aI0
aI0
aI0
aI0
aI0
aI0
aI0
aF0.7142857142857143
aa.(lp0
(lp1
I1
aI0
aI0
aI0
aI0
aI0
aI0
aI0
aI0
aI0
aF0.9966666666666667
aF0.17
aI8
aI0
aI0
aI0
aI0
aI0
aI0
aI0
aI0
aI0
aI0
aI0
aI0
aI0
aI0
aI0
aI0
aI0
aI0
aI0
aI0
aI0
aI0
aI0
aI0
aF0.75
aa.(lp0
(lp1
I0
aI1
aI0
aI0
aI0
aI1
aI0
aI0
aI0
aI0
aF0.9933333333333333
aF0.15
aI9
aI0
aI0
aI0
aI0
aI0
aI0
aI0
aI0
aI0
aI0
aI0
aI0
aI0
aI0
aI0
aI0
aI0
aI0
aI0
aI0
aI0
aI0
aI0
aI0
aF0.625
aa.(lp0
(lp1
I0
aI0
aI0
aI0
aI0
aI1
aI0
aI0
aI0
aI0
aF0.9933333333333333
aF0.05
aI9
aI0
aI0
aI0
aI0
aI0
aI0
aI0
aI0
aI0
aI0
aI0
aI0
aI0
aI0
aI0
aI0
aI0
aI0
aI0
aI0
aI0
aI0
aI0
aI0
aF0.3125
aa.(lp0
(lp1
I0
aI0
aI0
aI0
aI0
aI1
aI0
aI0
aI0
aI0
aF0.9933333333333333
aF0.11
aI9
aI0
aI0
aI0
aI0
aI0
aI0
aI0
aI0
aI0
aI0
aI0
aI0
aI0
aI0
aI0
aI0
aI0
aI0
aI0
aI0
aI0
aI0
aI0
aI0
aF1.0
aa.(lp0
(lp1
I0
aI0
aI0
aI0
aI0
aI1
aI0
aI0
aI0
aI0
aF0.9933333333333333
aF0.13
aI9
aI0
aI0
aI0
aI0
aI0
aI0
aI0
aI0
aI0
aI0
aI0
aI0
aI0
aI0
aI0
aI0
aI0
aI0
aI0
aI0
aI0
aI0
aI0
aI0
aF0.5
aa.(lp0
(lp1
I0
aI1
aI0
aI0
aI0
aI1
aI0
aI0
aI0
aI0
aF0.9933333333333333
aF0.09
aI9
aI0
aI0
aI0
aI0
aI0
aI0
aI0
aI0
aI0
aI0
aI0
aI0
aI0
aI0
aI0
aI0
aI0
aI0
aI0
aI0
aI0
aI0
aI0
aI0
aF0.125
aa.(lp0
(lp1
I0
aI1
aI0
aI0
aI0
aI1
aI0
aI0
aI0
aI0
aF0.9933333333333333
aF0.17
aI9
aI0
aI0
aI0
aI0
aI0
aI0
aI0
aI0
aI0
aI0
aI0
aI0
aI0
aI0
aI0
aI0
aI0
aI0
aI0
aI0
aI0
aI0
aI0
aI0
aF0.3125
aa.(lp0
(lp1
I0
aI1
aI0
aI0
aI0
aI1
aI0
aI0
aI0
aI0
aF0.9933333333333333
aF0.07
aI9
aI0
aI0
aI0
aI0
aI0
aI0
aI0
aI0
aI0
aI0
aI0
aI0
aI0
aI0
aI0
aI0
aI0
aI0
aI0
aI0
aI0
aI0
aI0
aI0
aF0.0
aa.(lp0
(lp1
I1
aI0
aI0
aI0
aI0
aI0
aI0
aI0
aI0
aI0
aF0.9933333333333333
aF0.17
aI7
aI0
aI0
aI0
aI0
aI0
aI0
aI0
aI0
aI0
aI0
aI0
aI0
aI0
aI0
aI0
aI0
aI0
aI0
aI0
aI0
aI0
aI0
aI0
aI0
aF0.875
aa.(lp0
(lp1
I1
aI0
aI0
aI0
aI0
aI0
aI0
aI0
aI0
aI0
aF0.9966666666666667
aF0.585
aI8
aI0
aI0
aI0
aI0
aI0
aI0
aI0
aI0
aI0
aI0
aI0
aI0
aI0
aI0
aI0
aI0
aI0
aI0
aI0
aI0
aI0
aI0
aI0
aI0
aF0.875
aa.(lp0
(lp1
I0
aI0
aI0
aI1
aI0
aI1
aI0
aI0
aI0
aI0
aF0.9383333333333334
aF0.42
aI9
aI0
aI0
aI0
aI0
aI0
aI0
aI0
aI0
aI0
aI0
aI0
aI0
aI0
aI0
aI0
aI0
aI0
aI0
aI0
aI0
aI0
aI0
aI0
aI0
aF0.75
aa.(lp0
(lp1
I0
aI0
aI0
aI1
aI0
aI1
aI0
aI0
aI0
aI0
aF2.8716666666666666
aF0.885
aI8
aI0
aI0
aI0
aI0
aI0
aI0
aI0
aI0
aI0
aI0
aI0
aI0
aI0
aI0
aI0
aI0
aI0
aI0
aI0
aI0
aI0
aI0
aI0
aI0
aF0.625
aa.(lp0
(lp1
I0
aI0
aI0
aI0
aI0
aI1
aI0
aI0
aI0
aI1
aF0.0
aF1.32
aI8
aI0
aI0
aI0
aI0
aI0
aI0
aI0
aI0
aI0
aI0
aI0
aI0
aI0
aI0
aI0
aI0
aI0
aI0
aI0
aI0
aI0
aI0
aI0
aI0
aF0.375
aa.(lp0
(lp1
I0
aI0
aI0
aI0
aI0
aI0
aI0
aI0
aI0
aI1
aF0.0
aF0.255
aI9
aI0
aI0
aI0
aI0
aI0
aI0
aI0
aI0
aI0
aI0
aI0
aI0
aI0
aI0
aI0
aI0
aI0
aI0
aI0
aI0
aI0
aI0
aI0
aI0
aF0.125
aa.(lp0
(lp1
I0
aI1
aI0
aI0
aI0
aI2
aI0
aI0
aI0
aI0
aF0.9383333333333334
aF1.175
aI8
aI0
aI0
aI0
aI0
aI0
aI0
aI0
aI0
aI0
aI0
aI0
aI0
aI0
aI0
aI0
aI0
aI0
aI0
aI0
aI0
aI0
aI0
aI0
aI0
aF1.0
aa.(lp0
(lp1
I0
aI0
aI1
aI0
aI0
aI1
aI0
aI0
aI0
aI0
aF0.9383333333333334
aF0.585
aI9
aI0
aI0
aI0
aI0
aI0
aI0
aI0
aI0
aI0
aI0
aI0
aI0
aI0
aI0
aI0
aI0
aI0
aI0
aI0
aI0
aI0
aI0
aI0
aI0
aF0.0
aa.(lp0
(lp1
I0
aI1
aI0
aI0
aI0
aI2
aI0
aI0
aI0
aI0
aF0.9383333333333334
aF1.03
aI8
aI0
aI0
aI0
aI0
aI0
aI0
aI0
aI0
aI0
aI0
aI0
aI0
aI0
aI0
aI0
aI0
aI0
aI0
aI0
aI0
aI0
aI0
aI0
aI0
aF0.5
aa.(lp0
(lp1
I0
aI0
aI0
aI0
aI0
aI1
aI0
aI0
aI0
aI0
aF0.9383333333333334
aF0.74
aI8
aI0
aI0
aI0
aI0
aI0
aI0
aI0
aI0
aI0
aI0
aI0
aI0
aI0
aI0
aI0
aI0
aI0
aI0
aI0
aI0
aI0
aI0
aI0
aI0
aF0.25
aa.(lp0
(lp1
I1
aI0
aI0
aI0
aI0
aI0
aI0
aI0
aI0
aI0
aF0.9966666666666667
aF0.493
aI4
aI0
aI0
aI0
aI0
aI0
aI0
aI0
aI0
aI0
aI0
aI0
aI0
aI0
aI0
aI0
aI0
aI0
aI0
aI0
aI0
aI0
aI0
aI0
aI0
aF0.5
aa.(lp0
(lp1
I1
aI0
aI0
aI0
aI0
aI0
aI0
aI0
aI0
aI0
aF0.6983333333333334
aF0.493
aI6
aI0
aI0
aI0
aI0
aI0
aI0
aI0
aI0
aI0
aI0
aI0
aI0
aI0
aI0
aI0
aI0
aI0
aI0
aI0
aI0
aI0
aI0
aI0
aI0
aF0.875
aa.(lp0
(lp1
I1
aI0
aI0
aI0
aI0
aI0
aI0
aI0
aI0
aI0
aF2.6283333333333334
aF0.956
aI3
aI0
aI0
aI0
aI0
aI0
aI0
aI0
aI0
aI0
aI0
aI0
aI0
aI0
aI0
aI0
aI0
aI0
aI0
aI0
aI0
aI0
aI0
aI0
aI0
aF1.0
aa.(lp0
(lp1
I0
aI0
aI0
aI0
aI0
aI0
aI1
aI0
aI0
aI0
aF0.2856666666666667
aF0.493
aI7
aI0
aI0
aI0
aI0
aI0
aI0
aI0
aI0
aI0
aI0
aI0
aI0
aI0
aI0
aI0
aI0
aI0
aI0
aI0
aI0
aI0
aI0
aI0
aI0
aF0.125
aa.(lp0
(lp1
I1
aI0
aI0
aI0
aI0
aI0
aI0
aI0
aI0
aI0
aF0.9383333333333334
aF0.03
aI7
aI0
aI0
aI0
aI0
aI0
aI0
aI0
aI0
aI0
aI0
aI0
aI0
aI0
aI0
aI0
aI0
aI0
aI0
aI0
aI0
aI0
aI0
aI0
aI0
aF0.375
aa.(lp0
(lp1
I1
aI0
aI0
aI0
aI0
aI0
aI0
aI0
aI0
aI0
aF0.8183333333333334
aF0.493
aI5
aI0
aI0
aI0
aI0
aI0
aI0
aI0
aI0
aI0
aI0
aI0
aI0
aI0
aI0
aI0
aI0
aI0
aI0
aI0
aI0
aI0
aI0
aI0
aI0
aF0.625
aa.(lp0
(lp1
I1
aI0
aI0
aI0
aI0
aI0
aI0
aI0
aI0
aI0
aF0.9316666666666666
aF0.956
aI2
aI0
aI0
aI0
aI0
aI0
aI0
aI0
aI0
aI0
aI0
aI0
aI0
aI0
aI0
aI0
aI0
aI0
aI0
aI0
aI0
aI0
aI0
aI0
aI0
aF0.25
aa.(lp0
(lp1
I0
aI0
aI0
aI0
aI0
aI1
aI0
aI0
aI0
aI0
aF1.384
aF0.956
aI4
aI0
aI0
aI0
aI0
aI0
aI0
aI0
aI0
aI0
aI0
aI0
aI0
aI0
aI0
aI0
aI0
aI0
aI0
aI0
aI0
aI0
aI0
aI0
aI0
aF0.75
aa.(lp0
(lp1
I0
aI1
aI0
aI0
aI0
aI2
aI0
aI0
aI0
aI0
aF3.4716666666666667
aF0.77
aI3
aI0
aI0
aI0
aI0
aI0
aI0
aI0
aI0
aI0
aI0
aI0
aI0
aI0
aI0
aI0
aI0
aI0
aI0
aI0
aI0
aI0
aI0
aI0
aI0
aF0.5
aa.(lp0
(lp1
I0
aI0
aI0
aI0
aI0
aI0
aI1
aI0
aI0
aI0
aF2.5083333333333333
aF0.43
aI6
aI0
aI0
aI0
aI0
aI0
aI0
aI0
aI0
aI0
aI0
aI0
aI0
aI0
aI0
aI0
aI0
aI0
aI0
aI0
aI0
aI0
aI0
aI0
aI0
aF0.625
aa.(lp0
(lp1
I1
aI0
aI0
aI0
aI0
aI0
aI0
aI0
aI0
aI0
aF0.9283333333333333
aF0.43
aI4
aI0
aI0
aI0
aI0
aI0
aI0
aI0
aI0
aI0
aI0
aI0
aI0
aI0
aI0
aI0
aI0
aI0
aI0
aI0
aI0
aI0
aI0
aI0
aI0
aF0.75
aa.(lp0
(lp1
I1
aI0
aI0
aI0
aI0
aI0
aI0
aI0
aI0
aI0
aF0.8116666666666666
aF0.43
aI3
aI0
aI0
aI0
aI0
aI0
aI0
aI0
aI0
aI0
aI0
aI0
aI0
aI0
aI0
aI0
aI0
aI0
aI0
aI0
aI0
aI0
aI0
aI0
aI0
aF0.375
aa.(lp0
(lp1
I1
aI0
aI0
aI0
aI0
aI0
aI0
aI0
aI0
aI0
aF0.9283333333333333
aF0.43
aI5
aI0
aI0
aI0
aI0
aI0
aI0
aI0
aI0
aI0
aI0
aI0
aI0
aI0
aI0
aI0
aI0
aI0
aI0
aI0
aI0
aI0
aI0
aI0
aI0
aF1.0
aa.(lp0
(lp1
I1
aI0
aI0
aI0
aI0
aI1
aI0
aI0
aI0
aI0
aF0.095
aF0.77
aI2
aI0
aI0
aI0
aI0
aI0
aI0
aI0
aI0
aI0
aI0
aI0
aI0
aI0
aI0
aI0
aI0
aI0
aI0
aI0
aI0
aI0
aI0
aI0
aI0
aF0.875
aa.(lp0
(lp1
I1
aI0
aI0
aI0
aI0
aI0
aI0
aI0
aI0
aI0
aF3.465
aF0.11
aI4
aI0
aI0
aI0
aI0
aI0
aI0
aI0
aI0
aI0
aI0
aI0
aI0
aI0
aI0
aI0
aI0
aI0
aI0
aI0
aI0
aI0
aI0
aI0
aI0
aF0.625
aa.(lp0
(lp1
I0
aI0
aI0
aI1
aI0
aI1
aI0
aI0
aI0
aI0
aF2.7583333333333333
aF0.07
aI6
aI0
aI0
aI0
aI0
aI0
aI0
aI0
aI0
aI0
aI0
aI0
aI0
aI0
aI0
aI0
aI0
aI0
aI0
aI0
aI0
aI0
aI0
aI0
aI0
aF0.75
aa.(lp0
(lp1
I0
aI1
aI0
aI0
aI0
aI1
aI0
aI0
aI0
aI0
aF0.9216666666666666
aF0.11
aI6
aI0
aI0
aI0
aI0
aI0
aI0
aI0
aI0
aI0
aI0
aI0
aI0
aI0
aI0
aI0
aI0
aI0
aI0
aI0
aI0
aI0
aI0
aI0
aI0
aF0.5
aa.(lp0
(lp1
I1
aI0
aI0
aI0
aI0
aI0
aI0
aI0
aI0
aI0
aF0.8083333333333333
aF0.11
aI5
aI0
aI0
aI0
aI0
aI0
aI0
aI0
aI0
aI0
aI0
aI0
aI0
aI0
aI0
aI0
aI0
aI0
aI0
aI0
aI0
aI0
aI0
aI0
aI0
aF1.0
aa.(lp0
(lp1
I0
aI0
aI0
aI0
aI0
aI1
aI0
aI0
aI0
aI0
aF0.9216666666666666
aF0.09
aI6
aI0
aI0
aI0
aI0
aI0
aI0
aI0
aI0
aI0
aI0
aI0
aI0
aI0
aI0
aI0
aI0
aI0
aI0
aI0
aI0
aI0
aI0
aI0
aI0
aF0.375
aa.(lp0
(lp1
I0
aI1
aI0
aI0
aI0
aI1
aI0
aI0
aI0
aI0
aF0.08833333333333333
aF0.05
aI6
aI0
aI0
aI0
aI0
aI0
aI0
aI0
aI0
aI0
aI0
aI0
aI0
aI0
aI0
aI0
aI0
aI0
aI0
aI0
aI0
aI0
aI0
aI0
aI0
aF0.875
aa.(lp0
(lp1
I1
aI0
aI0
aI0
aI0
aI0
aI0
aI0
aI0
aI0
aF3.4583333333333335
aF0.18
aI4
aI0
aI0
aI0
aI0
aI0
aI0
aI0
aI0
aI0
aI0
aI0
aI0
aI0
aI0
aI0
aI0
aI0
aI0
aI0
aI0
aI0
aI0
aI0
aI0
aF0.875
aa.(lp0
(lp1
I0
aI0
aI1
aI0
aI0
aI1
aI0
aI0
aI0
aI0
aF2.235
aF0.1
aI6
aI0
aI0
aI0
aI0
aI0
aI0
aI0
aI0
aI0
aI0
aI0
aI0
aI0
aI0
aI0
aI0
aI0
aI0
aI0
aI0
aI0
aI0
aI0
aI0
aF0.5
aa.(lp0
(lp1
I0
aI1
aI0
aI0
aI0
aI1
aI0
aI0
aI0
aI0
aF0.9083333333333333
aF0.18
aI6
aI0
aI0
aI0
aI0
aI0
aI0
aI0
aI0
aI0
aI0
aI0
aI0
aI0
aI0
aI0
aI0
aI0
aI0
aI0
aI0
aI0
aI0
aI0
aI0
aF0.625
aa.(lp0
(lp1
I1
aI0
aI0
aI0
aI0
aI0
aI0
aI0
aI0
aI0
aF0.8083333333333333
aF0.18
aI5
aI0
aI0
aI0
aI0
aI0
aI0
aI0
aI0
aI0
aI0
aI0
aI0
aI0
aI0
aI0
aI0
aI0
aI0
aI0
aI0
aI0
aI0
aI0
aI0
aF1.0
aa.(lp0
(lp1
I0
aI0
aI0
aI0
aI0
aI1
aI0
aI0
aI0
aI0
aF1.4616666666666667
aF0.14
aI6
aI0
aI0
aI0
aI0
aI0
aI0
aI0
aI0
aI0
aI0
aI0
aI0
aI0
aI0
aI0
aI0
aI0
aI0
aI0
aI0
aI0
aI0
aI0
aI0
aF0.375
aa.(lp0
(lp1
I0
aI1
aI0
aI0
aI0
aI1
aI0
aI0
aI0
aI0
aF0.06833333333333333
aF0.18
aI4
aI0
aI0
aI0
aI0
aI0
aI0
aI0
aI0
aI0
aI0
aI0
aI0
aI0
aI0
aI0
aI0
aI0
aI0
aI0
aI0
aI0
aI0
aI0
aI0
aF0.75
aa.(lp0
(lp1
I0
aI1
aI0
aI0
aI0
aI1
aI0
aI0
aI0
aI0
aF3.445
aF0.22
aI6
aI0
aI0
aI0
aI0
aI0
aI0
aI0
aI0
aI0
aI0
aI0
aI0
aI0
aI0
aI0
aI0
aI0
aI0
aI0
aI0
aI0
aI0
aI0
aI0
aF0.5
aa.(lp0
(lp1
I0
aI0
aI0
aI0
aI0
aI1
aI0
aI0
aI0
aI0
aF2.115
aF0.24
aI6
aI0
aI0
aI0
aI0
aI0
aI0
aI0
aI0
aI0
aI0
aI0
aI0
aI0
aI0
aI0
aI0
aI0
aI0
aI0
aI0
aI0
aI0
aI0
aI0
aF1.0
aa.(lp0
(lp1
I0
aI1
aI0
aI0
aI0
aI1
aI0
aI0
aI0
aI0
aF0.895
aF0.14
aI6
aI0
aI0
aI0
aI0
aI0
aI0
aI0
aI0
aI0
aI0
aI0
aI0
aI0
aI0
aI0
aI0
aI0
aI0
aI0
aI0
aI0
aI0
aI0
aI0
aF0.375
aa.(lp0
(lp1
I0
aI1
aI0
aI0
aI0
aI1
aI0
aI0
aI0
aI0
aF0.795
aF0.18
aI6
aI0
aI0
aI0
aI0
aI0
aI0
aI0
aI0
aI0
aI0
aI0
aI0
aI0
aI0
aI0
aI0
aI0
aI0
aI0
aI0
aI0
aI0
aI0
aI0
aF0.875
aa.(lp0
(lp1
I0
aI1
aI0
aI0
aI0
aI1
aI0
aI0
aI0
aI0
aF1.615
aF0.1
aI6
aI0
aI0
aI0
aI0
aI0
aI0
aI0
aI0
aI0
aI0
aI0
aI0
aI0
aI0
aI0
aI0
aI0
aI0
aI0
aI0
aI0
aI0
aI0
aI0
aF0.75
aa.(lp0
(lp1
I0
aI1
aI0
aI0
aI0
aI1
aI0
aI0
aI0
aI0
aF0.055
aF0.24
aI6
aI0
aI0
aI0
aI0
aI0
aI0
aI0
aI0
aI0
aI0
aI0
aI0
aI0
aI0
aI0
aI0
aI0
aI0
aI0
aI0
aI0
aI0
aI0
aI0
aF0.625
aa.(lp0
(lp1
I0
aI0
aI0
aI0
aI0
aI0
aI0
aI1
aI0
aI0
aF3.4183333333333334
aF0.18
aI5
aI0
aI0
aI0
aI0
aI0
aI0
aI0
aI0
aI0
aI0
aI0
aI0
aI0
aI0
aI0
aI0
aI0
aI0
aI0
aI0
aI0
aI0
aI0
aI0
aF0.5
aa.(lp0
(lp1
I0
aI1
aI0
aI0
aI0
aI1
aI0
aI0
aI0
aI0
aF2.1816666666666666
aF0.32
aI5
aI0
aI0
aI0
aI0
aI0
aI0
aI0
aI0
aI0
aI0
aI0
aI0
aI0
aI0
aI0
aI0
aI0
aI0
aI0
aI0
aI0
aI0
aI0
aI0
aF0.875
aa.(lp0
(lp1
I1
aI0
aI0
aI0
aI0
aI0
aI0
aI0
aI0
aI0
aF0.895
aF0.06
aI5
aI0
aI0
aI0
aI0
aI0
aI0
aI0
aI0
aI0
aI0
aI0
aI0
aI0
aI0
aI0
aI0
aI0
aI0
aI0
aI0
aI0
aI0
aI0
aI0
aF1.0
aa.(lp0
(lp1
I0
aI1
aI0
aI0
aI0
aI2
aI0
aI0
aI0
aI0
aF0.7683333333333333
aF0.36
aI4
aI0
aI0
aI0
aI0
aI0
aI0
aI0
aI0
aI0
aI0
aI0
aI0
aI0
aI0
aI0
aI0
aI0
aI0
aI0
aI0
aI0
aI0
aI0
aI0
aF0.375
aa.(lp0
(lp1
I1
aI0
aI0
aI0
aI0
aI0
aI0
aI0
aI0
aI0
aF1.6016666666666666
aF0.32
aI4
aI0
aI0
aI0
aI0
aI0
aI0
aI0
aI0
aI0
aI0
aI0
aI0
aI0
aI0
aI0
aI0
aI0
aI0
aI0
aI0
aI0
aI0
aI0
aI0
aF0.75
aa.(lp0
(lp1
I0
aI1
aI0
aI0
aI0
aI1
aI0
aI0
aI0
aI0
aF0.015
aF0.26
aI5
aI0
aI0
aI0
aI0
aI0
aI0
aI0
aI0
aI0
aI0
aI0
aI0
aI0
aI0
aI0
aI0
aI0
aI0
aI0
aI0
aI0
aI0
aI0
aI0
aF0.625
aa.(lp0
(lp1
I0
aI1
aI0
aI0
aI0
aI1
aI0
aI0
aI0
aI0
aF3.525
aF0.14
aI6
aI0
aI0
aI0
aI0
aI0
aI0
aI0
aI0
aI0
aI0
aI0
aI0
aI0
aI0
aI0
aI0
aI0
aI0
aI0
aI0
aI0
aI0
aI0
aI0
aF0.75
aa.(lp0
(lp1
I0
aI0
aI0
aI0
aI0
aI1
aI0
aI0
aI0
aI0
aF2.1683333333333334
aF0.22
aI6
aI0
aI0
aI0
aI0
aI0
aI0
aI0
aI0
aI0
aI0
aI0
aI0
aI0
aI0
aI0
aI0
aI0
aI0
aI0
aI0
aI0
aI0
aI0
aI0
aF0.625
aa.(lp0
(lp1
I1
aI0
aI0
aI0
aI0
aI0
aI0
aI0
aI0
aI0
aF0.8816666666666667
aF0.24
aI5
aI0
aI0
aI0
aI0
aI0
aI0
aI0
aI0
aI0
aI0
aI0
aI0
aI0
aI0
aI0
aI0
aI0
aI0
aI0
aI0
aI0
aI0
aI0
aI0
aF1.0
aa.(lp0
(lp1
I0
aI1
aI0
aI0
aI0
aI1
aI0
aI0
aI0
aI0
aF0.755
aF0.1
aI6
aI0
aI0
aI0
aI0
aI0
aI0
aI0
aI0
aI0
aI0
aI0
aI0
aI0
aI0
aI0
aI0
aI0
aI0
aI0
aI0
aI0
aI0
aI0
aI0
aF0.5
aa.(lp0
(lp1
I0
aI0
aI1
aI0
aI0
aI1
aI0
aI0
aI0
aI0
aF1.5883333333333334
aF0.24
aI6
aI0
aI0
aI0
aI0
aI0
aI0
aI0
aI0
aI0
aI0
aI0
aI0
aI0
aI0
aI0
aI0
aI0
aI0
aI0
aI0
aI0
aI0
aI0
aI0
aF0.375
aa.(lp0
(lp1
I0
aI1
aI0
aI0
aI0
aI1
aI0
aI0
aI0
aI0
aF0.0016666666666666668
aF0.18
aI6
aI0
aI0
aI0
aI0
aI0
aI0
aI0
aI0
aI0
aI0
aI0
aI0
aI0
aI0
aI0
aI0
aI0
aI0
aI0
aI0
aI0
aI0
aI0
aI0
aF0.875
aa.(lp0
(lp1
I1
aI0
aI0
aI0
aI0
aI0
aI0
aI0
aI0
aI0
aF3.5116666666666667
aF0.16
aI3
aI0
aI0
aI0
aI0
aI0
aI0
aI0
aI0
aI0
aI0
aI0
aI0
aI0
aI0
aI0
aI0
aI0
aI0
aI0
aI0
aI0
aI0
aI0
aI0
aF1.0
aa.(lp0
(lp1
I0
aI1
aI0
aI0
aI0
aI1
aI0
aI0
aI0
aI0
aF2.2683333333333335
aF0.1
aI5
aI0
aI0
aI0
aI0
aI0
aI0
aI0
aI0
aI0
aI0
aI0
aI0
aI0
aI0
aI0
aI0
aI0
aI0
aI0
aI0
aI0
aI0
aI0
aI0
aF0.875
aa.(lp0
(lp1
I1
aI0
aI0
aI0
aI0
aI0
aI0
aI0
aI0
aI0
aF0.875
aF0.14
aI4
aI0
aI0
aI0
aI0
aI0
aI0
aI0
aI0
aI0
aI0
aI0
aI0
aI0
aI0
aI0
aI0
aI0
aI0
aI0
aI0
aI0
aI0
aI0
aI0
aF0.375
aa.(lp0
(lp1
I0
aI0
aI0
aI0
aI0
aI1
aI0
aI0
aI0
aI0
aF0.7283333333333334
aF0.16
aI4
aI0
aI0
aI0
aI0
aI0
aI0
aI0
aI0
aI0
aI0
aI0
aI0
aI0
aI0
aI0
aI0
aI0
aI0
aI0
aI0
aI0
aI0
aI0
aI0
aF0.5
aa.(lp0
(lp1
I0
aI1
aI0
aI0
aI0
aI1
aI0
aI0
aI0
aI0
aF1.5616666666666668
aF0.14
aI5
aI0
aI0
aI0
aI0
aI0
aI0
aI0
aI0
aI0
aI0
aI0
aI0
aI0
aI0
aI0
aI0
aI0
aI0
aI0
aI0
aI0
aI0
aI0
aI0
aF0.75
aa.(lp0
(lp1
I1
aI0
aI0
aI0
aI0
aI0
aI0
aI0
aI0
aI0
aF0.0016666666666666668
aF0.06
aI5
aI0
aI0
aI0
aI0
aI0
aI0
aI0
aI0
aI0
aI0
aI0
aI0
aI0
aI0
aI0
aI0
aI0
aI0
aI0
aI0
aI0
aI0
aI0
aI0
aF0.625
aa.(lp0
(lp1
I0
aI1
aI0
aI0
aI0
aI1
aI0
aI0
aI0
aI0
aF0.7683333333333333
aF0.165
aI5
aI0
aI0
aI0
aI0
aI0
aI0
aI0
aI0
aI0
aI0
aI0
aI0
aI0
aI0
aI0
aI0
aI0
aI0
aI0
aI0
aI0
aI0
aI0
aI0
aF0.625
aa.(lp0
(lp1
I0
aI1
aI0
aI0
aI0
aI1
aI0
aI0
aI0
aI0
aF2.255
aF0.085
aI6
aI0
aI0
aI0
aI0
aI0
aI0
aI0
aI0
aI0
aI0
aI0
aI0
aI0
aI0
aI0
aI0
aI0
aI0
aI0
aI0
aI0
aI0
aI0
aI0
aF0.5
aa.(lp0
(lp1
I1
aI0
aI0
aI0
aI0
aI0
aI0
aI0
aI0
aI0
aF3.4983333333333335
aF0.165
aI4
aI0
aI0
aI0
aI0
aI0
aI0
aI0
aI0
aI0
aI0
aI0
aI0
aI0
aI0
aI0
aI0
aI0
aI0
aI0
aI0
aI0
aI0
aI0
aI0
aF0.875
aa.(lp0
(lp1
I0
aI0
aI0
aI0
aI0
aI1
aI0
aI0
aI0
aI0
aF1.5483333333333333
aF0.125
aI6
aI0
aI0
aI0
aI0
aI0
aI0
aI0
aI0
aI0
aI0
aI0
aI0
aI0
aI0
aI0
aI0
aI0
aI0
aI0
aI0
aI0
aI0
aI0
aI0
aF0.375
aa.(lp0
(lp1
I1
aI0
aI0
aI0
aI0
aI0
aI0
aI0
aI0
aI0
aF0.875
aF0.125
aI5
aI0
aI0
aI0
aI0
aI0
aI0
aI0
aI0
aI0
aI0
aI0
aI0
aI0
aI0
aI0
aI0
aI0
aI0
aI0
aI0
aI0
aI0
aI0
aI0
aF0.75
aa.(lp0
(lp1
I0
aI1
aI0
aI0
aI0
aI1
aI0
aI0
aI0
aI0
aF0.7416666666666667
aF0.2
aI5
aI0
aI0
aI0
aI0
aI0
aI0
aI0
aI0
aI0
aI0
aI0
aI0
aI0
aI0
aI0
aI0
aI0
aI0
aI0
aI0
aI0
aI0
aI0
aI0
aF0.75
aa.(lp0
(lp1
I0
aI1
aI0
aI0
aI0
aI1
aI0
aI0
aI0
aI0
aF2.255
aF0.28
aI4
aI0
aI0
aI0
aI0
aI0
aI0
aI0
aI0
aI0
aI0
aI0
aI0
aI0
aI0
aI0
aI0
aI0
aI0
aI0
aI0
aI0
aI0
aI0
aI0
aF0.875
aa.(lp0
(lp1
I1
aI0
aI0
aI0
aI0
aI0
aI0
aI0
aI0
aI0
aF3.4983333333333335
aF0.2
aI4
aI0
aI0
aI0
aI0
aI0
aI0
aI0
aI0
aI0
aI0
aI0
aI0
aI0
aI0
aI0
aI0
aI0
aI0
aI0
aI0
aI0
aI0
aI0
aI0
aF1.0
aa.(lp0
(lp1
I0
aI0
aI0
aI0
aI0
aI1
aI0
aI0
aI0
aI0
aF1.55
aF0.32
aI4
aI0
aI0
aI0
aI0
aI0
aI0
aI0
aI0
aI0
aI0
aI0
aI0
aI0
aI0
aI0
aI0
aI0
aI0
aI0
aI0
aI0
aI0
aI0
aI0
aF0.5
aa.(lp0
(lp1
I0
aI1
aI0
aI0
aI0
aI1
aI0
aI0
aI0
aI0
aF0.8483333333333334
aF0.32
aI4
aI0
aI0
aI0
aI0
aI0
aI0
aI0
aI0
aI0
aI0
aI0
aI0
aI0
aI0
aI0
aI0
aI0
aI0
aI0
aI0
aI0
aI0
aI0
aI0
aF0.625
aa.(lp0
(lp1
I1
aI0
aI0
aI0
aI0
aI0
aI0
aI0
aI0
aI0
aF0.715
aF0.64
aI2
aI0
aI0
aI0
aI0
aI0
aI0
aI0
aI0
aI0
aI0
aI0
aI0
aI0
aI0
aI0
aI0
aI0
aI0
aI0
aI0
aI0
aI0
aI0
aI0
aF1.0
aa.(lp0
(lp1
I0
aI0
aI0
aI0
aI0
aI1
aI1
aI0
aI0
aI0
aF2.015
aF1.56
aI2
aI0
aI0
aI0
aI0
aI0
aI0
aI0
aI0
aI0
aI0
aI0
aI0
aI0
aI0
aI0
aI0
aI0
aI0
aI0
aI0
aI0
aI0
aI0
aI0
aF0.625
aa.(lp0
(lp1
I0
aI1
aI0
aI0
aI0
aI0
aI0
aI2
aI0
aI0
aF3.2583333333333333
aF1.2
aI2
aI0
aI0
aI0
aI0
aI0
aI0
aI0
aI0
aI0
aI0
aI0
aI0
aI0
aI0
aI0
aI0
aI0
aI0
aI0
aI0
aI0
aI0
aI0
aI0
aF0.5
aa.(lp0
(lp1
I1
aI0
aI0
aI0
aI0
aI0
aI0
aI0
aI0
aI0
aF1.6566666666666667
aF0.64
aI4
aI0
aI0
aI0
aI0
aI0
aI0
aI0
aI0
aI0
aI0
aI0
aI0
aI0
aI0
aI0
aI0
aI0
aI0
aI0
aI0
aI0
aI0
aI0
aI0
aF0.75
aa.(lp0
(lp1
I1
aI0
aI0
aI0
aI0
aI0
aI0
aI0
aI0
aI0
aF0.835
aF0.64
aI3
aI0
aI0
aI0
aI0
aI0
aI0
aI0
aI0
aI0
aI0
aI0
aI0
aI0
aI0
aI0
aI0
aI0
aI0
aI0
aI0
aI0
aI0
aI0
aI0
aF0.875
aa.(lp0
(lp1
I1
aI0
aI0
aI0
aI0
aI0
aI0
aI0
aI0
aI0
aF0.7016666666666667
aF0.36
aI4
aI0
aI0
aI0
aI0
aI0
aI0
aI0
aI0
aI0
aI0
aI0
aI0
aI0
aI0
aI0
aI0
aI0
aI0
aI0
aI0
aI0
aI0
aI0
aI0
aF0.875
aa.(lp0
(lp1
I0
aI1
aI0
aI0
aI0
aI1
aI0
aI0
aI0
aI0
aF2.5083333333333333
aF0.2
aI5
aI0
aI0
aI0
aI0
aI0
aI0
aI0
aI0
aI0
aI0
aI0
aI0
aI0
aI0
aI0
aI0
aI0
aI0
aI0
aI0
aI0
aI0
aI0
aI0
aF0.75
aa.(lp0
(lp1
I1
aI0
aI0
aI0
aI0
aI0
aI0
aI0
aI0
aI0
aF3.2316666666666665
aF0.36
aI3
aI0
aI0
aI0
aI0
aI0
aI0
aI0
aI0
aI0
aI0
aI0
aI0
aI0
aI0
aI0
aI0
aI0
aI0
aI0
aI0
aI0
aI0
aI0
aI0
aF1.0
aa.(lp0
(lp1
I0
aI0
aI0
aI0
aI0
aI1
aI0
aI0
aI0
aI0
aF1.63
aF0.28
aI5
aI0
aI0
aI0
aI0
aI0
aI0
aI0
aI0
aI0
aI0
aI0
aI0
aI0
aI0
aI0
aI0
aI0
aI0
aI0
aI0
aI0
aI0
aI0
aI0
aF0.5
aa.(lp0
(lp1
I0
aI1
aI0
aI0
aI0
aI1
aI0
aI0
aI0
aI0
aF0.8083333333333333
aF0.36
aI5
aI0
aI0
aI0
aI0
aI0
aI0
aI0
aI0
aI0
aI0
aI0
aI0
aI0
aI0
aI0
aI0
aI0
aI0
aI0
aI0
aI0
aI0
aI0
aI0
aF0.625
aa.(lp0
(lp1
I1
aI0
aI0
aI0
aI0
aI0
aI0
aI0
aI0
aI0
aF0.7016666666666667
aF0.56
aI4
aI0
aI0
aI0
aI0
aI0
aI0
aI0
aI0
aI0
aI0
aI0
aI0
aI0
aI0
aI0
aI0
aI0
aI0
aI0
aI0
aI0
aI0
aI0
aI0
aF1.0
aa.(lp0
(lp1
I0
aI0
aI1
aI0
aI0
aI1
aI0
aI0
aI0
aI0
aF2.401666666666667
aF0.96
aI4
aI0
aI0
aI0
aI0
aI0
aI0
aI0
aI0
aI0
aI0
aI0
aI0
aI0
aI0
aI0
aI0
aI0
aI0
aI0
aI0
aI0
aI0
aI0
aI0
aF0.625
aa.(lp0
(lp1
I0
aI0
aI0
aI0
aI0
aI0
aI0
aI1
aI0
aI0
aF3.125
aF0.8
aI4
aI0
aI0
aI0
aI0
aI0
aI0
aI0
aI0
aI0
aI0
aI0
aI0
aI0
aI0
aI0
aI0
aI0
aI0
aI0
aI0
aI0
aI0
aI0
aI0
aF0.5
aa.(lp0
(lp1
I0
aI1
aI0
aI0
aI0
aI2
aI0
aI0
aI0
aI0
aF1.6433333333333333
aF1.12
aI4
aI0
aI0
aI0
aI0
aI0
aI0
aI0
aI0
aI0
aI0
aI0
aI0
aI0
aI0
aI0
aI0
aI0
aI0
aI0
aI0
aI0
aI0
aI0
aI0
aF0.75
aa.(lp0
(lp1
I1
aI0
aI0
aI0
aI0
aI1
aI0
aI0
aI0
aI0
aF0.755
aF1.12
aI3
aI0
aI0
aI0
aI0
aI0
aI0
aI0
aI0
aI0
aI0
aI0
aI0
aI0
aI0
aI0
aI0
aI0
aI0
aI0
aI0
aI0
aI0
aI0
aI0
aF0.875
aa.(lp0
(lp1
I1
aI0
aI0
aI0
aI0
aI0
aI0
aI0
aI0
aI0
aF0.6483333333333333
aF0.24
aI4
aI0
aI0
aI0
aI0
aI0
aI0
aI0
aI0
aI0
aI0
aI0
aI0
aI0
aI0
aI0
aI0
aI0
aI0
aI0
aI0
aI0
aI0
aI0
aI0
aF1.0
aa.(lp0
(lp1
I0
aI0
aI0
aI0
aI0
aI1
aI0
aI0
aI0
aI0
aF0.654
aF0.56
aI4
aI0
aI0
aI0
aI0
aI0
aI0
aI0
aI0
aI0
aI0
aI0
aI0
aI0
aI0
aI0
aI0
aI0
aI0
aI0
aI0
aI0
aI0
aI0
aI0
aF0.625
aa.(lp0
(lp1
I0
aI1
aI0
aI0
aI0
aI1
aI0
aI0
aI0
aI0
aF5.246
aF0.4
aI4
aI0
aI0
aI0
aI0
aI0
aI0
aI0
aI0
aI0
aI0
aI0
aI0
aI0
aI0
aI0
aI0
aI0
aI0
aI0
aI0
aI0
aI0
aI0
aI0
aF0.5
aa.(lp0
(lp1
I0
aI1
aI0
aI0
aI0
aI1
aI0
aI0
aI0
aI0
aF1.5366666666666666
aF0.64
aI4
aI0
aI0
aI0
aI0
aI0
aI0
aI0
aI0
aI0
aI0
aI0
aI0
aI0
aI0
aI0
aI0
aI0
aI0
aI0
aI0
aI0
aI0
aI0
aI0
aF0.75
aa.(lp0
(lp1
I0
aI1
aI0
aI0
aI0
aI1
aI0
aI0
aI0
aI0
aF0.7016666666666667
aF0.64
aI4
aI0
aI0
aI0
aI0
aI0
aI0
aI0
aI0
aI0
aI0
aI0
aI0
aI0
aI0
aI0
aI0
aI0
aI0
aI0
aI0
aI0
aI0
aI0
aI0
aF0.875
aa.(lp0
(lp1
I0
aI1
aI0
aI0
aI0
aI1
aI0
aI0
aI0
aI0
aF0.48833333333333334
aF1.04
aI2
aI0
aI0
aI0
aI0
aI0
aI0
aI0
aI0
aI0
aI0
aI0
aI0
aI0
aI0
aI0
aI0
aI0
aI0
aI0
aI0
aI0
aI0
aI0
aI0
aF0.625
aa.(lp0
(lp1
I0
aI0
aI0
aI0
aI0
aI0
aI1
aI0
aI0
aI0
aF0.7073333333333334
aF0.72
aI4
aI0
aI0
aI0
aI0
aI0
aI0
aI0
aI0
aI0
aI0
aI0
aI0
aI0
aI0
aI0
aI0
aI0
aI0
aI0
aI0
aI0
aI0
aI0
aI0
aF0.5
aa.(lp0
(lp1
I1
aI0
aI0
aI0
aI0
aI0
aI0
aI0
aI0
aI0
aF5.246
aF0.24
aI4
aI0
aI0
aI0
aI0
aI0
aI0
aI0
aI0
aI0
aI0
aI0
aI0
aI0
aI0
aI0
aI0
aI0
aI0
aI0
aI0
aI0
aI0
aI0
aI0
aF0.75
aa.(lp0
(lp1
I1
aI0
aI0
aI0
aI0
aI0
aI0
aI0
aI0
aI0
aF1.5366666666666666
aF0.72
aI3
aI0
aI0
aI0
aI0
aI0
aI0
aI0
aI0
aI0
aI0
aI0
aI0
aI0
aI0
aI0
aI0
aI0
aI0
aI0
aI0
aI0
aI0
aI0
aI0
aF1.0
aa.(lp0
(lp1
I1
aI0
aI0
aI0
aI0
aI0
aI0
aI0
aI0
aI0
aF0.675
aF0.72
aI2
aI0
aI0
aI0
aI0
aI0
aI0
aI0
aI0
aI0
aI0
aI0
aI0
aI0
aI0
aI0
aI0
aI0
aI0
aI0
aI0
aI0
aI0
aI0
aI0
aF0.875
aa.(lp0
(lp1
I1
aI0
aI0
aI0
aI0
aI0
aI0
aI0
aI0
aI0
aF0.4083333333333333
aF0.56
aI3
aI0
aI0
aI0
aI0
aI0
aI0
aI0
aI0
aI0
aI0
aI0
aI0
aI0
aI0
aI0
aI0
aI0
aI0
aI0
aI0
aI0
aI0
aI0
aI0
aF1.0
aa.(lp0
(lp1
I0
aI1
aI0
aI0
aI0
aI1
aI0
aI0
aI0
aI0
aF1.054
aF0.4
aI5
aI0
aI0
aI0
aI0
aI0
aI0
aI0
aI0
aI0
aI0
aI0
aI0
aI0
aI0
aI0
aI0
aI0
aI0
aI0
aI0
aI0
aI0
aI0
aI0
aF0.625
aa.(lp0
(lp1
I1
aI0
aI0
aI0
aI0
aI0
aI0
aI0
aI0
aI0
aF5.192666666666667
aF0.56
aI2
aI0
aI0
aI0
aI0
aI0
aI0
aI0
aI0
aI0
aI0
aI0
aI0
aI0
aI0
aI0
aI0
aI0
aI0
aI0
aI0
aI0
aI0
aI0
aI0
aF0.75
aa.(lp0
(lp1
I1
aI0
aI0
aI0
aI0
aI0
aI0
aI0
aI0
aI0
aF1.5366666666666666
aF0.4
aI4
aI0
aI0
aI0
aI0
aI0
aI0
aI0
aI0
aI0
aI0
aI0
aI0
aI0
aI0
aI0
aI0
aI0
aI0
aI0
aI0
aI0
aI0
aI0
aI0
aF0.875
aa.(lp0
(lp1
I0
aI0
aI0
aI0
aI0
aI1
aI0
aI0
aI0
aI0
aF0.6216666666666667
aF0.56
aI4
aI0
aI0
aI0
aI0
aI0
aI0
aI0
aI0
aI0
aI0
aI0
aI0
aI0
aI0
aI0
aI0
aI0
aI0
aI0
aI0
aI0
aI0
aI0
aI0
aF0.5
aa.(lp0
(lp1
I0
aI1
aI0
aI0
aI0
aI1
aI0
aI0
aI0
aI0
aF0.3016666666666667
aF1.44
aI5
aI0
aI0
aI0
aI0
aI0
aI0
aI0
aI0
aI0
aI0
aI0
aI0
aI0
aI0
aI0
aI0
aI0
aI0
aI0
aI0
aI0
aI0
aI0
aI0
aF0.875
aa.(lp0
(lp1
I0
aI0
aI0
aI0
aI0
aI1
aI0
aI0
aI0
aI0
aF0.9473333333333334
aF1.6
aI5
aI0
aI0
aI0
aI0
aI0
aI0
aI0
aI0
aI0
aI0
aI0
aI0
aI0
aI0
aI0
aI0
aI0
aI0
aI0
aI0
aI0
aI0
aI0
aI0
aF0.75
aa.(lp0
(lp1
I0
aI1
aI0
aI0
aI0
aI1
aI0
aI0
aI0
aI0
aF5.086
aF1.6
aI5
aI0
aI0
aI0
aI0
aI0
aI0
aI0
aI0
aI0
aI0
aI0
aI0
aI0
aI0
aI0
aI0
aI0
aI0
aI0
aI0
aI0
aI0
aI0
aI0
aF0.625
aa.(lp0
(lp1
I0
aI1
aI0
aI0
aI0
aI1
aI0
aI0
aI0
aI0
aF1.43
aF0.8
aI5
aI0
aI0
aI0
aI0
aI0
aI0
aI0
aI0
aI0
aI0
aI0
aI0
aI0
aI0
aI0
aI0
aI0
aI0
aI0
aI0
aI0
aI0
aI0
aI0
aF1.0
aa.(lp0
(lp1
I0
aI1
aI0
aI0
aI0
aI1
aI0
aI0
aI0
aI0
aF0.7016666666666667
aF1.12
aI5
aI0
aI0
aI0
aI0
aI0
aI0
aI0
aI0
aI0
aI0
aI0
aI0
aI0
aI0
aI0
aI0
aI0
aI0
aI0
aI0
aI0
aI0
aI0
aI0
aF0.5
aa.(lp0
(lp1
I1
aI0
aI0
aI0
aI0
aI0
aI0
aI0
aI0
aI0
aF0.3016666666666667
aF0.48
aI4
aI0
aI0
aI0
aI0
aI0
aI0
aI0
aI0
aI0
aI0
aI0
aI0
aI0
aI0
aI0
aI0
aI0
aI0
aI0
aI0
aI0
aI0
aI0
aI0
aF0.625
aa.(lp0
(lp1
I0
aI1
aI0
aI0
aI0
aI1
aI0
aI0
aI0
aI0
aF1.4806666666666666
aF0.8
aI3
aI0
aI0
aI0
aI0
aI0
aI0
aI0
aI0
aI0
aI0
aI0
aI0
aI0
aI0
aI0
aI0
aI0
aI0
aI0
aI0
aI0
aI0
aI0
aI0
aF0.75
aa.(lp0
(lp1
I1
aI0
aI0
aI0
aI0
aI0
aI0
aI0
aI0
aI0
aF5.086
aF0.48
aI3
aI0
aI0
aI0
aI0
aI0
aI0
aI0
aI0
aI0
aI0
aI0
aI0
aI0
aI0
aI0
aI0
aI0
aI0
aI0
aI0
aI0
aI0
aI0
aI0
aF0.5
aa.(lp0
(lp1
I0
aI0
aI0
aI0
aI0
aI1
aI0
aI0
aI0
aI0
aF1.2166666666666666
aF0.96
aI3
aI0
aI0
aI0
aI0
aI0
aI0
aI0
aI0
aI0
aI0
aI0
aI0
aI0
aI0
aI0
aI0
aI0
aI0
aI0
aI0
aI0
aI0
aI0
aI0
aF0.9375
aa.(lp0
(lp1
I0
aI1
aI0
aI0
aI0
aI1
aI0
aI0
aI0
aI0
aF0.595
aF0.96
aI3
aI0
aI0
aI0
aI0
aI0
aI0
aI0
aI0
aI0
aI0
aI0
aI0
aI0
aI0
aI0
aI0
aI0
aI0
aI0
aI0
aI0
aI0
aI0
aI0
aF0.9375
aa.(lp0
(lp1
I0
aI1
aI0
aI0
aI0
aI1
aI0
aI0
aI0
aI0
aF0.195
aF0.96
aI3
aI0
aI0
aI0
aI0
aI0
aI0
aI0
aI0
aI0
aI0
aI0
aI0
aI0
aI0
aI0
aI0
aI0
aI0
aI0
aI0
aI0
aI0
aI0
aI0
aF0.75
aa.(lp0
(lp1
I0
aI0
aI0
aI0
aI0
aI1
aI0
aI0
aI0
aI0
aF1.374
aF0.8
aI4
aI0
aI0
aI0
aI0
aI0
aI0
aI0
aI0
aI0
aI0
aI0
aI0
aI0
aI0
aI0
aI0
aI0
aI0
aI0
aI0
aI0
aI0
aI0
aI0
aF0.625
aa.(lp0
(lp1
I1
aI0
aI0
aI0
aI0
aI0
aI0
aI0
aI0
aI0
aF5.086
aF0.48
aI4
aI0
aI0
aI0
aI0
aI0
aI0
aI0
aI0
aI0
aI0
aI0
aI0
aI0
aI0
aI0
aI0
aI0
aI0
aI0
aI0
aI0
aI0
aI0
aI0
aF0.875
aa.(lp0
(lp1
I1
aI0
aI0
aI0
aI0
aI0
aI0
aI0
aI0
aI0
aF1.5366666666666666
aF0.8
aI3
aI0
aI0
aI0
aI0
aI0
aI0
aI0
aI0
aI0
aI0
aI0
aI0
aI0
aI0
aI0
aI0
aI0
aI0
aI0
aI0
aI0
aI0
aI0
aI0
aF1.0
aa.(lp0
(lp1
I0
aI1
aI0
aI0
aI0
aI1
aI0
aI0
aI0
aI0
aF0.48833333333333334
aF0.96
aI3
aI0
aI0
aI0
aI0
aI0
aI0
aI0
aI0
aI0
aI0
aI0
aI0
aI0
aI0
aI0
aI0
aI0
aI0
aI0
aI0
aI0
aI0
aI0
aI0
aF0.5
aa.(lp0
(lp1
I1
aI0
aI0
aI0
aI0
aI0
aI0
aI0
aI0
aI0
aF0.14166666666666666
aF1.12
aI3
aI0
aI0
aI0
aI0
aI0
aI0
aI0
aI0
aI0
aI0
aI0
aI0
aI0
aI0
aI0
aI0
aI0
aI0
aI0
aI0
aI0
aI0
aI0
aI0
aF0.875
aa.(lp0
(lp1
I0
aI0
aI1
aI0
aI0
aI1
aI0
aI0
aI0
aI0
aF1.694
aF0.8
aI5
aI0
aI0
aI0
aI0
aI0
aI0
aI0
aI0
aI0
aI0
aI0
aI0
aI0
aI0
aI0
aI0
aI0
aI0
aI0
aI0
aI0
aI0
aI0
aI0
aF0.625
aa.(lp0
(lp1
I1
aI0
aI0
aI0
aI0
aI0
aI0
aI0
aI0
aI0
aF4.979333333333333
aF1.12
aI2
aI0
aI0
aI0
aI0
aI0
aI0
aI0
aI0
aI0
aI0
aI0
aI0
aI0
aI0
aI0
aI0
aI0
aI0
aI0
aI0
aI0
aI0
aI0
aI0
aF0.75
aa.(lp0
(lp1
I0
aI0
aI0
aI0
aI0
aI1
aI0
aI0
aI0
aI0
aF1.43
aF1.12
aI5
aI0
aI0
aI0
aI0
aI0
aI0
aI0
aI0
aI0
aI0
aI0
aI0
aI0
aI0
aI0
aI0
aI0
aI0
aI0
aI0
aI0
aI0
aI0
aI0
aF0.5
aa.(lp0
(lp1
I1
aI0
aI0
aI0
aI0
aI0
aI0
aI0
aI0
aI0
aF0.38166666666666665
aF1.12
aI4
aI0
aI0
aI0
aI0
aI0
aI0
aI0
aI0
aI0
aI0
aI0
aI0
aI0
aI0
aI0
aI0
aI0
aI0
aI0
aI0
aI0
aI0
aI0
aI0
aF1.0
aa.(lp0
(lp1
I1
aI0
aI0
aI0
aI0
aI0
aI0
aI0
aI0
aI0
aF0.14166666666666666
aF1.6
aI3
aI0
aI0
aI0
aI0
aI0
aI0
aI0
aI0
aI0
aI0
aI0
aI0
aI0
aI0
aI0
aI0
aI0
aI0
aI0
aI0
aI0
aI0
aI0
aI0
aF0.875
aa.(lp0
(lp1
I0
aI0
aI0
aI0
aI0
aI1
aI0
aI0
aI0
aI0
aF1.374
aF1.92
aI3
aI0
aI0
aI0
aI0
aI0
aI0
aI0
aI0
aI0
aI0
aI0
aI0
aI0
aI0
aI0
aI0
aI0
aI0
aI0
aI0
aI0
aI0
aI0
aI0
aF0.5
aa.(lp0
(lp1
I0
aI1
aI0
aI0
aI0
aI1
aI0
aI0
aI0
aI0
aF4.766
aF1.92
aI3
aI0
aI0
aI0
aI0
aI0
aI0
aI0
aI0
aI0
aI0
aI0
aI0
aI0
aI0
aI0
aI0
aI0
aI0
aI0
aI0
aI0
aI0
aI0
aI0
aF0.625
aa.(lp0
(lp1
I0
aI1
aI0
aI0
aI0
aI1
aI0
aI0
aI0
aI0
aF1.6966666666666668
aF1.6
aI5
aI0
aI0
aI0
aI0
aI0
aI0
aI0
aI0
aI0
aI0
aI0
aI0
aI0
aI0
aI0
aI0
aI0
aI0
aI0
aI0
aI0
aI0
aI0
aI0
aF0.75
aa.(lp0
(lp1
I1
aI0
aI0
aI0
aI0
aI0
aI0
aI0
aI0
aI0
aF0.38166666666666665
aF1.6
aI4
aI0
aI0
aI0
aI0
aI0
aI0
aI0
aI0
aI0
aI0
aI0
aI0
aI0
aI0
aI0
aI0
aI0
aI0
aI0
aI0
aI0
aI0
aI0
aI0
aF1.0
aa.(lp0
(lp1
I1
aI0
aI0
aI0
aI0
aI0
aI0
aI0
aI0
aI0
aF0.14166666666666666
aF0.96
aI3
aI0
aI0
aI0
aI0
aI0
aI0
aI0
aI0
aI0
aI0
aI0
aI0
aI0
aI0
aI0
aI0
aI0
aI0
aI0
aI0
aI0
aI0
aI0
aI0
aF0.875
aa.(lp0
(lp1
I0
aI1
aI0
aI0
aI0
aI1
aI0
aI0
aI0
aI0
aF1.5873333333333333
aF3.2
aI3
aI0
aI0
aI0
aI0
aI0
aI0
aI0
aI0
aI0
aI0
aI0
aI0
aI0
aI0
aI0
aI0
aI0
aI0
aI0
aI0
aI0
aI0
aI0
aI0
aF0.75
aa.(lp0
(lp1
I0
aI0
aI0
aI0
aI0
aI0
aI0
aI1
aI0
aI0
aF4.339333333333333
aF2.24
aI3
aI0
aI0
aI0
aI0
aI0
aI0
aI0
aI0
aI0
aI0
aI0
aI0
aI0
aI0
aI0
aI0
aI0
aI0
aI0
aI0
aI0
aI0
aI0
aI0
aF0.625
aa.(lp0
(lp1
I0
aI0
aI0
aI0
aI0
aI1
aI0
aI0
aI0
aI0
aF1.27
aF3.84
aI3
aI0
aI0
aI0
aI0
aI0
aI0
aI0
aI0
aI0
aI0
aI0
aI0
aI0
aI0
aI0
aI0
aI0
aI0
aI0
aI0
aI0
aI0
aI0
aI0
aF0.5
aa.(lp0
(lp1
I1
aI0
aI0
aI0
aI0
aI0
aI0
aI0
aI0
aI0
aF0.38166666666666665
aF0.96
aI4
aI0
aI0
aI0
aI0
aI0
aI0
aI0
aI0
aI0
aI0
aI0
aI0
aI0
aI0
aI0
aI0
aI0
aI0
aI0
aI0
aI0
aI0
aI0
aI0
aF1.0
aa.(lp0
(lp1
I1
aI0
aI0
aI0
aI0
aI0
aI0
aI0
aI0
aI0
aF0.14166666666666666
aF0.96
aI4
aI0
aI0
aI0
aI0
aI0
aI0
aI0
aI0
aI0
aI0
aI0
aI0
aI0
aI0
aI0
aI0
aI0
aI0
aI0
aI0
aI0
aI0
aI0
aI0
aF0.75
aa.(lp0
(lp1
I0
aI0
aI0
aI0
aI0
aI1
aI0
aI0
aI0
aI0
aF1.1606666666666667
aF1.6
aI3
aI0
aI0
aI0
aI0
aI0
aI0
aI0
aI0
aI0
aI0
aI0
aI0
aI0
aI0
aI0
aI0
aI0
aI0
aI0
aI0
aI0
aI0
aI0
aI0
aF0.625
aa.(lp0
(lp1
I1
aI0
aI0
aI0
aI0
aI0
aI0
aI0
aI0
aI0
aF3.0693333333333332
aF0.96
aI3
aI0
aI0
aI0
aI0
aI0
aI0
aI0
aI0
aI0
aI0
aI0
aI0
aI0
aI0
aI0
aI0
aI0
aI0
aI0
aI0
aI0
aI0
aI0
aI0
aF1.0
aa.(lp0
(lp1
I0
aI1
aI0
aI0
aI0
aI1
aI0
aI0
aI0
aI0
aF3.82
aF1.92
aI3
aI0
aI0
aI0
aI0
aI0
aI0
aI0
aI0
aI0
aI0
aI0
aI0
aI0
aI0
aI0
aI0
aI0
aI0
aI0
aI0
aI0
aI0
aI0
aI0
aF0.875
aa.(lp0
(lp1
I1
aI0
aI0
aI0
aI0
aI0
aI0
aI0
aI0
aI0
aF0.16833333333333333
aF1.92
aI2
aI0
aI0
aI0
aI0
aI0
aI0
aI0
aI0
aI0
aI0
aI0
aI0
aI0
aI0
aI0
aI0
aI0
aI0
aI0
aI0
aI0
aI0
aI0
aI0
aF0.5
aa.(lp0
(lp1
I1
aI0
aI0
aI0
aI0
aI0
aI0
aI0
aI0
aI0
aF3.0693333333333332
aF0.745
aI4
aI0
aI0
aI0
aI0
aI0
aI0
aI0
aI0
aI0
aI0
aI0
aI0
aI0
aI0
aI0
aI0
aI0
aI0
aI0
aI0
aI0
aI0
aI0
aI0
aF0.875
aa.(lp0
(lp1
I0
aI0
aI0
aI0
aI0
aI1
aI0
aI0
aI0
aI0
aF1.659
aF1.17
aI4
aI0
aI0
aI0
aI0
aI0
aI0
aI0
aI0
aI0
aI0
aI0
aI0
aI0
aI0
aI0
aI0
aI0
aI0
aI0
aI0
aI0
aI0
aI0
aI0
aF0.75
aa.(lp0
(lp1
I0
aI1
aI0
aI0
aI0
aI1
aI0
aI0
aI0
aI0
aF3.6783333333333332
aF1.595
aI4
aI0
aI0
aI0
aI0
aI0
aI0
aI0
aI0
aI0
aI0
aI0
aI0
aI0
aI0
aI0
aI0
aI0
aI0
aI0
aI0
aI0
aI0
aI0
aI0
aF0.625
aa.(lp0
(lp1
I1
aI0
aI0
aI0
aI0
aI0
aI0
aI0
aI0
aI0
aF0.06166666666666667
aF1.595
aI3
aI0
aI0
aI0
aI0
aI0
aI0
aI0
aI0
aI0
aI0
aI0
aI0
aI0
aI0
aI0
aI0
aI0
aI0
aI0
aI0
aI0
aI0
aI0
aI0
aF1.0
aa.(lp0
(lp1
I1
aI0
aI0
aI0
aI0
aI0
aI0
aI0
aI0
aI0
aF1.0
aF0.07
aI4
aI0
aI0
aI0
aI0
aI0
aI0
aI0
aI0
aI0
aI0
aI0
aI0
aI0
aI0
aI0
aI0
aI0
aI0
aI0
aI0
aI0
aI0
aI0
aI0
aF0.2
aa.(lp0
(lp1
I0
aI1
aI0
aI0
aI0
aI1
aI0
aI0
aI0
aI0
aF0.9933333333333333
aF0.08
aI4
aI0
aI0
aI0
aI0
aI0
aI0
aI0
aI0
aI0
aI0
aI0
aI0
aI0
aI0
aI0
aI0
aI0
aI0
aI0
aI0
aI0
aI0
aI0
aI0
aF0.4
aa.(lp0
(lp1
I0
aI0
aI0
aI0
aI0
aI1
aI0
aI0
aI0
aI0
aF0.9933333333333333
aF0.07
aI5
aI0
aI0
aI0
aI0
aI0
aI0
aI0
aI0
aI0
aI0
aI0
aI0
aI0
aI0
aI0
aI0
aI0
aI0
aI0
aI0
aI0
aI0
aI0
aI0
aF0.6
aa.(lp0
(lp1
I1
aI0
aI0
aI0
aI0
aI0
aI0
aI0
aI0
aI0
aF1.0
aF0.05
aI5
aI0
aI0
aI0
aI0
aI0
aI0
aI0
aI0
aI0
aI0
aI0
aI0
aI0
aI0
aI0
aI0
aI0
aI0
aI0
aI0
aI0
aI0
aI0
aI0
aF1.0
aa.(lp0
(lp1
I0
aI1
aI0
aI0
aI0
aI1
aI0
aI0
aI0
aI0
aF0.9933333333333333
aF0.05
aI6
aI0
aI0
aI0
aI0
aI0
aI0
aI0
aI0
aI0
aI0
aI0
aI0
aI0
aI0
aI0
aI0
aI0
aI0
aI0
aI0
aI0
aI0
aI0
aI0
aF0.0
aa.(lp0
(lp1
I0
aI1
aI0
aI0
aI0
aI1
aI0
aI0
aI0
aI0
aF0.9933333333333333
aF0.08
aI4
aI0
aI0
aI0
aI0
aI0
aI0
aI0
aI0
aI0
aI0
aI0
aI0
aI0
aI0
aI0
aI0
aI0
aI0
aI0
aI0
aI0
aI0
aI0
aI0
aF0.8
aa.(lp0
(lp1
I0
aI0
aI0
aI0
aI0
aI1
aI0
aI0
aI0
aI0
aF0.9476666666666667
aF0.344
aI5
aI0
aI0
aI0
aI0
aI0
aI0
aI0
aI0
aI0
aI0
aI0
aI0
aI0
aI0
aI0
aI0
aI0
aI0
aI0
aI0
aI0
aI0
aI0
aI0
aF0.0
aa.(lp0
(lp1
I0
aI1
aI0
aI0
aI0
aI1
aI0
aI0
aI0
aI0
aF0.941
aF0.648
aI5
aI0
aI0
aI0
aI0
aI0
aI0
aI0
aI0
aI0
aI0
aI0
aI0
aI0
aI0
aI0
aI0
aI0
aI0
aI0
aI0
aI0
aI0
aI0
aI0
aF0.6
aa.(lp0
(lp1
I0
aI0
aI0
aI0
aI0
aI0
aI1
aI0
aI0
aI0
aF0.9676666666666667
aF0.187
aI5
aI0
aI0
aI0
aI0
aI0
aI0
aI0
aI0
aI0
aI0
aI0
aI0
aI0
aI0
aI0
aI0
aI0
aI0
aI0
aI0
aI0
aI0
aI0
aI0
aF0.4
aa.(lp0
(lp1
I1
aI0
aI0
aI0
aI0
aI0
aI0
aI0
aI0
aI0
aF1.0
aF0.03
aI5
aI0
aI0
aI0
aI0
aI0
aI0
aI0
aI0
aI0
aI0
aI0
aI0
aI0
aI0
aI0
aI0
aI0
aI0
aI0
aI0
aI0
aI0
aI0
aI0
aF1.0
aa.(lp0
(lp1
I0
aI1
aI0
aI0
aI0
aI1
aI0
aI0
aI0
aI0
aF0.941
aF0.785
aI5
aI0
aI0
aI0
aI0
aI0
aI0
aI0
aI0
aI0
aI0
aI0
aI0
aI0
aI0
aI0
aI0
aI0
aI0
aI0
aI0
aI0
aI0
aI0
aI0
aF0.2
aa.(lp0
(lp1
I0
aI1
aI0
aI0
aI0
aI1
aI0
aI0
aI0
aI0
aF0.941
aF0.501
aI5
aI0
aI0
aI0
aI0
aI0
aI0
aI0
aI0
aI0
aI0
aI0
aI0
aI0
aI0
aI0
aI0
aI0
aI0
aI0
aI0
aI0
aI0
aI0
aI0
aF0.8
aa.(lp0
(lp1
I1
aI0
aI0
aI0
aI0
aI0
aI0
aI0
aI0
aI0
aF2.1003333333333334
aF0.05
aI5
aI0
aI0
aI0
aI0
aI0
aI0
aI0
aI0
aI0
aI0
aI0
aI0
aI0
aI0
aI0
aI0
aI0
aI0
aI0
aI0
aI0
aI0
aI0
aI0
aF0.8
aa.(lp0
(lp1
I0
aI0
aI0
aI0
aI0
aI1
aI0
aI0
aI0
aI0
aF0.9276666666666666
aF0.09
aI5
aI0
aI0
aI0
aI0
aI0
aI0
aI0
aI0
aI0
aI0
aI0
aI0
aI0
aI0
aI0
aI0
aI0
aI0
aI0
aI0
aI0
aI0
aI0
aI0
aF0.4
aa.(lp0
(lp1
I0
aI0
aI0
aI0
aI0
aI1
aI0
aI0
aI0
aI0
aF0.07666666666666666
aF0.05
aI6
aI0
aI0
aI0
aI0
aI0
aI0
aI0
aI0
aI0
aI0
aI0
aI0
aI0
aI0
aI0
aI0
aI0
aI0
aI0
aI0
aI0
aI0
aI0
aI0
aF0.2
aa.(lp0
(lp1
I0
aI1
aI0
aI0
aI0
aI1
aI0
aI0
aI0
aI0
aF0.9933333333333333
aF0.1
aI5
aI0
aI0
aI0
aI0
aI0
aI0
aI0
aI0
aI0
aI0
aI0
aI0
aI0
aI0
aI0
aI0
aI0
aI0
aI0
aI0
aI0
aI0
aI0
aI0
aF1.0
aa.(lp0
(lp1
I0
aI1
aI0
aI0
aI0
aI1
aI0
aI0
aI0
aI0
aF0.9343333333333333
aF0.1
aI5
aI0
aI0
aI0
aI0
aI0
aI0
aI0
aI0
aI0
aI0
aI0
aI0
aI0
aI0
aI0
aI0
aI0
aI0
aI0
aI0
aI0
aI0
aI0
aI0
aF0.0
aa.(lp0
(lp1
I0
aI1
aI0
aI0
aI0
aI1
aI0
aI0
aI0
aI0
aF0.9343333333333333
aF0.07
aI5
aI0
aI0
aI0
aI0
aI0
aI0
aI0
aI0
aI0
aI0
aI0
aI0
aI0
aI0
aI0
aI0
aI0
aI0
aI0
aI0
aI0
aI0
aI0
aI0
aF0.6
aa.(lp0
(lp1
I0
aI0
aI0
aI0
aI0
aI2
aI0
aI0
aI0
aI0
aF1.9803333333333333
aF1.11
aI4
aI0
aI0
aI0
aI0
aI0
aI0
aI0
aI0
aI0
aI0
aI0
aI0
aI0
aI0
aI0
aI0
aI0
aI0
aI0
aI0
aI0
aI0
aI0
aI0
aF0.4
aa.(lp0
(lp1
I0
aI1
aI0
aI0
aI0
aI0
aI1
aI0
aI0
aI0
aF0.731
aF0.43
aI6
aI0
aI0
aI0
aI0
aI0
aI0
aI0
aI0
aI0
aI0
aI0
aI0
aI0
aI0
aI0
aI0
aI0
aI0
aI0
aI0
aI0
aI0
aI0
aI0
aF0.2
aa.(lp0
(lp1
I0
aI0
aI0
aI0
aI0
aI1
aI0
aI0
aI0
aI0
aF0.06666666666666667
aF0.77
aI4
aI0
aI0
aI0
aI0
aI0
aI0
aI0
aI0
aI0
aI0
aI0
aI0
aI0
aI0
aI0
aI0
aI0
aI0
aI0
aI0
aI0
aI0
aI0
aI0
aF0.6
aa.(lp0
(lp1
I1
aI0
aI0
aI0
aI0
aI0
aI0
aI0
aI0
aI0
aF0.99
aF0.43
aI4
aI0
aI0
aI0
aI0
aI0
aI0
aI0
aI0
aI0
aI0
aI0
aI0
aI0
aI0
aI0
aI0
aI0
aI0
aI0
aI0
aI0
aI0
aI0
aI0
aF0.8
aa.(lp0
(lp1
I1
aI0
aI0
aI0
aI0
aI0
aI0
aI0
aI0
aI0
aF0.9343333333333333
aF0.43
aI5
aI0
aI0
aI0
aI0
aI0
aI0
aI0
aI0
aI0
aI0
aI0
aI0
aI0
aI0
aI0
aI0
aI0
aI0
aI0
aI0
aI0
aI0
aI0
aI0
aF1.0
aa.(lp0
(lp1
I0
aI1
aI0
aI0
aI0
aI2
aI0
aI0
aI0
aI0
aF0.8143333333333334
aF1.45
aI4
aI0
aI0
aI0
aI0
aI0
aI0
aI0
aI0
aI0
aI0
aI0
aI0
aI0
aI0
aI0
aI0
aI0
aI0
aI0
aI0
aI0
aI0
aI0
aI0
aF0.0
aa.(lp0
(lp1
I0
aI1
aI0
aI0
aI0
aI1
aI0
aI0
aI0
aI0
aF2.5236666666666667
aF0.1
aI5
aI0
aI0
aI0
aI0
aI0
aI0
aI0
aI0
aI0
aI0
aI0
aI0
aI0
aI0
aI0
aI0
aI0
aI0
aI0
aI0
aI0
aI0
aI0
aI0
aF0.8
aa.(lp0
(lp1
I0
aI0
aI0
aI0
aI0
aI1
aI0
aI0
aI0
aI0
aF0.7243333333333334
aF0.05
aI5
aI0
aI0
aI0
aI0
aI0
aI0
aI0
aI0
aI0
aI0
aI0
aI0
aI0
aI0
aI0
aI0
aI0
aI0
aI0
aI0
aI0
aI0
aI0
aI0
aF0.4
aa.(lp0
(lp1
I0
aI1
aI0
aI0
aI0
aI1
aI0
aI0
aI0
aI0
aF0.9833333333333333
aF0.09
aI5
aI0
aI0
aI0
aI0
aI0
aI0
aI0
aI0
aI0
aI0
aI0
aI0
aI0
aI0
aI0
aI0
aI0
aI0
aI0
aI0
aI0
aI0
aI0
aI0
aF0.2
aa.(lp0
(lp1
I0
aI0
aI1
aI0
aI0
aI1
aI0
aI0
aI0
aI0
aF0.9276666666666666
aF0.07
aI5
aI0
aI0
aI0
aI0
aI0
aI0
aI0
aI0
aI0
aI0
aI0
aI0
aI0
aI0
aI0
aI0
aI0
aI0
aI0
aI0
aI0
aI0
aI0
aI0
aF0.6
aa.(lp0
(lp1
I0
aI1
aI0
aI0
aI0
aI1
aI0
aI0
aI0
aI0
aF0.8076666666666666
aF0.1
aI5
aI0
aI0
aI0
aI0
aI0
aI0
aI0
aI0
aI0
aI0
aI0
aI0
aI0
aI0
aI0
aI0
aI0
aI0
aI0
aI0
aI0
aI0
aI0
aI0
aF1.0
aa.(lp0
(lp1
I0
aI1
aI0
aI0
aI0
aI2
aI0
aI0
aI0
aI0
aF2.3903333333333334
aF0.88
aI3
aI0
aI0
aI0
aI0
aI0
aI0
aI0
aI0
aI0
aI0
aI0
aI0
aI0
aI0
aI0
aI0
aI0
aI0
aI0
aI0
aI0
aI0
aI0
aI0
aF0.4
aa.(lp0
(lp1
I0
aI0
aI1
aI0
aI0
aI0
aI1
aI0
aI0
aI0
aF0.7443333333333333
aF0.52
aI4
aI0
aI0
aI0
aI0
aI0
aI0
aI0
aI0
aI0
aI0
aI0
aI0
aI0
aI0
aI0
aI0
aI0
aI0
aI0
aI0
aI0
aI0
aI0
aI0
aF0.2
aa.(lp0
(lp1
I1
aI0
aI0
aI0
aI0
aI0
aI0
aI0
aI0
aI0
aF0.9833333333333333
aF0.1
aI4
aI0
aI0
aI0
aI0
aI0
aI0
aI0
aI0
aI0
aI0
aI0
aI0
aI0
aI0
aI0
aI0
aI0
aI0
aI0
aI0
aI0
aI0
aI0
aI0
aF1.0
aa.(lp0
(lp1
I1
aI0
aI0
aI0
aI0
aI1
aI0
aI0
aI0
aI0
aF0.7943333333333333
aF0.52
aI3
aI0
aI0
aI0
aI0
aI0
aI0
aI0
aI0
aI0
aI0
aI0
aI0
aI0
aI0
aI0
aI0
aI0
aI0
aI0
aI0
aI0
aI0
aI0
aI0
aF0.8
aa.(lp0
(lp1
I0
aI0
aI0
aI0
aI0
aI2
aI0
aI0
aI0
aI0
aF0.6743333333333333
aF1.24
aI3
aI0
aI0
aI0
aI0
aI0
aI0
aI0
aI0
aI0
aI0
aI0
aI0
aI0
aI0
aI0
aI0
aI0
aI0
aI0
aI0
aI0
aI0
aI0
aI0
aF0.6
aa.(lp0
(lp1
I1
aI0
aI0
aI0
aI0
aI0
aI0
aI0
aI0
aI0
aF2.3903333333333334
aF0.06
aI3
aI0
aI0
aI0
aI0
aI0
aI0
aI0
aI0
aI0
aI0
aI0
aI0
aI0
aI0
aI0
aI0
aI0
aI0
aI0
aI0
aI0
aI0
aI0
aI0
aF0.6
aa.(lp0
(lp1
I0
aI1
aI0
aI0
aI0
aI1
aI0
aI0
aI0
aI0
aF0.7176666666666667
aF0.12
aI3
aI0
aI0
aI0
aI0
aI0
aI0
aI0
aI0
aI0
aI0
aI0
aI0
aI0
aI0
aI0
aI0
aI0
aI0
aI0
aI0
aI0
aI0
aI0
aI0
aF1.0
aa.(lp0
(lp1
I1
aI0
aI0
aI0
aI0
aI0
aI0
aI0
aI0
aI0
aF0.9833333333333333
aF0.06
aI4
aI0
aI0
aI0
aI0
aI0
aI0
aI0
aI0
aI0
aI0
aI0
aI0
aI0
aI0
aI0
aI0
aI0
aI0
aI0
aI0
aI0
aI0
aI0
aI0
aF0.8
aa.(lp0
(lp1
I0
aI0
aI0
aI0
aI0
aI1
aI0
aI0
aI0
aI0
aF0.781
aF0.12
aI3
aI0
aI0
aI0
aI0
aI0
aI0
aI0
aI0
aI0
aI0
aI0
aI0
aI0
aI0
aI0
aI0
aI0
aI0
aI0
aI0
aI0
aI0
aI0
aI0
aF0.4
aa.(lp0
(lp1
I0
aI1
aI0
aI0
aI0
aI1
aI0
aI0
aI0
aI0
aF1.0876666666666666
aF0.1
aI3
aI0
aI0
aI0
aI0
aI0
aI0
aI0
aI0
aI0
aI0
aI0
aI0
aI0
aI0
aI0
aI0
aI0
aI0
aI0
aI0
aI0
aI0
aI0
aI0
aF0.2
aa.(lp0
(lp1
I1
aI0
aI0
aI0
aI0
aI0
aI0
aI0
aI0
aI0
aF2.3903333333333334
aF0.06
aI4
aI0
aI0
aI0
aI0
aI0
aI0
aI0
aI0
aI0
aI0
aI0
aI0
aI0
aI0
aI0
aI0
aI0
aI0
aI0
aI0
aI0
aI0
aI0
aI0
aF0.2
aa.(lp0
(lp1
I0
aI1
aI0
aI0
aI0
aI1
aI0
aI0
aI0
aI0
aF0.7043333333333334
aF0.14
aI4
aI0
aI0
aI0
aI0
aI0
aI0
aI0
aI0
aI0
aI0
aI0
aI0
aI0
aI0
aI0
aI0
aI0
aI0
aI0
aI0
aI0
aI0
aI0
aI0
aF0.9
aa.(lp0
(lp1
I0
aI1
aI0
aI0
aI0
aI1
aI0
aI0
aI0
aI0
aF0.97
aF0.16
aI4
aI0
aI0
aI0
aI0
aI0
aI0
aI0
aI0
aI0
aI0
aI0
aI0
aI0
aI0
aI0
aI0
aI0
aI0
aI0
aI0
aI0
aI0
aI0
aI0
aF0.9
aa.(lp0
(lp1
I0
aI0
aI1
aI0
aI0
aI1
aI0
aI0
aI0
aI0
aF0.8076666666666666
aF0.16
aI4
aI0
aI0
aI0
aI0
aI0
aI0
aI0
aI0
aI0
aI0
aI0
aI0
aI0
aI0
aI0
aI0
aI0
aI0
aI0
aI0
aI0
aI0
aI0
aI0
aF0.6
aa.(lp0
(lp1
I0
aI0
aI0
aI0
aI0
aI1
aI0
aI0
aI0
aI0
aF1.0743333333333334
aF0.1
aI4
aI0
aI0
aI0
aI0
aI0
aI0
aI0
aI0
aI0
aI0
aI0
aI0
aI0
aI0
aI0
aI0
aI0
aI0
aI0
aI0
aI0
aI0
aI0
aI0
aF0.4
aa.(lp0
(lp1
I1
aI0
aI0
aI0
aI0
aI0
aI0
aI0
aI0
aI0
aF2.377
aF0.46
aI2
aI0
aI0
aI0
aI0
aI0
aI0
aI0
aI0
aI0
aI0
aI0
aI0
aI0
aI0
aI0
aI0
aI0
aI0
aI0
aI0
aI0
aI0
aI0
aI0
aF1.0
aa.(lp0
(lp1
I0
aI1
aI0
aI0
aI0
aI0
aI1
aI0
aI0
aI0
aF0.5843333333333334
aF0.46
aI5
aI0
aI0
aI0
aI0
aI0
aI0
aI0
aI0
aI0
aI0
aI0
aI0
aI0
aI0
aI0
aI0
aI0
aI0
aI0
aI0
aI0
aI0
aI0
aI0
aF0.4
aa.(lp0
(lp1
I1
aI0
aI0
aI0
aI0
aI0
aI0
aI0
aI0
aI0
aF0.9633333333333334
aF0.46
aI3
aI0
aI0
aI0
aI0
aI0
aI0
aI0
aI0
aI0
aI0
aI0
aI0
aI0
aI0
aI0
aI0
aI0
aI0
aI0
aI0
aI0
aI0
aI0
aI0
aF0.2
aa.(lp0
(lp1
I1
aI0
aI0
aI0
aI0
aI0
aI0
aI0
aI0
aI0
aF0.7943333333333333
aF0.46
aI4
aI0
aI0
aI0
aI0
aI0
aI0
aI0
aI0
aI0
aI0
aI0
aI0
aI0
aI0
aI0
aI0
aI0
aI0
aI0
aI0
aI0
aI0
aI0
aI0
aF0.6
aa.(lp0
(lp1
I0
aI0
aI0
aI0
aI0
aI2
aI0
aI0
aI0
aI0
aF1.021
aF0.78
aI2
aI0
aI0
aI0
aI0
aI0
aI0
aI0
aI0
aI0
aI0
aI0
aI0
aI0
aI0
aI0
aI0
aI0
aI0
aI0
aI0
aI0
aI0
aI0
aI0
aF0.8
aa.(lp0
(lp1
I1
aI0
aI0
aI0
aI0
aI0
aI0
aI0
aI0
aI0
aF2.3703333333333334
aF0.18
aI4
aI0
aI0
aI0
aI0
aI0
aI0
aI0
aI0
aI0
aI0
aI0
aI0
aI0
aI0
aI0
aI0
aI0
aI0
aI0
aI0
aI0
aI0
aI0
aI0
aF0.6
aa.(lp0
(lp1
I0
aI0
aI1
aI0
aI0
aI1
aI0
aI0
aI0
aI0
aF0.571
aF0.1
aI5
aI0
aI0
aI0
aI0
aI0
aI0
aI0
aI0
aI0
aI0
aI0
aI0
aI0
aI0
aI0
aI0
aI0
aI0
aI0
aI0
aI0
aI0
aI0
aI0
aF1.0
aa.(lp0
(lp1
I0
aI0
aI0
aI0
aI0
aI1
aI0
aI0
aI0
aI0
aF0.95
aF0.18
aI5
aI0
aI0
aI0
aI0
aI0
aI0
aI0
aI0
aI0
aI0
aI0
aI0
aI0
aI0
aI0
aI0
aI0
aI0
aI0
aI0
aI0
aI0
aI0
aI0
aF0.2
aa.(lp0
(lp1
I0
aI0
aI1
aI0
aI0
aI1
aI0
aI0
aI0
aI0
aF0.781
aF0.14
aI5
aI0
aI0
aI0
aI0
aI0
aI0
aI0
aI0
aI0
aI0
aI0
aI0
aI0
aI0
aI0
aI0
aI0
aI0
aI0
aI0
aI0
aI0
aI0
aI0
aF0.4
aa.(lp0
(lp1
I0
aI1
aI0
aI0
aI0
aI1
aI0
aI0
aI0
aI0
aF1.2676666666666667
aF0.18
aI4
aI0
aI0
aI0
aI0
aI0
aI0
aI0
aI0
aI0
aI0
aI0
aI0
aI0
aI0
aI0
aI0
aI0
aI0
aI0
aI0
aI0
aI0
aI0
aI0
aF0.8
aa.(lp0
(lp1
I1
aI0
aI0
aI0
aI0
aI0
aI0
aI0
aI0
aI0
aF2.3703333333333334
aF0.28
aI4
aI0
aI0
aI0
aI0
aI0
aI0
aI0
aI0
aI0
aI0
aI0
aI0
aI0
aI0
aI0
aI0
aI0
aI0
aI0
aI0
aI0
aI0
aI0
aI0
aF1.0
aa.(lp0
(lp1
I0
aI0
aI0
aI0
aI0
aI1
aI0
aI0
aI0
aI0
aF0.38433333333333336
aF0.32
aI4
aI0
aI0
aI0
aI0
aI0
aI0
aI0
aI0
aI0
aI0
aI0
aI0
aI0
aI0
aI0
aI0
aI0
aI0
aI0
aI0
aI0
aI0
aI0
aI0
aF0.6
aa.(lp0
(lp1
I0
aI1
aI0
aI0
aI0
aI1
aI0
aI0
aI0
aI0
aF1.1833333333333333
aF0.28
aI5
aI0
aI0
aI0
aI0
aI0
aI0
aI0
aI0
aI0
aI0
aI0
aI0
aI0
aI0
aI0
aI0
aI0
aI0
aI0
aI0
aI0
aI0
aI0
aI0
aF0.2
aa.(lp0
(lp1
I0
aI1
aI0
aI0
aI0
aI1
aI0
aI0
aI0
aI0
aF0.7143333333333334
aF0.2
aI5
aI0
aI0
aI0
aI0
aI0
aI0
aI0
aI0
aI0
aI0
aI0
aI0
aI0
aI0
aI0
aI0
aI0
aI0
aI0
aI0
aI0
aI0
aI0
aI0
aF0.4
aa.(lp0
(lp1
I0
aI1
aI0
aI0
aI0
aI1
aI0
aI0
aI0
aI0
aF1.241
aF0.32
aI4
aI0
aI0
aI0
aI0
aI0
aI0
aI0
aI0
aI0
aI0
aI0
aI0
aI0
aI0
aI0
aI0
aI0
aI0
aI0
aI0
aI0
aI0
aI0
aI0
aF0.8
aa.(lp0
(lp1
I0
aI1
aI0
aI0
aI0
aI0
aI0
aI1
aI0
aI0
aF2.317
aF0.28
aI4
aI0
aI0
aI0
aI0
aI0
aI0
aI0
aI0
aI0
aI0
aI0
aI0
aI0
aI0
aI0
aI0
aI0
aI0
aI0
aI0
aI0
aI0
aI0
aI0
aF0.2
aa.(lp0
(lp1
I0
aI0
aI0
aI0
aI0
aI1
aI0
aI0
aI0
aI0
aF0.43766666666666665
aF0.56
aI4
aI0
aI0
aI0
aI0
aI0
aI0
aI0
aI0
aI0
aI0
aI0
aI0
aI0
aI0
aI0
aI0
aI0
aI0
aI0
aI0
aI0
aI0
aI0
aI0
aF0.8
aa.(lp0
(lp1
I1
aI0
aI0
aI0
aI0
aI0
aI0
aI0
aI0
aI0
aF1.1833333333333333
aF0.12
aI4
aI0
aI0
aI0
aI0
aI0
aI0
aI0
aI0
aI0
aI0
aI0
aI0
aI0
aI0
aI0
aI0
aI0
aI0
aI0
aI0
aI0
aI0
aI0
aI0
aF0.6
aa.(lp0
(lp1
I1
aI0
aI0
aI0
aI0
aI0
aI0
aI0
aI0
aI0
aF0.6876666666666666
aF0.56
aI3
aI0
aI0
aI0
aI0
aI0
aI0
aI0
aI0
aI0
aI0
aI0
aI0
aI0
aI0
aI0
aI0
aI0
aI0
aI0
aI0
aI0
aI0
aI0
aI0
aF1.0
aa.(lp0
(lp1
I0
aI1
aI0
aI0
aI0
aI1
aI0
aI0
aI0
aI0
aF1.1876666666666666
aF0.44
aI4
aI0
aI0
aI0
aI0
aI0
aI0
aI0
aI0
aI0
aI0
aI0
aI0
aI0
aI0
aI0
aI0
aI0
aI0
aI0
aI0
aI0
aI0
aI0
aI0
aF0.4
aa.(lp0
(lp1
I1
aI0
aI0
aI0
aI0
aI0
aI0
aI0
aI0
aI0
aF2.317
aF0.12
aI4
aI0
aI0
aI0
aI0
aI0
aI0
aI0
aI0
aI0
aI0
aI0
aI0
aI0
aI0
aI0
aI0
aI0
aI0
aI0
aI0
aI0
aI0
aI0
aI0
aF1.0
aa.(lp0
(lp1
I0
aI1
aI0
aI0
aI0
aI1
aI0
aI0
aI0
aI0
aF0.5976666666666667
aF0.28
aI4
aI0
aI0
aI0
aI0
aI0
aI0
aI0
aI0
aI0
aI0
aI0
aI0
aI0
aI0
aI0
aI0
aI0
aI0
aI0
aI0
aI0
aI0
aI0
aI0
aF0.6
aa.(lp0
(lp1
I0
aI1
aI0
aI0
aI0
aI1
aI0
aI0
aI0
aI0
aF1.1566666666666667
aF0.32
aI4
aI0
aI0
aI0
aI0
aI0
aI0
aI0
aI0
aI0
aI0
aI0
aI0
aI0
aI0
aI0
aI0
aI0
aI0
aI0
aI0
aI0
aI0
aI0
aI0
aF0.8
aa.(lp0
(lp1
I0
aI0
aI0
aI0
aI0
aI1
aI0
aI0
aI0
aI0
aF0.661
aF0.32
aI4
aI0
aI0
aI0
aI0
aI0
aI0
aI0
aI0
aI0
aI0
aI0
aI0
aI0
aI0
aI0
aI0
aI0
aI0
aI0
aI0
aI0
aI0
aI0
aI0
aF0.4
aa.(lp0
(lp1
I0
aI1
aI0
aI0
aI0
aI1
aI0
aI0
aI0
aI0
aF1.161
aF0.2
aI4
aI0
aI0
aI0
aI0
aI0
aI0
aI0
aI0
aI0
aI0
aI0
aI0
aI0
aI0
aI0
aI0
aI0
aI0
aI0
aI0
aI0
aI0
aI0
aI0
aF0.2
aa.(lp0
(lp1
I0
aI0
aI0
aI0
aI0
aI1
aI0
aI0
aI0
aI0
aF2.197
aF1.2
aI4
aI0
aI0
aI0
aI0
aI0
aI0
aI0
aI0
aI0
aI0
aI0
aI0
aI0
aI0
aI0
aI0
aI0
aI0
aI0
aI0
aI0
aI0
aI0
aI0
aF0.2
aa.(lp0
(lp1
I0
aI0
aI0
aI0
aI0
aI0
aI1
aI0
aI0
aI0
aF0.4776666666666667
aF0.56
aI5
aI0
aI0
aI0
aI0
aI0
aI0
aI0
aI0
aI0
aI0
aI0
aI0
aI0
aI0
aI0
aI0
aI0
aI0
aI0
aI0
aI0
aI0
aI0
aI0
aF0.6
aa.(lp0
(lp1
I1
aI0
aI0
aI0
aI0
aI0
aI0
aI0
aI0
aI0
aF1.1433333333333333
aF0.92
aI4
aI0
aI0
aI0
aI0
aI0
aI0
aI0
aI0
aI0
aI0
aI0
aI0
aI0
aI0
aI0
aI0
aI0
aI0
aI0
aI0
aI0
aI0
aI0
aI0
aF0.8
aa.(lp0
(lp1
I0
aI1
aI0
aI0
aI0
aI1
aI0
aI0
aI0
aI0
aF0.6476666666666666
aF0.92
aI5
aI0
aI0
aI0
aI0
aI0
aI0
aI0
aI0
aI0
aI0
aI0
aI0
aI0
aI0
aI0
aI0
aI0
aI0
aI0
aI0
aI0
aI0
aI0
aI0
aF0.4
aa.(lp0
(lp1
I0
aI1
aI0
aI0
aI0
aI2
aI0
aI0
aI0
aI0
aF1.041
aF1.48
aI4
aI0
aI0
aI0
aI0
aI0
aI0
aI0
aI0
aI0
aI0
aI0
aI0
aI0
aI0
aI0
aI0
aI0
aI0
aI0
aI0
aI0
aI0
aI0
aI0
aF1.0
aa.(lp0
(lp1
I1
aI0
aI0
aI0
aI0
aI0
aI0
aI0
aI0
aI0
aF3.1546666666666665
aF0.28
aI3
aI0
aI0
aI0
aI0
aI0
aI0
aI0
aI0
aI0
aI0
aI0
aI0
aI0
aI0
aI0
aI0
aI0
aI0
aI0
aI0
aI0
aI0
aI0
aI0
aF1.0
aa.(lp0
(lp1
I0
aI0
aI0
aI0
aI0
aI1
aI0
aI0
aI0
aI0
aF1.1166666666666667
aF0.28
aI4
aI0
aI0
aI0
aI0
aI0
aI0
aI0
aI0
aI0
aI0
aI0
aI0
aI0
aI0
aI0
aI0
aI0
aI0
aI0
aI0
aI0
aI0
aI0
aI0
aF0.6
aa.(lp0
(lp1
I0
aI0
aI1
aI0
aI0
aI1
aI0
aI0
aI0
aI0
aF0.621
aF0.2
aI4
aI0
aI0
aI0
aI0
aI0
aI0
aI0
aI0
aI0
aI0
aI0
aI0
aI0
aI0
aI0
aI0
aI0
aI0
aI0
aI0
aI0
aI0
aI0
aI0
aF0.4
aa.(lp0
(lp1
I0
aI1
aI0
aI0
aI0
aI1
aI0
aI0
aI0
aI0
aF1.0143333333333333
aF0.28
aI3
aI0
aI0
aI0
aI0
aI0
aI0
aI0
aI0
aI0
aI0
aI0
aI0
aI0
aI0
aI0
aI0
aI0
aI0
aI0
aI0
aI0
aI0
aI0
aI0
aF0.8
aa.(lp0
(lp1
I1
aI0
aI0
aI0
aI0
aI0
aI0
aI0
aI0
aI0
aF3.1546666666666665
aF0.4
aI3
aI0
aI0
aI0
aI0
aI0
aI0
aI0
aI0
aI0
aI0
aI0
aI0
aI0
aI0
aI0
aI0
aI0
aI0
aI0
aI0
aI0
aI0
aI0
aI0
aF1.0
aa.(lp0
(lp1
I0
aI0
aI0
aI0
aI0
aI1
aI0
aI0
aI0
aI0
aF1.1566666666666667
aF0.4
aI4
aI0
aI0
aI0
aI0
aI0
aI0
aI0
aI0
aI0
aI0
aI0
aI0
aI0
aI0
aI0
aI0
aI0
aI0
aI0
aI0
aI0
aI0
aI0
aI0
aF0.6
aa.(lp0
(lp1
I0
aI0
aI0
aI0
aI0
aI1
aI0
aI0
aI0
aI0
aF0.5676666666666667
aF0.48
aI3
aI0
aI0
aI0
aI0
aI0
aI0
aI0
aI0
aI0
aI0
aI0
aI0
aI0
aI0
aI0
aI0
aI0
aI0
aI0
aI0
aI0
aI0
aI0
aI0
aF0.8
aa.(lp0
(lp1
I0
aI1
aI0
aI0
aI0
aI1
aI0
aI0
aI0
aI0
aF0.961
aF0.48
aI3
aI0
aI0
aI0
aI0
aI0
aI0
aI0
aI0
aI0
aI0
aI0
aI0
aI0
aI0
aI0
aI0
aI0
aI0
aI0
aI0
aI0
aI0
aI0
aI0
aF0.4
aa.(lp0
(lp1
I0
aI1
aI0
aI0
aI0
aI1
aI0
aI0
aI0
aI0
aF3.1013333333333333
aF0.4
aI4
aI0
aI0
aI0
aI0
aI0
aI0
aI0
aI0
aI0
aI0
aI0
aI0
aI0
aI0
aI0
aI0
aI0
aI0
aI0
aI0
aI0
aI0
aI0
aI0
aF0.6
aa.(lp0
(lp1
I0
aI1
aI0
aI0
aI0
aI1
aI0
aI0
aI0
aI0
aF1.2633333333333334
aF0.64
aI4
aI0
aI0
aI0
aI0
aI0
aI0
aI0
aI0
aI0
aI0
aI0
aI0
aI0
aI0
aI0
aI0
aI0
aI0
aI0
aI0
aI0
aI0
aI0
aI0
aF0.4
aa.(lp0
(lp1
I0
aI0
aI0
aI0
aI0
aI1
aI0
aI0
aI0
aI0
aF0.5143333333333333
aF0.64
aI4
aI0
aI0
aI0
aI0
aI0
aI0
aI0
aI0
aI0
aI0
aI0
aI0
aI0
aI0
aI0
aI0
aI0
aI0
aI0
aI0
aI0
aI0
aI0
aI0
aF1.0
aa.(lp0
(lp1
I0
aI1
aI0
aI0
aI0
aI1
aI0
aI0
aI0
aI0
aF0.9076666666666666
aF0.56
aI4
aI0
aI0
aI0
aI0
aI0
aI0
aI0
aI0
aI0
aI0
aI0
aI0
aI0
aI0
aI0
aI0
aI0
aI0
aI0
aI0
aI0
aI0
aI0
aI0
aF0.8
aa.(lp0
(lp1
I1
aI0
aI0
aI0
aI0
aI0
aI0
aI0
aI0
aI0
aF3.048
aF0.64
aI3
aI0
aI0
aI0
aI0
aI0
aI0
aI0
aI0
aI0
aI0
aI0
aI0
aI0
aI0
aI0
aI0
aI0
aI0
aI0
aI0
aI0
aI0
aI0
aI0
aF0.8
aa.(lp0
(lp1
I0
aI1
aI0
aI0
aI0
aI1
aI0
aI0
aI0
aI0
aF1.21
aF0.64
aI4
aI0
aI0
aI0
aI0
aI0
aI0
aI0
aI0
aI0
aI0
aI0
aI0
aI0
aI0
aI0
aI0
aI0
aI0
aI0
aI0
aI0
aI0
aI0
aI0
aF0.6
aa.(lp0
(lp1
I0
aI0
aI0
aI0
aI0
aI1
aI0
aI0
aI0
aI0
aF0.6743333333333333
aF0.56
aI4
aI0
aI0
aI0
aI0
aI0
aI0
aI0
aI0
aI0
aI0
aI0
aI0
aI0
aI0
aI0
aI0
aI0
aI0
aI0
aI0
aI0
aI0
aI0
aI0
aF0.4
aa.(lp0
(lp1
I0
aI1
aI0
aI0
aI0
aI1
aI0
aI0
aI0
aI0
aF0.8543333333333333
aF0.4
aI4
aI0
aI0
aI0
aI0
aI0
aI0
aI0
aI0
aI0
aI0
aI0
aI0
aI0
aI0
aI0
aI0
aI0
aI0
aI0
aI0
aI0
aI0
aI0
aI0
aF1.0
aa.(lp0
(lp1
I0
aI1
aI0
aI0
aI0
aI1
aI0
aI0
aI0
aI0
aF2.994666666666667
aF0.64
aI4
aI0
aI0
aI0
aI0
aI0
aI0
aI0
aI0
aI0
aI0
aI0
aI0
aI0
aI0
aI0
aI0
aI0
aI0
aI0
aI0
aI0
aI0
aI0
aI0
aF0.8
aa.(lp0
(lp1
I0
aI1
aI0
aI0
aI0
aI1
aI0
aI0
aI0
aI0
aF1.1566666666666667
aF0.56
aI4
aI0
aI0
aI0
aI0
aI0
aI0
aI0
aI0
aI0
aI0
aI0
aI0
aI0
aI0
aI0
aI0
aI0
aI0
aI0
aI0
aI0
aI0
aI0
aI0
aF0.4
aa.(lp0
(lp1
I0
aI1
aI0
aI0
aI0
aI1
aI0
aI0
aI0
aI0
aF0.8343333333333334
aF0.4
aI4
aI0
aI0
aI0
aI0
aI0
aI0
aI0
aI0
aI0
aI0
aI0
aI0
aI0
aI0
aI0
aI0
aI0
aI0
aI0
aI0
aI0
aI0
aI0
aI0
aF0.6
aa.(lp0
(lp1
I0
aI0
aI0
aI0
aI0
aI1
aI0
aI0
aI0
aI0
aF0.801
aF0.64
aI4
aI0
aI0
aI0
aI0
aI0
aI0
aI0
aI0
aI0
aI0
aI0
aI0
aI0
aI0
aI0
aI0
aI0
aI0
aI0
aI0
aI0
aI0
aI0
aI0
aF1.0
aa.(lp0
(lp1
I1
aI0
aI0
aI0
aI0
aI0
aI0
aI0
aI0
aI0
aF2.994666666666667
aF0.48
aI2
aI0
aI0
aI0
aI0
aI0
aI0
aI0
aI0
aI0
aI0
aI0
aI0
aI0
aI0
aI0
aI0
aI0
aI0
aI0
aI0
aI0
aI0
aI0
aI0
aF0.6
aa.(lp0
(lp1
I1
aI0
aI0
aI0
aI0
aI0
aI0
aI0
aI0
aI0
aF1.1566666666666667
aF0.48
aI3
aI0
aI0
aI0
aI0
aI0
aI0
aI0
aI0
aI0
aI0
aI0
aI0
aI0
aI0
aI0
aI0
aI0
aI0
aI0
aI0
aI0
aI0
aI0
aI0
aF0.8
aa.(lp0
(lp1
I0
aI0
aI0
aI0
aI0
aI1
aI0
aI0
aI0
aI0
aF0.7276666666666667
aF0.64
aI2
aI0
aI0
aI0
aI0
aI0
aI0
aI0
aI0
aI0
aI0
aI0
aI0
aI0
aI0
aI0
aI0
aI0
aI0
aI0
aI0
aI0
aI0
aI0
aI0
aF0.4
aa.(lp0
(lp1
I0
aI1
aI0
aI0
aI0
aI1
aI0
aI0
aI0
aI0
aF0.9076666666666666
aF0.64
aI2
aI0
aI0
aI0
aI0
aI0
aI0
aI0
aI0
aI0
aI0
aI0
aI0
aI0
aI0
aI0
aI0
aI0
aI0
aI0
aI0
aI0
aI0
aI0
aI0
aF1.0
aa.(lp0
(lp1
I0
aI1
aI0
aI0
aI0
aI1
aI0
aI0
aI0
aI0
aF2.888
aF0.8
aI4
aI0
aI0
aI0
aI0
aI0
aI0
aI0
aI0
aI0
aI0
aI0
aI0
aI0
aI0
aI0
aI0
aI0
aI0
aI0
aI0
aI0
aI0
aI0
aI0
aF0.6
aa.(lp0
(lp1
I0
aI1
aI0
aI0
aI0
aI1
aI0
aI0
aI0
aI0
aF1.05
aF1.28
aI4
aI0
aI0
aI0
aI0
aI0
aI0
aI0
aI0
aI0
aI0
aI0
aI0
aI0
aI0
aI0
aI0
aI0
aI0
aI0
aI0
aI0
aI0
aI0
aI0
aF1.0
aa.(lp0
(lp1
I0
aI0
aI0
aI0
aI0
aI1
aI0
aI0
aI0
aI0
aF0.8343333333333334
aF1.28
aI4
aI0
aI0
aI0
aI0
aI0
aI0
aI0
aI0
aI0
aI0
aI0
aI0
aI0
aI0
aI0
aI0
aI0
aI0
aI0
aI0
aI0
aI0
aI0
aI0
aF0.4
aa.(lp0
(lp1
I0
aI0
aI0
aI0
aI0
aI1
aI0
aI0
aI0
aI0
aF0.801
aF1.12
aI4
aI0
aI0
aI0
aI0
aI0
aI0
aI0
aI0
aI0
aI0
aI0
aI0
aI0
aI0
aI0
aI0
aI0
aI0
aI0
aI0
aI0
aI0
aI0
aI0
aF0.8
aa.(lp0
(lp1
I0
aI1
aI0
aI0
aI0
aI1
aI0
aI0
aI0
aI0
aF0.9933333333333333
aF0.1
aI5
aI0
aI0
aI0
aI0
aI0
aI0
aI0
aI0
aI0
aI0
aI0
aI0
aI0
aI0
aI0
aI0
aI0
aI0
aI0
aI0
aI0
aI0
aI0
aI0
aF0.25
aa.(lp0
(lp1
I0
aI1
aI0
aI0
aI0
aI1
aI0
aI0
aI0
aI0
aF0.9933333333333333
aF0.1
aI5
aI0
aI0
aI0
aI0
aI0
aI0
aI0
aI0
aI0
aI0
aI0
aI0
aI0
aI0
aI0
aI0
aI0
aI0
aI0
aI0
aI0
aI0
aI0
aI0
aF0.75
aa.(lp0
(lp1
I0
aI1
aI0
aI0
aI0
aI1
aI0
aI0
aI0
aI0
aF0.9933333333333333
aF0.07
aI5
aI0
aI0
aI0
aI0
aI0
aI0
aI0
aI0
aI0
aI0
aI0
aI0
aI0
aI0
aI0
aI0
aI0
aI0
aI0
aI0
aI0
aI0
aI0
aI0
aF0.0
aa.(lp0
(lp1
I0
aI1
aI0
aI0
aI0
aI1
aI0
aI0
aI0
aI0
aF0.9933333333333333
aF0.05
aI5
aI0
aI0
aI0
aI0
aI0
aI0
aI0
aI0
aI0
aI0
aI0
aI0
aI0
aI0
aI0
aI0
aI0
aI0
aI0
aI0
aI0
aI0
aI0
aI0
aF0.5
aa.(lp0
(lp1
I0
aI0
aI0
aI0
aI0
aI1
aI0
aI0
aI0
aI0
aF0.9933333333333333
aF0.09
aI5
aI0
aI0
aI0
aI0
aI0
aI0
aI0
aI0
aI0
aI0
aI0
aI0
aI0
aI0
aI0
aI0
aI0
aI0
aI0
aI0
aI0
aI0
aI0
aI0
aF1.0
aa.(lp0
(lp1
I0
aI0
aI0
aI0
aI0
aI0
aI0
aI1
aI0
aI0
aF0.7533333333333333
aF1.11
aI4
aI0
aI0
aI0
aI0
aI0
aI0
aI0
aI0
aI0
aI0
aI0
aI0
aI0
aI0
aI0
aI0
aI0
aI0
aI0
aI0
aI0
aI0
aI0
aI0
aF0.0
aa.(lp0
(lp1
I1
aI0
aI0
aI0
aI0
aI0
aI0
aI0
aI0
aI0
aF0.99
aF1.11
aI3
aI0
aI0
aI0
aI0
aI0
aI0
aI0
aI0
aI0
aI0
aI0
aI0
aI0
aI0
aI0
aI0
aI0
aI0
aI0
aI0
aI0
aI0
aI0
aI0
aF0.75
aa.(lp0
(lp1
I1
aI0
aI0
aI0
aI0
aI0
aI0
aI0
aI0
aI0
aF0.9866666666666667
aF0.03
aI4
aI0
aI0
aI0
aI0
aI0
aI0
aI0
aI0
aI0
aI0
aI0
aI0
aI0
aI0
aI0
aI0
aI0
aI0
aI0
aI0
aI0
aI0
aI0
aI0
aF1.0
aa.(lp0
(lp1
I0
aI1
aI0
aI0
aI0
aI1
aI0
aI0
aI0
aI0
aF0.7533333333333333
aF1.81
aI3
aI0
aI0
aI0
aI0
aI0
aI0
aI0
aI0
aI0
aI0
aI0
aI0
aI0
aI0
aI0
aI0
aI0
aI0
aI0
aI0
aI0
aI0
aI0
aI0
aF0.25
aa.(lp0
(lp1
I1
aI0
aI0
aI0
aI0
aI0
aI1
aI0
aI0
aI0
aF0.9133333333333333
aF1.81
aI2
aI0
aI0
aI0
aI0
aI0
aI0
aI0
aI0
aI0
aI0
aI0
aI0
aI0
aI0
aI0
aI0
aI0
aI0
aI0
aI0
aI0
aI0
aI0
aI0
aF0.5
aa.(lp0
(lp1
I0
aI1
aI0
aI0
aI0
aI1
aI0
aI0
aI0
aI0
aF1.35
aF0.07
aI5
aI0
aI0
aI0
aI0
aI0
aI0
aI0
aI0
aI0
aI0
aI0
aI0
aI0
aI0
aI0
aI0
aI0
aI0
aI0
aI0
aI0
aI0
aI0
aI0
aF1.0
aa.(lp0
(lp1
I0
aI1
aI0
aI0
aI0
aI1
aI0
aI0
aI0
aI0
aF0.9833333333333333
aF0.09
aI5
aI0
aI0
aI0
aI0
aI0
aI0
aI0
aI0
aI0
aI0
aI0
aI0
aI0
aI0
aI0
aI0
aI0
aI0
aI0
aI0
aI0
aI0
aI0
aI0
aF0.75
aa.(lp0
(lp1
I0
aI1
aI0
aI0
aI0
aI1
aI0
aI0
aI0
aI0
aF0.98
aF0.1
aI5
aI0
aI0
aI0
aI0
aI0
aI0
aI0
aI0
aI0
aI0
aI0
aI0
aI0
aI0
aI0
aI0
aI0
aI0
aI0
aI0
aI0
aI0
aI0
aI0
aF0.0
aa.(lp0
(lp1
I0
aI0
aI1
aI0
aI0
aI1
aI0
aI0
aI0
aI0
aF0.7466666666666667
aF0.1
aI5
aI0
aI0
aI0
aI0
aI0
aI0
aI0
aI0
aI0
aI0
aI0
aI0
aI0
aI0
aI0
aI0
aI0
aI0
aI0
aI0
aI0
aI0
aI0
aI0
aF0.5
aa.(lp0
(lp1
I0
aI0
aI0
aI0
aI0
aI1
aI0
aI0
aI0
aI0
aF0.9066666666666666
aF0.05
aI5
aI0
aI0
aI0
aI0
aI0
aI0
aI0
aI0
aI0
aI0
aI0
aI0
aI0
aI0
aI0
aI0
aI0
aI0
aI0
aI0
aI0
aI0
aI0
aI0
aF0.25
aa.(lp0
(lp1
I1
aI0
aI0
aI0
aI0
aI0
aI0
aI0
aI0
aI0
aF1.35
aF0.03
aI4
aI0
aI0
aI0
aI0
aI0
aI0
aI0
aI0
aI0
aI0
aI0
aI0
aI0
aI0
aI0
aI0
aI0
aI0
aI0
aI0
aI0
aI0
aI0
aI0
aF0.5
aa.(lp0
(lp1
I1
aI0
aI0
aI0
aI0
aI0
aI0
aI0
aI0
aI0
aF0.9833333333333333
aF0.03
aI3
aI0
aI0
aI0
aI0
aI0
aI0
aI0
aI0
aI0
aI0
aI0
aI0
aI0
aI0
aI0
aI0
aI0
aI0
aI0
aI0
aI0
aI0
aI0
aI0
aF1.0
aa.(lp0
(lp1
I1
aI0
aI0
aI0
aI0
aI1
aI0
aI0
aI0
aI0
aF0.9733333333333334
aF0.78
aI2
aI0
aI0
aI0
aI0
aI0
aI0
aI0
aI0
aI0
aI0
aI0
aI0
aI0
aI0
aI0
aI0
aI0
aI0
aI0
aI0
aI0
aI0
aI0
aI0
aF0.0
aa.(lp0
(lp1
I0
aI1
aI0
aI0
aI0
aI2
aI0
aI0
aI0
aI0
aF0.5
aF0.78
aI3
aI0
aI0
aI0
aI0
aI0
aI0
aI0
aI0
aI0
aI0
aI0
aI0
aI0
aI0
aI0
aI0
aI0
aI0
aI0
aI0
aI0
aI0
aI0
aI0
aF0.75
aa.(lp0
(lp1
I0
aI0
aI0
aI0
aI0
aI0
aI1
aI0
aI0
aI0
aF0.9333333333333333
aF0.42
aI3
aI0
aI0
aI0
aI0
aI0
aI0
aI0
aI0
aI0
aI0
aI0
aI0
aI0
aI0
aI0
aI0
aI0
aI0
aI0
aI0
aI0
aI0
aI0
aI0
aF0.25
aa.(lp0
(lp1
I0
aI0
aI0
aI0
aI0
aI0
aI0
aI1
aI0
aI0
aF1.3366666666666667
aF0.08
aI3
aI0
aI0
aI0
aI0
aI0
aI0
aI0
aI0
aI0
aI0
aI0
aI0
aI0
aI0
aI0
aI0
aI0
aI0
aI0
aI0
aI0
aI0
aI0
aI0
aF0.0
aa.(lp0
(lp1
I0
aI1
aI0
aI0
aI0
aI2
aI0
aI0
aI0
aI0
aF0.97
aF0.1
aI3
aI0
aI0
aI0
aI0
aI0
aI0
aI0
aI0
aI0
aI0
aI0
aI0
aI0
aI0
aI0
aI0
aI0
aI0
aI0
aI0
aI0
aI0
aI0
aI0
aF0.25
aa.(lp0
(lp1
I1
aI0
aI0
aI0
aI0
aI0
aI0
aI0
aI0
aI0
aF0.9733333333333334
aF0.05
aI3
aI0
aI0
aI0
aI0
aI0
aI0
aI0
aI0
aI0
aI0
aI0
aI0
aI0
aI0
aI0
aI0
aI0
aI0
aI0
aI0
aI0
aI0
aI0
aI0
aF0.75
aa.(lp0
(lp1
I1
aI0
aI0
aI0
aI0
aI0
aI0
aI0
aI0
aI0
aF0.5
aF0.05
aI4
aI0
aI0
aI0
aI0
aI0
aI0
aI0
aI0
aI0
aI0
aI0
aI0
aI0
aI0
aI0
aI0
aI0
aI0
aI0
aI0
aI0
aI0
aI0
aI0
aF1.0
aa.(lp0
(lp1
I0
aI1
aI0
aI0
aI0
aI2
aI0
aI0
aI0
aI0
aF1.18
aF0.12
aI3
aI0
aI0
aI0
aI0
aI0
aI0
aI0
aI0
aI0
aI0
aI0
aI0
aI0
aI0
aI0
aI0
aI0
aI0
aI0
aI0
aI0
aI0
aI0
aI0
aF0.5
aa.(lp0
(lp1
I1
aI0
aI0
aI0
aI0
aI0
aI0
aI0
aI0
aI0
aF1.3766666666666667
aF0.18
aI4
aI0
aI0
aI0
aI0
aI0
aI0
aI0
aI0
aI0
aI0
aI0
aI0
aI0
aI0
aI0
aI0
aI0
aI0
aI0
aI0
aI0
aI0
aI0
aI0
aF1.0
aa.(lp0
(lp1
I0
aI1
aI0
aI0
aI0
aI1
aI0
aI0
aI0
aI0
aF0.9566666666666667
aF0.18
aI4
aI0
aI0
aI0
aI0
aI0
aI0
aI0
aI0
aI0
aI0
aI0
aI0
aI0
aI0
aI0
aI0
aI0
aI0
aI0
aI0
aI0
aI0
aI0
aI0
aF0.25
aa.(lp0
(lp1
I0
aI1
aI0
aI0
aI0
aI1
aI0
aI0
aI0
aI0
aF0.96
aF0.14
aI5
aI0
aI0
aI0
aI0
aI0
aI0
aI0
aI0
aI0
aI0
aI0
aI0
aI0
aI0
aI0
aI0
aI0
aI0
aI0
aI0
aI0
aI0
aI0
aI0
aF0.0
aa.(lp0
(lp1
I0
aI0
aI0
aI0
aI0
aI1
aI0
aI0
aI0
aI0
aF0.4866666666666667
aF0.1
aI5
aI0
aI0
aI0
aI0
aI0
aI0
aI0
aI0
aI0
aI0
aI0
aI0
aI0
aI0
aI0
aI0
aI0
aI0
aI0
aI0
aI0
aI0
aI0
aI0
aF0.75
aa.(lp0
(lp1
I0
aI1
aI0
aI0
aI0
aI1
aI0
aI0
aI0
aI0
aF1.16
aF0.18
aI5
aI0
aI0
aI0
aI0
aI0
aI0
aI0
aI0
aI0
aI0
aI0
aI0
aI0
aI0
aI0
aI0
aI0
aI0
aI0
aI0
aI0
aI0
aI0
aI0
aF0.5
aa.(lp0
(lp1
I1
aI0
aI0
aI0
aI0
aI0
aI0
aI0
aI0
aI0
aF1.3766666666666667
aF0.14
aI4
aI0
aI0
aI0
aI0
aI0
aI0
aI0
aI0
aI0
aI0
aI0
aI0
aI0
aI0
aI0
aI0
aI0
aI0
aI0
aI0
aI0
aI0
aI0
aI0
aF1.0
aa.(lp0
(lp1
I0
aI0
aI0
aI0
aI0
aI1
aI0
aI0
aI0
aI0
aF0.9433333333333334
aF0.16
aI4
aI0
aI0
aI0
aI0
aI0
aI0
aI0
aI0
aI0
aI0
aI0
aI0
aI0
aI0
aI0
aI0
aI0
aI0
aI0
aI0
aI0
aI0
aI0
aI0
aF0.5
aa.(lp0
(lp1
I0
aI0
aI0
aI0
aI0
aI1
aI0
aI0
aI0
aI0
aF0.9466666666666667
aF0.1
aI5
aI0
aI0
aI0
aI0
aI0
aI0
aI0
aI0
aI0
aI0
aI0
aI0
aI0
aI0
aI0
aI0
aI0
aI0
aI0
aI0
aI0
aI0
aI0
aI0
aF0.0
aa.(lp0
(lp1
I0
aI1
aI0
aI0
aI0
aI1
aI0
aI0
aI0
aI0
aF0.5333333333333333
aF0.16
aI4
aI0
aI0
aI0
aI0
aI0
aI0
aI0
aI0
aI0
aI0
aI0
aI0
aI0
aI0
aI0
aI0
aI0
aI0
aI0
aI0
aI0
aI0
aI0
aI0
aF0.25
aa.(lp0
(lp1
I0
aI1
aI0
aI0
aI0
aI1
aI0
aI0
aI0
aI0
aF1.1466666666666667
aF0.14
aI5
aI0
aI0
aI0
aI0
aI0
aI0
aI0
aI0
aI0
aI0
aI0
aI0
aI0
aI0
aI0
aI0
aI0
aI0
aI0
aI0
aI0
aI0
aI0
aI0
aF0.75
aa.(lp0
(lp1
I1
aI0
aI0
aI0
aI0
aI0
aI0
aI0
aI0
aI0
aF1.3766666666666667
aF0.05
aI4
aI0
aI0
aI0
aI0
aI0
aI0
aI0
aI0
aI0
aI0
aI0
aI0
aI0
aI0
aI0
aI0
aI0
aI0
aI0
aI0
aI0
aI0
aI0
aI0
aF0.5
aa.(lp0
(lp1
I0
aI1
aI0
aI0
aI0
aI1
aI0
aI0
aI0
aI0
aF1.9333333333333333
aF0.07
aI4
aI0
aI0
aI0
aI0
aI0
aI0
aI0
aI0
aI0
aI0
aI0
aI0
aI0
aI0
aI0
aI0
aI0
aI0
aI0
aI0
aI0
aI0
aI0
aI0
aF0.25
aa.(lp0
(lp1
I0
aI1
aI0
aI0
aI0
aI1
aI0
aI0
aI0
aI0
aF0.5266666666666666
aF0.07
aI4
aI0
aI0
aI0
aI0
aI0
aI0
aI0
aI0
aI0
aI0
aI0
aI0
aI0
aI0
aI0
aI0
aI0
aI0
aI0
aI0
aI0
aI0
aI0
aI0
aF0.75
aa.(lp0
(lp1
I0
aI0
aI0
aI0
aI0
aI1
aI0
aI0
aI0
aI0
aF1.14
aF0.05
aI5
aI0
aI0
aI0
aI0
aI0
aI0
aI0
aI0
aI0
aI0
aI0
aI0
aI0
aI0
aI0
aI0
aI0
aI0
aI0
aI0
aI0
aI0
aI0
aI0
aF0.0
aa.(lp0
(lp1
I1
aI0
aI0
aI0
aI0
aI0
aI0
aI0
aI0
aI0
aF1.3766666666666667
aF0.06
aI4
aI0
aI0
aI0
aI0
aI0
aI0
aI0
aI0
aI0
aI0
aI0
aI0
aI0
aI0
aI0
aI0
aI0
aI0
aI0
aI0
aI0
aI0
aI0
aI0
aF1.0
aa.(lp0
(lp1
I0
aI0
aI0
aI0
aI0
aI1
aI0
aI0
aI0
aI0
aF1.92
aF0.1
aI4
aI0
aI0
aI0
aI0
aI0
aI0
aI0
aI0
aI0
aI0
aI0
aI0
aI0
aI0
aI0
aI0
aI0
aI0
aI0
aI0
aI0
aI0
aI0
aI0
aF0.0
aa.(lp0
(lp1
I0
aI0
aI0
aI0
aI0
aI0
aI0
aI0
aI0
aI1
aF0.0
aF0.16
aI4
aI0
aI0
aI0
aI0
aI0
aI0
aI0
aI0
aI0
aI0
aI0
aI0
aI0
aI0
aI0
aI0
aI0
aI0
aI0
aI0
aI0
aI0
aI0
aI0
aF0.75
aa.(lp0
(lp1
I0
aI1
aI0
aI0
aI0
aI1
aI0
aI0
aI0
aI0
aF0.5133333333333333
aF0.14
aI4
aI0
aI0
aI0
aI0
aI0
aI0
aI0
aI0
aI0
aI0
aI0
aI0
aI0
aI0
aI0
aI0
aI0
aI0
aI0
aI0
aI0
aI0
aI0
aI0
aF0.25
aa.(lp0
(lp1
I0
aI1
aI0
aI0
aI0
aI1
aI0
aI0
aI0
aI0
aF1.1366666666666667
aF0.16
aI4
aI0
aI0
aI0
aI0
aI0
aI0
aI0
aI0
aI0
aI0
aI0
aI0
aI0
aI0
aI0
aI0
aI0
aI0
aI0
aI0
aI0
aI0
aI0
aI0
aF0.5
aa.(lp0
(lp1
I1
aI0
aI0
aI0
aI0
aI0
aI0
aI0
aI0
aI0
aF1.3633333333333333
aF0.16
aI3
aI0
aI0
aI0
aI0
aI0
aI0
aI0
aI0
aI0
aI0
aI0
aI0
aI0
aI0
aI0
aI0
aI0
aI0
aI0
aI0
aI0
aI0
aI0
aI0
aF0.75
aa.(lp0
(lp1
I0
aI0
aI0
aI0
aI0
aI1
aI0
aI0
aI0
aI0
aF1.96
aF0.1
aI4
aI0
aI0
aI0
aI0
aI0
aI0
aI0
aI0
aI0
aI0
aI0
aI0
aI0
aI0
aI0
aI0
aI0
aI0
aI0
aI0
aI0
aI0
aI0
aI0
aF0.25
aa.(lp0
(lp1
I0
aI1
aI0
aI0
aI0
aI1
aI0
aI0
aI0
aI0
aF0.5
aF0.14
aI4
aI0
aI0
aI0
aI0
aI0
aI0
aI0
aI0
aI0
aI0
aI0
aI0
aI0
aI0
aI0
aI0
aI0
aI0
aI0
aI0
aI0
aI0
aI0
aI0
aF0.5
aa.(lp0
(lp1
I0
aI1
aI0
aI0
aI0
aI1
aI0
aI0
aI0
aI0
aF1.1233333333333333
aF0.16
aI4
aI0
aI0
aI0
aI0
aI0
aI0
aI0
aI0
aI0
aI0
aI0
aI0
aI0
aI0
aI0
aI0
aI0
aI0
aI0
aI0
aI0
aI0
aI0
aI0
aF1.0
aa.(lp0
(lp1
I0
aI1
aI0
aI0
aI0
aI1
aI0
aI0
aI0
aI0
aF1.2433333333333334
aF0.88
aI4
aI0
aI0
aI0
aI0
aI0
aI0
aI0
aI0
aI0
aI0
aI0
aI0
aI0
aI0
aI0
aI0
aI0
aI0
aI0
aI0
aI0
aI0
aI0
aI0
aF0.5
aa.(lp0
(lp1
I1
aI0
aI0
aI0
aI0
aI0
aI0
aI0
aI0
aI0
aF1.9866666666666666
aF0.88
aI3
aI0
aI0
aI0
aI0
aI0
aI0
aI0
aI0
aI0
aI0
aI0
aI0
aI0
aI0
aI0
aI0
aI0
aI0
aI0
aI0
aI0
aI0
aI0
aI0
aF1.0
aa.(lp0
(lp1
I0
aI1
aI0
aI0
aI0
aI2
aI0
aI0
aI0
aI0
aF0.38
aF1.16
aI3
aI0
aI0
aI0
aI0
aI0
aI0
aI0
aI0
aI0
aI0
aI0
aI0
aI0
aI0
aI0
aI0
aI0
aI0
aI0
aI0
aI0
aI0
aI0
aI0
aF0.75
aa.(lp0
(lp1
I0
aI0
aI0
aI0
aI0
aI0
aI1
aI0
aI0
aI0
aF1.0033333333333334
aF0.56
aI4
aI0
aI0
aI0
aI0
aI0
aI0
aI0
aI0
aI0
aI0
aI0
aI0
aI0
aI0
aI0
aI0
aI0
aI0
aI0
aI0
aI0
aI0
aI0
aI0
aF0.25
aa.(lp0
(lp1
I1
aI0
aI0
aI0
aI0
aI0
aI0
aI0
aI0
aI0
aF1.2433333333333334
aF0.2
aI3
aI0
aI0
aI0
aI0
aI0
aI0
aI0
aI0
aI0
aI0
aI0
aI0
aI0
aI0
aI0
aI0
aI0
aI0
aI0
aI0
aI0
aI0
aI0
aI0
aF1.0
aa.(lp0
(lp1
I0
aI1
aI0
aI0
aI0
aI1
aI0
aI0
aI0
aI0
aF1.96
aF0.24
aI3
aI0
aI0
aI0
aI0
aI0
aI0
aI0
aI0
aI0
aI0
aI0
aI0
aI0
aI0
aI0
aI0
aI0
aI0
aI0
aI0
aI0
aI0
aI0
aI0
aF0.5
aa.(lp0
(lp1
I0
aI1
aI0
aI0
aI0
aI1
aI0
aI0
aI0
aI0
aF0.35333333333333333
aF0.24
aI3
aI0
aI0
aI0
aI0
aI0
aI0
aI0
aI0
aI0
aI0
aI0
aI0
aI0
aI0
aI0
aI0
aI0
aI0
aI0
aI0
aI0
aI0
aI0
aI0
aF0.25
aa.(lp0
(lp1
I0
aI0
aI0
aI0
aI0
aI1
aI0
aI0
aI0
aI0
aF1.3633333333333333
aF0.2
aI4
aI0
aI0
aI0
aI0
aI0
aI0
aI0
aI0
aI0
aI0
aI0
aI0
aI0
aI0
aI0
aI0
aI0
aI0
aI0
aI0
aI0
aI0
aI0
aI0
aF0.75
aa.(lp0
(lp1
I1
aI0
aI0
aI0
aI0
aI0
aI0
aI0
aI0
aI0
aF1.2433333333333334
aF0.12
aI3
aI0
aI0
aI0
aI0
aI0
aI0
aI0
aI0
aI0
aI0
aI0
aI0
aI0
aI0
aI0
aI0
aI0
aI0
aI0
aI0
aI0
aI0
aI0
aI0
aF1.0
aa.(lp0
(lp1
I0
aI1
aI0
aI0
aI0
aI1
aI0
aI0
aI0
aI0
aF1.9333333333333333
aF0.2
aI3
aI0
aI0
aI0
aI0
aI0
aI0
aI0
aI0
aI0
aI0
aI0
aI0
aI0
aI0
aI0
aI0
aI0
aI0
aI0
aI0
aI0
aI0
aI0
aI0
aF0.25
aa.(lp0
(lp1
I0
aI0
aI0
aI0
aI0
aI1
aI0
aI0
aI0
aI0
aF0.32666666666666666
aF0.24
aI3
aI0
aI0
aI0
aI0
aI0
aI0
aI0
aI0
aI0
aI0
aI0
aI0
aI0
aI0
aI0
aI0
aI0
aI0
aI0
aI0
aI0
aI0
aI0
aI0
aF0.5
aa.(lp0
(lp1
I0
aI1
aI0
aI0
aI0
aI1
aI0
aI0
aI0
aI0
aF1.4166666666666667
aF0.24
aI3
aI0
aI0
aI0
aI0
aI0
aI0
aI0
aI0
aI0
aI0
aI0
aI0
aI0
aI0
aI0
aI0
aI0
aI0
aI0
aI0
aI0
aI0
aI0
aI0
aF0.75
aa.(lp0
(lp1
I1
aI0
aI0
aI0
aI0
aI0
aI0
aI0
aI0
aI0
aF1.2166666666666666
aF0.24
aI2
aI0
aI0
aI0
aI0
aI0
aI0
aI0
aI0
aI0
aI0
aI0
aI0
aI0
aI0
aI0
aI0
aI0
aI0
aI0
aI0
aI0
aI0
aI0
aI0
aF0.25
aa.(lp0
(lp1
I1
aI0
aI0
aI0
aI0
aI0
aI0
aI0
aI0
aI0
aF1.9333333333333333
aF0.12
aI3
aI0
aI0
aI0
aI0
aI0
aI0
aI0
aI0
aI0
aI0
aI0
aI0
aI0
aI0
aI0
aI0
aI0
aI0
aI0
aI0
aI0
aI0
aI0
aI0
aF1.0
aa.(lp0
(lp1
I0
aI0
aI0
aI0
aI0
aI1
aI0
aI0
aI0
aI0
aF0.38
aF0.2
aI3
aI0
aI0
aI0
aI0
aI0
aI0
aI0
aI0
aI0
aI0
aI0
aI0
aI0
aI0
aI0
aI0
aI0
aI0
aI0
aI0
aI0
aI0
aI0
aI0
aF0.5
aa.(lp0
(lp1
I0
aI1
aI0
aI0
aI0
aI1
aI0
aI0
aI0
aI0
aF1.39
aF0.24
aI3
aI0
aI0
aI0
aI0
aI0
aI0
aI0
aI0
aI0
aI0
aI0
aI0
aI0
aI0
aI0
aI0
aI0
aI0
aI0
aI0
aI0
aI0
aI0
aI0
aF0.75
aa.(lp0
(lp1
I1
aI0
aI0
aI0
aI0
aI0
aI0
aI0
aI0
aI0
aF1.19
aF0.56
aI3
aI0
aI0
aI0
aI0
aI0
aI0
aI0
aI0
aI0
aI0
aI0
aI0
aI0
aI0
aI0
aI0
aI0
aI0
aI0
aI0
aI0
aI0
aI0
aI0
aF0.5
aa.(lp0
(lp1
I0
aI0
aI0
aI0
aI0
aI1
aI0
aI0
aI0
aI0
aF1.88
aF0.56
aI3
aI0
aI0
aI0
aI0
aI0
aI0
aI0
aI0
aI0
aI0
aI0
aI0
aI0
aI0
aI0
aI0
aI0
aI0
aI0
aI0
aI0
aI0
aI0
aI0
aF0.25
aa.(lp0
(lp1
I0
aI1
aI0
aI0
aI0
aI1
aI0
aI0
aI0
aI0
aF0.4066666666666667
aF0.4
aI4
aI0
aI0
aI0
aI0
aI0
aI0
aI0
aI0
aI0
aI0
aI0
aI0
aI0
aI0
aI0
aI0
aI0
aI0
aI0
aI0
aI0
aI0
aI0
aI0
aF0.75
aa.(lp0
(lp1
I0
aI1
aI0
aI0
aI0
aI1
aI0
aI0
aI0
aI0
aF1.3366666666666667
aF0.56
aI4
aI0
aI0
aI0
aI0
aI0
aI0
aI0
aI0
aI0
aI0
aI0
aI0
aI0
aI0
aI0
aI0
aI0
aI0
aI0
aI0
aI0
aI0
aI0
aI0
aF1.0
aa.(lp0
(lp1
I1
aI0
aI0
aI0
aI0
aI0
aI0
aI0
aI0
aI0
aF1.19
aF0.4
aI3
aI0
aI0
aI0
aI0
aI0
aI0
aI0
aI0
aI0
aI0
aI0
aI0
aI0
aI0
aI0
aI0
aI0
aI0
aI0
aI0
aI0
aI0
aI0
aI0
aF0.75
aa.(lp0
(lp1
I0
aI1
aI0
aI0
aI0
aI1
aI0
aI0
aI0
aI0
aF2.013333333333333
aF0.48
aI3
aI0
aI0
aI0
aI0
aI0
aI0
aI0
aI0
aI0
aI0
aI0
aI0
aI0
aI0
aI0
aI0
aI0
aI0
aI0
aI0
aI0
aI0
aI0
aI0
aF0.25
aa.(lp0
(lp1
I0
aI0
aI1
aI0
aI0
aI1
aI0
aI0
aI0
aI0
aF0.35333333333333333
aF0.48
aI3
aI0
aI0
aI0
aI0
aI0
aI0
aI0
aI0
aI0
aI0
aI0
aI0
aI0
aI0
aI0
aI0
aI0
aI0
aI0
aI0
aI0
aI0
aI0
aI0
aF1.0
aa.(lp0
(lp1
I0
aI0
aI0
aI0
aI0
aI1
aI0
aI0
aI0
aI0
aF1.2833333333333334
aF0.4
aI4
aI0
aI0
aI0
aI0
aI0
aI0
aI0
aI0
aI0
aI0
aI0
aI0
aI0
aI0
aI0
aI0
aI0
aI0
aI0
aI0
aI0
aI0
aI0
aI0
aF0.5
aa.(lp0
(lp1
I1
aI0
aI0
aI0
aI0
aI0
aI0
aI0
aI0
aI0
aF1.1366666666666667
aF0.88
aI2
aI0
aI0
aI0
aI0
aI0
aI0
aI0
aI0
aI0
aI0
aI0
aI0
aI0
aI0
aI0
aI0
aI0
aI0
aI0
aI0
aI0
aI0
aI0
aI0
aF1.0
aa.(lp0
(lp1
I0
aI1
aI0
aI0
aI0
aI2
aI0
aI0
aI0
aI0
aF1.7733333333333334
aF1.28
aI2
aI0
aI0
aI0
aI0
aI0
aI0
aI0
aI0
aI0
aI0
aI0
aI0
aI0
aI0
aI0
aI0
aI0
aI0
aI0
aI0
aI0
aI0
aI0
aI0
aF0.5
aa.(lp0
(lp1
I1
aI0
aI0
aI0
aI0
aI0
aI0
aI0
aI0
aI0
aF0.006666666666666667
aF0.4
aI3
aI0
aI0
aI0
aI0
aI0
aI0
aI0
aI0
aI0
aI0
aI0
aI0
aI0
aI0
aI0
aI0
aI0
aI0
aI0
aI0
aI0
aI0
aI0
aI0
aF0.75
aa.(lp0
(lp1
I0
aI0
aI0
aI0
aI0
aI0
aI1
aI0
aI0
aI0
aF1.6566666666666667
aF0.88
aI3
aI0
aI0
aI0
aI0
aI0
aI0
aI0
aI0
aI0
aI0
aI0
aI0
aI0
aI0
aI0
aI0
aI0
aI0
aI0
aI0
aI0
aI0
aI0
aI0
aF0.25
aa.(lp0
(lp1
I1
aI0
aI0
aI0
aI0
aI0
aI0
aI0
aI0
aI0
aF1.0833333333333333
aF0.8
aI2
aI0
aI0
aI0
aI0
aI0
aI0
aI0
aI0
aI0
aI0
aI0
aI0
aI0
aI0
aI0
aI0
aI0
aI0
aI0
aI0
aI0
aI0
aI0
aI0
aF0.5
aa.(lp0
(lp1
I0
aI0
aI0
aI0
aI0
aI1
aI0
aI0
aI0
aI0
aF1.6666666666666667
aF0.8
aI2
aI0
aI0
aI0
aI0
aI0
aI0
aI0
aI0
aI0
aI0
aI0
aI0
aI0
aI0
aI0
aI0
aI0
aI0
aI0
aI0
aI0
aI0
aI0
aI0
aF1.0
aa.(lp0
(lp1
I1
aI0
aI0
aI0
aI0
aI0
aI0
aI0
aI0
aI0
aF0.006666666666666667
aF0.48
aI3
aI0
aI0
aI0
aI0
aI0
aI0
aI0
aI0
aI0
aI0
aI0
aI0
aI0
aI0
aI0
aI0
aI0
aI0
aI0
aI0
aI0
aI0
aI0
aI0
aF0.25
aa.(lp0
(lp1
I0
aI1
aI0
aI0
aI0
aI1
aI0
aI0
aI0
aI0
aF1.9766666666666666
aF0.8
aI3
aI0
aI0
aI0
aI0
aI0
aI0
aI0
aI0
aI0
aI0
aI0
aI0
aI0
aI0
aI0
aI0
aI0
aI0
aI0
aI0
aI0
aI0
aI0
aI0
aF0.75
aa.(lp0
(lp1
I0
aI1
aI0
aI0
aI0
aI0
aI0
aI1
aI0
aI0
aF0.9766666666666667
aF0.66
aI4
aI0
aI0
aI0
aI0
aI0
aI0
aI0
aI0
aI0
aI0
aI0
aI0
aI0
aI0
aI0
aI0
aI0
aI0
aI0
aI0
aI0
aI0
aI0
aI0
aF0.5
aa.(lp0
(lp1
I0
aI1
aI0
aI0
aI0
aI1
aI0
aI0
aI0
aI0
aF1.8266666666666667
aF0.82
aI4
aI0
aI0
aI0
aI0
aI0
aI0
aI0
aI0
aI0
aI0
aI0
aI0
aI0
aI0
aI0
aI0
aI0
aI0
aI0
aI0
aI0
aI0
aI0
aI0
aF0.25
aa.(lp0
(lp1
I0
aI0
aI0
aI0
aI0
aI2
aI0
aI0
aI0
aI0
aF1.87
aF0.98
aI4
aI0
aI0
aI0
aI0
aI0
aI0
aI0
aI0
aI0
aI0
aI0
aI0
aI0
aI0
aI0
aI0
aI0
aI0
aI0
aI0
aI0
aI0
aI0
aI0
aF0.75
aa.(lp0
(lp1
I0
aI1
aI0
aI0
aI0
aI1
aI0
aI0
aI0
aI0
aF0.6566666666666666
aF1.92
aI3
aI0
aI0
aI0
aI0
aI0
aI0
aI0
aI0
aI0
aI0
aI0
aI0
aI0
aI0
aI0
aI0
aI0
aI0
aI0
aI0
aI0
aI0
aI0
aI0
aF0.75
aa.(lp0
(lp1
I0
aI0
aI0
aI0
aI0
aI1
aI0
aI0
aI0
aI0
aF1.5066666666666666
aF1.92
aI3
aI0
aI0
aI0
aI0
aI0
aI0
aI0
aI0
aI0
aI0
aI0
aI0
aI0
aI0
aI0
aI0
aI0
aI0
aI0
aI0
aI0
aI0
aI0
aI0
aF0.5
aa.(lp0
(lp1
I0
aI1
aI0
aI0
aI0
aI1
aI0
aI0
aI0
aI0
aF2.1966666666666668
aF1.6
aI3
aI0
aI0
aI0
aI0
aI0
aI0
aI0
aI0
aI0
aI0
aI0
aI0
aI0
aI0
aI0
aI0
aI0
aI0
aI0
aI0
aI0
aI0
aI0
aI0
aF1.0
aa.(lp0
(lp1
I0
aI0
aI0
aI0
aI0
aI0
aI0
aI1
aI0
aI0
aF0.9933333333333333
aF1.92
aI2
aI0
aI0
aI0
aI0
aI0
aI0
aI0
aI0
aI0
aI0
aI0
aI0
aI0
aI0
aI0
aI0
aI0
aI0
aI0
aI0
aI0
aI0
aI0
aI0
aF0.5
aa.(lp0
(lp1
I1
aI0
aI0
aI0
aI0
aI0
aI0
aI0
aI0
aI0
aF2.04
aF0.96
aI2
aI0
aI0
aI0
aI0
aI0
aI0
aI0
aI0
aI0
aI0
aI0
aI0
aI0
aI0
aI0
aI0
aI0
aI0
aI0
aI0
aI0
aI0
aI0
aI0
aF1.0
aa.(lp0
(lp1
I0
aI1
aI0
aI0
aI0
aI2
aI0
aI0
aI0
aI0
aF1.1133333333333333
aF2.56
aI2
aI0
aI0
aI0
aI0
aI0
aI0
aI0
aI0
aI0
aI0
aI0
aI0
aI0
aI0
aI0
aI0
aI0
aI0
aI0
aI0
aI0
aI0
aI0
aI0
aF0.75
aa.(lp0
(lp1
I1
aI0
aI0
aI0
aI0
aI0
aI0
aI0
aI0
aI0
aF1.6333333333333333
aF3.2
aI2
aI0
aI0
aI0
aI0
aI0
aI0
aI0
aI0
aI0
aI0
aI0
aI0
aI0
aI0
aI0
aI0
aI0
aI0
aI0
aI0
aI0
aI0
aI0
aI0
aF0.75
aa.(lp0
(lp1
I0
aI0
aI0
aI0
aI0
aI1
aI0
aI0
aI0
aI0
aF1.6133333333333333
aF3.2
aI2
aI0
aI0
aI0
aI0
aI0
aI0
aI0
aI0
aI0
aI0
aI0
aI0
aI0
aI0
aI0
aI0
aI0
aI0
aI0
aI0
aI0
aI0
aI0
aI0
aF0.5
aa.(lp0
(lp1
I0
aI0
aI0
aI0
aI0
aI1
aI0
aI0
aI0
aI0
aF0.6866666666666666
aF3.2
aI3
aI0
aI0
aI0
aI0
aI0
aI0
aI0
aI0
aI0
aI0
aI0
aI0
aI0
aI0
aI0
aI0
aI0
aI0
aI0
aI0
aI0
aI0
aI0
aI0
aF1.0
aa.(lp0
(lp1
I0
aI1
aI0
aI0
aI0
aI2
aI0
aI0
aI0
aI0
aF0.88
aF1.14
aI5
aI0
aI0
aI0
aI0
aI0
aI0
aI0
aI0
aI0
aI0
aI0
aI0
aI0
aI0
aI0
aI0
aI0
aI0
aI0
aI0
aI0
aI0
aI0
aI0
aF0.4
aa.(lp0
(lp1
I0
aI1
aI0
aI0
aI0
aI0
aI1
aI0
aI0
aI0
aF0.88
aF0.45
aI6
aI0
aI0
aI0
aI0
aI0
aI0
aI0
aI0
aI0
aI0
aI0
aI0
aI0
aI0
aI0
aI0
aI0
aI0
aI0
aI0
aI0
aI0
aI0
aI0
aF0.2
aa.(lp0
(lp1
I0
aI0
aI0
aI0
aI0
aI1
aI0
aI0
aI0
aI0
aF0.88
aF0.8
aI6
aI0
aI0
aI0
aI0
aI0
aI0
aI0
aI0
aI0
aI0
aI0
aI0
aI0
aI0
aI0
aI0
aI0
aI0
aI0
aI0
aI0
aI0
aI0
aI0
aF1.0
aa.(lp0
(lp1
I1
aI0
aI0
aI0
aI0
aI0
aI0
aI0
aI0
aI0
aF0.9933333333333333
aF0.8
aI5
aI0
aI0
aI0
aI0
aI0
aI0
aI0
aI0
aI0
aI0
aI0
aI0
aI0
aI0
aI0
aI0
aI0
aI0
aI0
aI0
aI0
aI0
aI0
aI0
aF0.6
aa.(lp0
(lp1
I1
aI0
aI0
aI0
aI0
aI1
aI0
aI0
aI0
aI0
aF0.9933333333333333
aF1.48
aI4
aI0
aI0
aI0
aI0
aI0
aI0
aI0
aI0
aI0
aI0
aI0
aI0
aI0
aI0
aI0
aI0
aI0
aI0
aI0
aI0
aI0
aI0
aI0
aI0
aF0.8
aa.(lp0
(lp1
I0
aI0
aI0
aI0
aI0
aI2
aI0
aI0
aI0
aI0
aF0.88
aF1.48
aI5
aI0
aI0
aI0
aI0
aI0
aI0
aI0
aI0
aI0
aI0
aI0
aI0
aI0
aI0
aI0
aI0
aI0
aI0
aI0
aI0
aI0
aI0
aI0
aI0
aF0.0
aa.(lp0
(lp1
I0
aI0
aI1
aI0
aI0
aI0
aI0
aI1
aI0
aI0
aF0.8666666666666667
aF0.12
aI5
aI0
aI0
aI0
aI0
aI0
aI0
aI0
aI0
aI0
aI0
aI0
aI0
aI0
aI0
aI0
aI0
aI0
aI0
aI0
aI0
aI0
aI0
aI0
aI0
aF0.0
aa.(lp0
(lp1
I0
aI0
aI0
aI0
aI0
aI2
aI0
aI0
aI0
aI0
aF0.86
aF0.16
aI5
aI0
aI0
aI0
aI0
aI0
aI0
aI0
aI0
aI0
aI0
aI0
aI0
aI0
aI0
aI0
aI0
aI0
aI0
aI0
aI0
aI0
aI0
aI0
aI0
aF0.4
aa.(lp0
(lp1
I0
aI1
aI0
aI0
aI0
aI2
aI0
aI0
aI0
aI0
aF0.02
aF0.18
aI5
aI0
aI0
aI0
aI0
aI0
aI0
aI0
aI0
aI0
aI0
aI0
aI0
aI0
aI0
aI0
aI0
aI0
aI0
aI0
aI0
aI0
aI0
aI0
aI0
aF0.2
aa.(lp0
(lp1
I0
aI1
aI0
aI0
aI0
aI2
aI0
aI0
aI0
aI0
aF0.98
aF0.2
aI5
aI0
aI0
aI0
aI0
aI0
aI0
aI0
aI0
aI0
aI0
aI0
aI0
aI0
aI0
aI0
aI0
aI0
aI0
aI0
aI0
aI0
aI0
aI0
aI0
aF0.8
aa.(lp0
(lp1
I1
aI0
aI0
aI0
aI0
aI0
aI0
aI0
aI0
aI0
aF0.9933333333333333
aF0.05
aI5
aI0
aI0
aI0
aI0
aI0
aI0
aI0
aI0
aI0
aI0
aI0
aI0
aI0
aI0
aI0
aI0
aI0
aI0
aI0
aI0
aI0
aI0
aI0
aI0
aF1.0
aa.(lp0
(lp1
I0
aI0
aI0
aI0
aI0
aI2
aI0
aI0
aI0
aI0
aF2.2133333333333334
aF0.14
aI5
aI0
aI0
aI0
aI0
aI0
aI0
aI0
aI0
aI0
aI0
aI0
aI0
aI0
aI0
aI0
aI0
aI0
aI0
aI0
aI0
aI0
aI0
aI0
aI0
aF0.6
aa.(lp0
(lp1
I1
aI0
aI0
aI0
aI0
aI0
aI0
aI0
aI0
aI0
aF0.659
aF0.07
aI3
aI0
aI0
aI0
aI0
aI0
aI0
aI0
aI0
aI0
aI0
aI0
aI0
aI0
aI0
aI0
aI0
aI0
aI0
aI0
aI0
aI0
aI0
aI0
aI0
aF0.4
aa.(lp0
(lp1
I0
aI1
aI0
aI0
aI0
aI1
aI0
aI0
aI0
aI0
aF1.6553333333333333
aF0.05
aI5
aI0
aI0
aI0
aI0
aI0
aI0
aI0
aI0
aI0
aI0
aI0
aI0
aI0
aI0
aI0
aI0
aI0
aI0
aI0
aI0
aI0
aI0
aI0
aI0
aF1.0
aa.(lp0
(lp1
I0
aI0
aI0
aI0
aI0
aI1
aI0
aI0
aI0
aI0
aF0.013333333333333334
aF0.07
aI5
aI0
aI0
aI0
aI0
aI0
aI0
aI0
aI0
aI0
aI0
aI0
aI0
aI0
aI0
aI0
aI0
aI0
aI0
aI0
aI0
aI0
aI0
aI0
aI0
aF0.0
aa.(lp0
(lp1
I1
aI0
aI0
aI0
aI0
aI0
aI0
aI0
aI0
aI0
aF0.9733333333333334
aF0.07
aI4
aI0
aI0
aI0
aI0
aI0
aI0
aI0
aI0
aI0
aI0
aI0
aI0
aI0
aI0
aI0
aI0
aI0
aI0
aI0
aI0
aI0
aI0
aI0
aI0
aF0.7
aa.(lp0
(lp1
I1
aI0
aI0
aI0
aI0
aI0
aI0
aI0
aI0
aI0
aF0.9933333333333333
aF0.03
aI5
aI0
aI0
aI0
aI0
aI0
aI0
aI0
aI0
aI0
aI0
aI0
aI0
aI0
aI0
aI0
aI0
aI0
aI0
aI0
aI0
aI0
aI0
aI0
aI0
aF0.7
aa.(lp0
(lp1
I0
aI0
aI0
aI0
aI0
aI1
aI0
aI0
aI0
aI0
aF1.6823333333333332
aF0.07
aI3
aI0
aI0
aI0
aI0
aI0
aI0
aI0
aI0
aI0
aI0
aI0
aI0
aI0
aI0
aI0
aI0
aI0
aI0
aI0
aI0
aI0
aI0
aI0
aI0
aF0.2
aa.(lp0
(lp1
I0
aI0
aI0
aI0
aI0
aI0
aI0
aI2
aI0
aI0
aF0.4056666666666667
aF1.22
aI4
aI0
aI0
aI0
aI0
aI0
aI0
aI0
aI0
aI0
aI0
aI0
aI0
aI0
aI0
aI0
aI0
aI0
aI0
aI0
aI0
aI0
aI0
aI0
aI0
aF0.2
aa.(lp0
(lp1
I0
aI0
aI0
aI0
aI0
aI2
aI1
aI0
aI0
aI0
aF1.402
aF2.32
aI3
aI0
aI0
aI0
aI0
aI0
aI0
aI0
aI0
aI0
aI0
aI0
aI0
aI0
aI0
aI0
aI0
aI0
aI0
aI0
aI0
aI0
aI0
aI0
aI0
aF0.4
aa.(lp0
(lp1
I0
aI1
aI0
aI0
aI0
aI2
aI0
aI0
aI0
aI0
aF1.4656666666666667
aF1.94
aI4
aI0
aI0
aI0
aI0
aI0
aI0
aI0
aI0
aI0
aI0
aI0
aI0
aI0
aI0
aI0
aI0
aI0
aI0
aI0
aI0
aI0
aI0
aI0
aI0
aF0.6
aa.(lp0
(lp1
I1
aI0
aI0
aI0
aI0
aI0
aI0
aI0
aI0
aI0
aF0.9733333333333334
aF0.05
aI4
aI0
aI0
aI0
aI0
aI0
aI0
aI0
aI0
aI0
aI0
aI0
aI0
aI0
aI0
aI0
aI0
aI0
aI0
aI0
aI0
aI0
aI0
aI0
aI0
aF1.0
aa.(lp0
(lp1
I1
aI0
aI0
aI0
aI0
aI1
aI0
aI0
aI0
aI0
aF0.98
aF1.94
aI3
aI0
aI0
aI0
aI0
aI0
aI0
aI0
aI0
aI0
aI0
aI0
aI0
aI0
aI0
aI0
aI0
aI0
aI0
aI0
aI0
aI0
aI0
aI0
aI0
aF0.8
aa.(lp0
(lp1
I1
aI0
aI0
aI0
aI0
aI0
aI0
aI0
aI0
aI0
aF1.5846666666666667
aF0.07
aI4
aI0
aI0
aI0
aI0
aI0
aI0
aI0
aI0
aI0
aI0
aI0
aI0
aI0
aI0
aI0
aI0
aI0
aI0
aI0
aI0
aI0
aI0
aI0
aI0
aF0.8
aa.(lp0
(lp1
I0
aI0
aI0
aI0
aI0
aI1
aI1
aI0
aI0
aI0
aF0.743
aF2.32
aI3
aI0
aI0
aI0
aI0
aI0
aI0
aI0
aI0
aI0
aI0
aI0
aI0
aI0
aI0
aI0
aI0
aI0
aI0
aI0
aI0
aI0
aI0
aI0
aI0
aF0.4
aa.(lp0
(lp1
I0
aI1
aI0
aI0
aI0
aI2
aI0
aI0
aI0
aI0
aF1.2123333333333333
aF1.94
aI4
aI0
aI0
aI0
aI0
aI0
aI0
aI0
aI0
aI0
aI0
aI0
aI0
aI0
aI0
aI0
aI0
aI0
aI0
aI0
aI0
aI0
aI0
aI0
aI0
aF0.6
aa.(lp0
(lp1
I0
aI1
aI0
aI0
aI0
aI0
aI0
aI2
aI0
aI0
aF0.72
aF1.22
aI4
aI0
aI0
aI0
aI0
aI0
aI0
aI0
aI0
aI0
aI0
aI0
aI0
aI0
aI0
aI0
aI0
aI0
aI0
aI0
aI0
aI0
aI0
aI0
aI0
aF0.2
aa.(lp0
(lp1
I1
aI0
aI0
aI0
aI0
aI1
aI0
aI0
aI0
aI0
aF0.9666666666666667
aF1.94
aI3
aI0
aI0
aI0
aI0
aI0
aI0
aI0
aI0
aI0
aI0
aI0
aI0
aI0
aI0
aI0
aI0
aI0
aI0
aI0
aI0
aI0
aI0
aI0
aI0
aF1.0
aa.(lp0
(lp1
I1
aI0
aI0
aI0
aI0
aI0
aI0
aI0
aI0
aI0
aF1.5846666666666667
aF0.03
aI4
aI0
aI0
aI0
aI0
aI0
aI0
aI0
aI0
aI0
aI0
aI0
aI0
aI0
aI0
aI0
aI0
aI0
aI0
aI0
aI0
aI0
aI0
aI0
aI0
aF0.6
aa.(lp0
(lp1
I0
aI0
aI0
aI0
aI0
aI1
aI0
aI0
aI0
aI0
aF1.5096666666666667
aF0.06
aI3
aI0
aI0
aI0
aI0
aI0
aI0
aI0
aI0
aI0
aI0
aI0
aI0
aI0
aI0
aI0
aI0
aI0
aI0
aI0
aI0
aI0
aI0
aI0
aI0
aF0.4
aa.(lp0
(lp1
I0
aI1
aI0
aI0
aI0
aI1
aI0
aI0
aI0
aI0
aF1.2056666666666667
aF0.05
aI4
aI0
aI0
aI0
aI0
aI0
aI0
aI0
aI0
aI0
aI0
aI0
aI0
aI0
aI0
aI0
aI0
aI0
aI0
aI0
aI0
aI0
aI0
aI0
aI0
aF0.2
aa.(lp0
(lp1
I0
aI1
aI0
aI0
aI0
aI1
aI0
aI0
aI0
aI0
aF0.7133333333333334
aF0.06
aI3
aI0
aI0
aI0
aI0
aI0
aI0
aI0
aI0
aI0
aI0
aI0
aI0
aI0
aI0
aI0
aI0
aI0
aI0
aI0
aI0
aI0
aI0
aI0
aI0
aF1.0
aa.(lp0
(lp1
I1
aI0
aI0
aI0
aI0
aI0
aI0
aI0
aI0
aI0
aF0.9666666666666667
aF0.05
aI3
aI0
aI0
aI0
aI0
aI0
aI0
aI0
aI0
aI0
aI0
aI0
aI0
aI0
aI0
aI0
aI0
aI0
aI0
aI0
aI0
aI0
aI0
aI0
aI0
aF0.8
aa.(lp0
(lp1
I1
aI0
aI0
aI0
aI0
aI0
aI0
aI0
aI0
aI0
aF1.5713333333333332
aF0.16
aI3
aI0
aI0
aI0
aI0
aI0
aI0
aI0
aI0
aI0
aI0
aI0
aI0
aI0
aI0
aI0
aI0
aI0
aI0
aI0
aI0
aI0
aI0
aI0
aI0
aF0.6
aa.(lp0
(lp1
I0
aI1
aI0
aI0
aI0
aI1
aI0
aI0
aI0
aI0
aF1.5163333333333333
aF0.14
aI4
aI0
aI0
aI0
aI0
aI0
aI0
aI0
aI0
aI0
aI0
aI0
aI0
aI0
aI0
aI0
aI0
aI0
aI0
aI0
aI0
aI0
aI0
aI0
aI0
aF0.9
aa.(lp0
(lp1
I1
aI0
aI0
aI0
aI0
aI0
aI0
aI0
aI0
aI0
aF1.2056666666666667
aF0.06
aI4
aI0
aI0
aI0
aI0
aI0
aI0
aI0
aI0
aI0
aI0
aI0
aI0
aI0
aI0
aI0
aI0
aI0
aI0
aI0
aI0
aI0
aI0
aI0
aI0
aF0.9
aa.(lp0
(lp1
I0
aI0
aI0
aI0
aI0
aI1
aI0
aI0
aI0
aI0
aF0.7
aF0.16
aI4
aI0
aI0
aI0
aI0
aI0
aI0
aI0
aI0
aI0
aI0
aI0
aI0
aI0
aI0
aI0
aI0
aI0
aI0
aI0
aI0
aI0
aI0
aI0
aI0
aF0.4
aa.(lp0
(lp1
I0
aI1
aI0
aI0
aI0
aI1
aI0
aI0
aI0
aI0
aF0.9533333333333334
aF0.1
aI4
aI0
aI0
aI0
aI0
aI0
aI0
aI0
aI0
aI0
aI0
aI0
aI0
aI0
aI0
aI0
aI0
aI0
aI0
aI0
aI0
aI0
aI0
aI0
aI0
aF0.2
aa.(lp0
(lp1
I1
aI0
aI0
aI0
aI0
aI0
aI0
aI0
aI0
aI0
aF1.5646666666666667
aF0.14
aI3
aI0
aI0
aI0
aI0
aI0
aI0
aI0
aI0
aI0
aI0
aI0
aI0
aI0
aI0
aI0
aI0
aI0
aI0
aI0
aI0
aI0
aI0
aI0
aI0
aF0.8
aa.(lp0
(lp1
I0
aI1
aI0
aI0
aI0
aI1
aI0
aI0
aI0
aI0
aF1.503
aF0.14
aI5
aI0
aI0
aI0
aI0
aI0
aI0
aI0
aI0
aI0
aI0
aI0
aI0
aI0
aI0
aI0
aI0
aI0
aI0
aI0
aI0
aI0
aI0
aI0
aI0
aF0.6
aa.(lp0
(lp1
I0
aI1
aI0
aI0
aI0
aI1
aI0
aI0
aI0
aI0
aF1.1923333333333332
aF0.14
aI3
aI0
aI0
aI0
aI0
aI0
aI0
aI0
aI0
aI0
aI0
aI0
aI0
aI0
aI0
aI0
aI0
aI0
aI0
aI0
aI0
aI0
aI0
aI0
aI0
aF1.0
aa.(lp0
(lp1
I1
aI0
aI0
aI0
aI0
aI0
aI0
aI0
aI0
aI0
aF0.7533333333333333
aF0.14
aI4
aI0
aI0
aI0
aI0
aI0
aI0
aI0
aI0
aI0
aI0
aI0
aI0
aI0
aI0
aI0
aI0
aI0
aI0
aI0
aI0
aI0
aI0
aI0
aI0
aF0.4
aa.(lp0
(lp1
I0
aI0
aI0
aI0
aI0
aI1
aI0
aI0
aI0
aI0
aF0.94
aF0.1
aI5
aI0
aI0
aI0
aI0
aI0
aI0
aI0
aI0
aI0
aI0
aI0
aI0
aI0
aI0
aI0
aI0
aI0
aI0
aI0
aI0
aI0
aI0
aI0
aI0
aF0.2
aa.(lp0
(lp1
I1
aI0
aI0
aI0
aI0
aI0
aI0
aI0
aI0
aI0
aF1.5646666666666667
aF0.1
aI3
aI0
aI0
aI0
aI0
aI0
aI0
aI0
aI0
aI0
aI0
aI0
aI0
aI0
aI0
aI0
aI0
aI0
aI0
aI0
aI0
aI0
aI0
aI0
aI0
aF0.4
aa.(lp0
(lp1
I0
aI1
aI0
aI0
aI0
aI1
aI0
aI0
aI0
aI0
aF1.4896666666666667
aF0.1
aI5
aI0
aI0
aI0
aI0
aI0
aI0
aI0
aI0
aI0
aI0
aI0
aI0
aI0
aI0
aI0
aI0
aI0
aI0
aI0
aI0
aI0
aI0
aI0
aI0
aF0.8
aa.(lp0
(lp1
I0
aI0
aI0
aI0
aI0
aI1
aI0
aI0
aI0
aI0
aF1.179
aF0.12
aI3
aI0
aI0
aI0
aI0
aI0
aI0
aI0
aI0
aI0
aI0
aI0
aI0
aI0
aI0
aI0
aI0
aI0
aI0
aI0
aI0
aI0
aI0
aI0
aI0
aF0.2
aa.(lp0
(lp1
I1
aI0
aI0
aI0
aI0
aI0
aI0
aI0
aI0
aI0
aF0.7533333333333333
aF0.1
aI4
aI0
aI0
aI0
aI0
aI0
aI0
aI0
aI0
aI0
aI0
aI0
aI0
aI0
aI0
aI0
aI0
aI0
aI0
aI0
aI0
aI0
aI0
aI0
aI0
aF0.6
aa.(lp0
(lp1
I0
aI0
aI0
aI0
aI0
aI1
aI0
aI0
aI0
aI0
aF0.9733333333333334
aF0.12
aI3
aI0
aI0
aI0
aI0
aI0
aI0
aI0
aI0
aI0
aI0
aI0
aI0
aI0
aI0
aI0
aI0
aI0
aI0
aI0
aI0
aI0
aI0
aI0
aI0
aF1.0
aa.(lp0
(lp1
I1
aI0
aI0
aI0
aI0
aI0
aI0
aI0
aI0
aI0
aF1.5646666666666667
aF0.06
aI3
aI0
aI0
aI0
aI0
aI0
aI0
aI0
aI0
aI0
aI0
aI0
aI0
aI0
aI0
aI0
aI0
aI0
aI0
aI0
aI0
aI0
aI0
aI0
aI0
aF0.6
aa.(lp0
(lp1
I0
aI1
aI0
aI0
aI0
aI1
aI0
aI0
aI0
aI0
aF1.4763333333333333
aF0.12
aI3
aI0
aI0
aI0
aI0
aI0
aI0
aI0
aI0
aI0
aI0
aI0
aI0
aI0
aI0
aI0
aI0
aI0
aI0
aI0
aI0
aI0
aI0
aI0
aI0
aF1.0
aa.(lp0
(lp1
I0
aI1
aI0
aI0
aI0
aI1
aI0
aI0
aI0
aI0
aF1.1856666666666666
aF0.1
aI3
aI0
aI0
aI0
aI0
aI0
aI0
aI0
aI0
aI0
aI0
aI0
aI0
aI0
aI0
aI0
aI0
aI0
aI0
aI0
aI0
aI0
aI0
aI0
aI0
aF0.4
aa.(lp0
(lp1
I1
aI0
aI0
aI0
aI0
aI0
aI0
aI0
aI0
aI0
aF0.7533333333333333
aF0.06
aI4
aI0
aI0
aI0
aI0
aI0
aI0
aI0
aI0
aI0
aI0
aI0
aI0
aI0
aI0
aI0
aI0
aI0
aI0
aI0
aI0
aI0
aI0
aI0
aI0
aF0.2
aa.(lp0
(lp1
I0
aI0
aI0
aI0
aI0
aI1
aI0
aI0
aI0
aI0
aF0.98
aF0.12
aI3
aI0
aI0
aI0
aI0
aI0
aI0
aI0
aI0
aI0
aI0
aI0
aI0
aI0
aI0
aI0
aI0
aI0
aI0
aI0
aI0
aI0
aI0
aI0
aI0
aF0.8
aa.(lp0
(lp1
I1
aI0
aI0
aI0
aI0
aI0
aI0
aI0
aI0
aI0
aF1.5646666666666667
aF0.06
aI4
aI0
aI0
aI0
aI0
aI0
aI0
aI0
aI0
aI0
aI0
aI0
aI0
aI0
aI0
aI0
aI0
aI0
aI0
aI0
aI0
aI0
aI0
aI0
aI0
aF1.0
aa.(lp0
(lp1
I0
aI0
aI0
aI0
aI0
aI1
aI0
aI0
aI0
aI0
aF1.463
aF0.12
aI3
aI0
aI0
aI0
aI0
aI0
aI0
aI0
aI0
aI0
aI0
aI0
aI0
aI0
aI0
aI0
aI0
aI0
aI0
aI0
aI0
aI0
aI0
aI0
aI0
aF0.8
aa.(lp0
(lp1
I0
aI1
aI0
aI0
aI0
aI1
aI0
aI0
aI0
aI0
aF1.1723333333333332
aF0.1
aI4
aI0
aI0
aI0
aI0
aI0
aI0
aI0
aI0
aI0
aI0
aI0
aI0
aI0
aI0
aI0
aI0
aI0
aI0
aI0
aI0
aI0
aI0
aI0
aI0
aF0.2
aa.(lp0
(lp1
I1
aI0
aI0
aI0
aI0
aI0
aI0
aI0
aI0
aI0
aF0.74
aF0.12
aI2
aI0
aI0
aI0
aI0
aI0
aI0
aI0
aI0
aI0
aI0
aI0
aI0
aI0
aI0
aI0
aI0
aI0
aI0
aI0
aI0
aI0
aI0
aI0
aI0
aF0.4
aa.(lp0
(lp1
I1
aI0
aI0
aI0
aI0
aI0
aI0
aI0
aI0
aI0
aF1.02
aF0.1
aI3
aI0
aI0
aI0
aI0
aI0
aI0
aI0
aI0
aI0
aI0
aI0
aI0
aI0
aI0
aI0
aI0
aI0
aI0
aI0
aI0
aI0
aI0
aI0
aI0
aF0.6
aa.(lp0
(lp1
I1
aI0
aI0
aI0
aI0
aI0
aI0
aI0
aI0
aI0
aF1.538
aF0.64
aI3
aI0
aI0
aI0
aI0
aI0
aI0
aI0
aI0
aI0
aI0
aI0
aI0
aI0
aI0
aI0
aI0
aI0
aI0
aI0
aI0
aI0
aI0
aI0
aI0
aF0.4
aa.(lp0
(lp1
I0
aI0
aI0
aI0
aI0
aI0
aI1
aI0
aI0
aI0
aF1.383
aF0.64
aI5
aI0
aI0
aI0
aI0
aI0
aI0
aI0
aI0
aI0
aI0
aI0
aI0
aI0
aI0
aI0
aI0
aI0
aI0
aI0
aI0
aI0
aI0
aI0
aI0
aF0.2
aa.(lp0
(lp1
I0
aI1
aI0
aI0
aI0
aI2
aI0
aI0
aI0
aI0
aF1.0523333333333333
aF0.92
aI3
aI0
aI0
aI0
aI0
aI0
aI0
aI0
aI0
aI0
aI0
aI0
aI0
aI0
aI0
aI0
aI0
aI0
aI0
aI0
aI0
aI0
aI0
aI0
aI0
aF0.6
aa.(lp0
(lp1
I1
aI0
aI0
aI0
aI0
aI0
aI0
aI0
aI0
aI0
aF0.7266666666666667
aF0.64
aI4
aI0
aI0
aI0
aI0
aI0
aI0
aI0
aI0
aI0
aI0
aI0
aI0
aI0
aI0
aI0
aI0
aI0
aI0
aI0
aI0
aI0
aI0
aI0
aI0
aF1.0
aa.(lp0
(lp1
I1
aI0
aI0
aI0
aI0
aI1
aI0
aI0
aI0
aI0
aF0.9933333333333333
aF0.92
aI2
aI0
aI0
aI0
aI0
aI0
aI0
aI0
aI0
aI0
aI0
aI0
aI0
aI0
aI0
aI0
aI0
aI0
aI0
aI0
aI0
aI0
aI0
aI0
aI0
aF0.8
aa.(lp0
(lp1
I1
aI0
aI0
aI0
aI0
aI0
aI0
aI0
aI0
aI0
aF1.5246666666666666
aF0.56
aI3
aI0
aI0
aI0
aI0
aI0
aI0
aI0
aI0
aI0
aI0
aI0
aI0
aI0
aI0
aI0
aI0
aI0
aI0
aI0
aI0
aI0
aI0
aI0
aI0
aF0.6
aa.(lp0
(lp1
I0
aI0
aI0
aI0
aI0
aI0
aI1
aI0
aI0
aI0
aF1.5696666666666668
aF0.56
aI5
aI0
aI0
aI0
aI0
aI0
aI0
aI0
aI0
aI0
aI0
aI0
aI0
aI0
aI0
aI0
aI0
aI0
aI0
aI0
aI0
aI0
aI0
aI0
aI0
aF0.2
aa.(lp0
(lp1
I0
aI1
aI0
aI0
aI0
aI1
aI0
aI0
aI0
aI0
aF0.9323333333333333
aF0.84
aI3
aI0
aI0
aI0
aI0
aI0
aI0
aI0
aI0
aI0
aI0
aI0
aI0
aI0
aI0
aI0
aI0
aI0
aI0
aI0
aI0
aI0
aI0
aI0
aI0
aF0.4
aa.(lp0
(lp1
I1
aI0
aI0
aI0
aI0
aI0
aI0
aI0
aI0
aI0
aF0.7266666666666667
aF0.56
aI4
aI0
aI0
aI0
aI0
aI0
aI0
aI0
aI0
aI0
aI0
aI0
aI0
aI0
aI0
aI0
aI0
aI0
aI0
aI0
aI0
aI0
aI0
aI0
aI0
aF1.0
aa.(lp0
(lp1
I1
aI0
aI0
aI0
aI0
aI1
aI0
aI0
aI0
aI0
aF0.9666666666666667
aF0.84
aI2
aI0
aI0
aI0
aI0
aI0
aI0
aI0
aI0
aI0
aI0
aI0
aI0
aI0
aI0
aI0
aI0
aI0
aI0
aI0
aI0
aI0
aI0
aI0
aI0
aF0.8
aa.(lp0
(lp1
I0
aI1
aI0
aI0
aI0
aI1
aI0
aI0
aI0
aI0
aF1.498
aF0.28
aI4
aI0
aI0
aI0
aI0
aI0
aI0
aI0
aI0
aI0
aI0
aI0
aI0
aI0
aI0
aI0
aI0
aI0
aI0
aI0
aI0
aI0
aI0
aI0
aI0
aF0.6
aa.(lp0
(lp1
I0
aI0
aI0
aI0
aI0
aI1
aI0
aI0
aI0
aI0
aF1.823
aF0.2
aI5
aI0
aI0
aI0
aI0
aI0
aI0
aI0
aI0
aI0
aI0
aI0
aI0
aI0
aI0
aI0
aI0
aI0
aI0
aI0
aI0
aI0
aI0
aI0
aI0
aF0.2
aa.(lp0
(lp1
I0
aI0
aI1
aI0
aI0
aI1
aI0
aI0
aI0
aI0
aF0.9056666666666666
aF0.32
aI4
aI0
aI0
aI0
aI0
aI0
aI0
aI0
aI0
aI0
aI0
aI0
aI0
aI0
aI0
aI0
aI0
aI0
aI0
aI0
aI0
aI0
aI0
aI0
aI0
aF0.4
aa.(lp0
(lp1
I1
aI0
aI0
aI0
aI0
aI0
aI0
aI0
aI0
aI0
aF0.7266666666666667
aF0.2
aI4
aI0
aI0
aI0
aI0
aI0
aI0
aI0
aI0
aI0
aI0
aI0
aI0
aI0
aI0
aI0
aI0
aI0
aI0
aI0
aI0
aI0
aI0
aI0
aI0
aF1.0
aa.(lp0
(lp1
I0
aI1
aI0
aI0
aI0
aI1
aI0
aI0
aI0
aI0
aF0.94
aF0.32
aI4
aI0
aI0
aI0
aI0
aI0
aI0
aI0
aI0
aI0
aI0
aI0
aI0
aI0
aI0
aI0
aI0
aI0
aI0
aI0
aI0
aI0
aI0
aI0
aI0
aF0.8
aa.(lp0
(lp1
I1
aI0
aI0
aI0
aI0
aI0
aI0
aI0
aI0
aI0
aF1.498
aF0.12
aI3
aI0
aI0
aI0
aI0
aI0
aI0
aI0
aI0
aI0
aI0
aI0
aI0
aI0
aI0
aI0
aI0
aI0
aI0
aI0
aI0
aI0
aI0
aI0
aI0
aF1.0
aa.(lp0
(lp1
I0
aI1
aI0
aI0
aI0
aI0
aI1
aI0
aI0
aI0
aF1.903
aF0.6
aI3
aI0
aI0
aI0
aI0
aI0
aI0
aI0
aI0
aI0
aI0
aI0
aI0
aI0
aI0
aI0
aI0
aI0
aI0
aI0
aI0
aI0
aI0
aI0
aI0
aF0.4
aa.(lp0
(lp1
I0
aI0
aI0
aI0
aI0
aI2
aI0
aI0
aI0
aI0
aF0.639
aF0.96
aI3
aI0
aI0
aI0
aI0
aI0
aI0
aI0
aI0
aI0
aI0
aI0
aI0
aI0
aI0
aI0
aI0
aI0
aI0
aI0
aI0
aI0
aI0
aI0
aI0
aF0.8
aa.(lp0
(lp1
I1
aI0
aI0
aI0
aI0
aI0
aI0
aI0
aI0
aI0
aF0.7266666666666667
aF0.12
aI4
aI0
aI0
aI0
aI0
aI0
aI0
aI0
aI0
aI0
aI0
aI0
aI0
aI0
aI0
aI0
aI0
aI0
aI0
aI0
aI0
aI0
aI0
aI0
aI0
aF0.2
aa.(lp0
(lp1
I1
aI0
aI0
aI0
aI0
aI1
aI0
aI0
aI0
aI0
aF0.9133333333333333
aF0.96
aI2
aI0
aI0
aI0
aI0
aI0
aI0
aI0
aI0
aI0
aI0
aI0
aI0
aI0
aI0
aI0
aI0
aI0
aI0
aI0
aI0
aI0
aI0
aI0
aI0
aF0.6
aa.(lp0
(lp1
I0
aI0
aI0
aI0
aI0
aI2
aI0
aI0
aI0
aI0
aF1.3646666666666667
aF1.04
aI4
aI0
aI0
aI0
aI0
aI0
aI0
aI0
aI0
aI0
aI0
aI0
aI0
aI0
aI0
aI0
aI0
aI0
aI0
aI0
aI0
aI0
aI0
aI0
aI0
aF1.0
aa.(lp0
(lp1
I0
aI0
aI0
aI0
aI0
aI0
aI1
aI0
aI0
aI0
aF1.7696666666666667
aF0.72
aI5
aI0
aI0
aI0
aI0
aI0
aI0
aI0
aI0
aI0
aI0
aI0
aI0
aI0
aI0
aI0
aI0
aI0
aI0
aI0
aI0
aI0
aI0
aI0
aI0
aF0.4
aa.(lp0
(lp1
I0
aI1
aI0
aI0
aI0
aI2
aI0
aI0
aI0
aI0
aF0.8256666666666667
aF1.36
aI4
aI0
aI0
aI0
aI0
aI0
aI0
aI0
aI0
aI0
aI0
aI0
aI0
aI0
aI0
aI0
aI0
aI0
aI0
aI0
aI0
aI0
aI0
aI0
aI0
aF0.8
aa.(lp0
(lp1
I1
aI0
aI0
aI0
aI0
aI0
aI0
aI0
aI0
aI0
aF0.7
aF0.72
aI4
aI0
aI0
aI0
aI0
aI0
aI0
aI0
aI0
aI0
aI0
aI0
aI0
aI0
aI0
aI0
aI0
aI0
aI0
aI0
aI0
aI0
aI0
aI0
aI0
aF0.2
aa.(lp0
(lp1
I1
aI0
aI0
aI0
aI0
aI1
aI0
aI0
aI0
aI0
aF0.8866666666666667
aF1.36
aI3
aI0
aI0
aI0
aI0
aI0
aI0
aI0
aI0
aI0
aI0
aI0
aI0
aI0
aI0
aI0
aI0
aI0
aI0
aI0
aI0
aI0
aI0
aI0
aI0
aF0.6
aa.(lp0
(lp1
I1
aI0
aI0
aI0
aI0
aI0
aI0
aI0
aI0
aI0
aF0.7913333333333333
aF1.04
aI3
aI0
aI0
aI0
aI0
aI0
aI0
aI0
aI0
aI0
aI0
aI0
aI0
aI0
aI0
aI0
aI0
aI0
aI0
aI0
aI0
aI0
aI0
aI0
aI0
aF1.0
aa.(lp0
(lp1
I0
aI0
aI0
aI0
aI0
aI0
aI1
aI0
aI0
aI0
aF2.583
aF1.04
aI5
aI0
aI0
aI0
aI0
aI0
aI0
aI0
aI0
aI0
aI0
aI0
aI0
aI0
aI0
aI0
aI0
aI0
aI0
aI0
aI0
aI0
aI0
aI0
aI0
aF0.2
aa.(lp0
(lp1
I0
aI1
aI0
aI0
aI0
aI2
aI0
aI0
aI0
aI0
aF0.6656666666666666
aF1.36
aI3
aI0
aI0
aI0
aI0
aI0
aI0
aI0
aI0
aI0
aI0
aI0
aI0
aI0
aI0
aI0
aI0
aI0
aI0
aI0
aI0
aI0
aI0
aI0
aI0
aF0.6
aa.(lp0
(lp1
I1
aI0
aI0
aI0
aI0
aI0
aI0
aI0
aI0
aI0
aF0.6733333333333333
aF1.04
aI4
aI0
aI0
aI0
aI0
aI0
aI0
aI0
aI0
aI0
aI0
aI0
aI0
aI0
aI0
aI0
aI0
aI0
aI0
aI0
aI0
aI0
aI0
aI0
aI0
aF0.8
aa.(lp0
(lp1
I1
aI0
aI0
aI0
aI0
aI1
aI0
aI0
aI0
aI0
aF0.8333333333333334
aF1.36
aI2
aI0
aI0
aI0
aI0
aI0
aI0
aI0
aI0
aI0
aI0
aI0
aI0
aI0
aI0
aI0
aI0
aI0
aI0
aI0
aI0
aI0
aI0
aI0
aI0
aF0.4
aa.(lp0
(lp1
I1
aI0
aI0
aI0
aI0
aI0
aI0
aI0
aI0
aI0
aF0.7646666666666667
aF0.56
aI3
aI0
aI0
aI0
aI0
aI0
aI0
aI0
aI0
aI0
aI0
aI0
aI0
aI0
aI0
aI0
aI0
aI0
aI0
aI0
aI0
aI0
aI0
aI0
aI0
aF1.0
aa.(lp0
(lp1
I0
aI1
aI0
aI0
aI0
aI1
aI0
aI0
aI0
aI0
aF2.983
aF0.56
aI5
aI0
aI0
aI0
aI0
aI0
aI0
aI0
aI0
aI0
aI0
aI0
aI0
aI0
aI0
aI0
aI0
aI0
aI0
aI0
aI0
aI0
aI0
aI0
aI0
aF0.8
aa.(lp0
(lp1
I0
aI0
aI0
aI0
aI0
aI1
aI0
aI0
aI0
aI0
aF0.6123333333333333
aF0.56
aI3
aI0
aI0
aI0
aI0
aI0
aI0
aI0
aI0
aI0
aI0
aI0
aI0
aI0
aI0
aI0
aI0
aI0
aI0
aI0
aI0
aI0
aI0
aI0
aI0
aF0.6
aa.(lp0
(lp1
I1
aI0
aI0
aI0
aI0
aI0
aI0
aI0
aI0
aI0
aF0.6733333333333333
aF0.56
aI4
aI0
aI0
aI0
aI0
aI0
aI0
aI0
aI0
aI0
aI0
aI0
aI0
aI0
aI0
aI0
aI0
aI0
aI0
aI0
aI0
aI0
aI0
aI0
aI0
aF0.4
aa.(lp0
(lp1
I0
aI0
aI0
aI1
aI0
aI1
aI0
aI0
aI0
aI0
aF0.78
aF0.4
aI5
aI0
aI0
aI0
aI0
aI0
aI0
aI0
aI0
aI0
aI0
aI0
aI0
aI0
aI0
aI0
aI0
aI0
aI0
aI0
aI0
aI0
aI0
aI0
aI0
aF0.2
aa.(lp0
(lp1
I0
aI1
aI0
aI0
aI0
aI1
aI0
aI0
aI0
aI0
aF0.7113333333333334
aF0.56
aI4
aI0
aI0
aI0
aI0
aI0
aI0
aI0
aI0
aI0
aI0
aI0
aI0
aI0
aI0
aI0
aI0
aI0
aI0
aI0
aI0
aI0
aI0
aI0
aI0
aF0.2
aa.(lp0
(lp1
I0
aI0
aI0
aI0
aI0
aI1
aI0
aI0
aI0
aI0
aF2.929666666666667
aF0.4
aI5
aI0
aI0
aI0
aI0
aI0
aI0
aI0
aI0
aI0
aI0
aI0
aI0
aI0
aI0
aI0
aI0
aI0
aI0
aI0
aI0
aI0
aI0
aI0
aI0
aF0.6
aa.(lp0
(lp1
I1
aI0
aI0
aI0
aI0
aI0
aI0
aI0
aI0
aI0
aF0.879
aF0.56
aI3
aI0
aI0
aI0
aI0
aI0
aI0
aI0
aI0
aI0
aI0
aI0
aI0
aI0
aI0
aI0
aI0
aI0
aI0
aI0
aI0
aI0
aI0
aI0
aI0
aF1.0
aa.(lp0
(lp1
I1
aI0
aI0
aI0
aI0
aI0
aI0
aI0
aI0
aI0
aF0.6733333333333333
aF0.4
aI4
aI0
aI0
aI0
aI0
aI0
aI0
aI0
aI0
aI0
aI0
aI0
aI0
aI0
aI0
aI0
aI0
aI0
aI0
aI0
aI0
aI0
aI0
aI0
aI0
aF0.4
aa.(lp0
(lp1
I0
aI1
aI0
aI0
aI0
aI1
aI0
aI0
aI0
aI0
aF0.62
aF0.56
aI3
aI0
aI0
aI0
aI0
aI0
aI0
aI0
aI0
aI0
aI0
aI0
aI0
aI0
aI0
aI0
aI0
aI0
aI0
aI0
aI0
aI0
aI0
aI0
aI0
aF0.8
aa.(lp0
(lp1
I0
aI0
aI0
aI0
aI0
aI2
aI0
aI0
aI0
aI0
aF0.498
aF1.6
aI4
aI0
aI0
aI0
aI0
aI0
aI0
aI0
aI0
aI0
aI0
aI0
aI0
aI0
aI0
aI0
aI0
aI0
aI0
aI0
aI0
aI0
aI0
aI0
aI0
aF0.8
aa.(lp0
(lp1
I0
aI1
aI0
aI0
aI0
aI0
aI1
aI0
aI0
aI0
aF2.903
aF1.12
aI4
aI0
aI0
aI0
aI0
aI0
aI0
aI0
aI0
aI0
aI0
aI0
aI0
aI0
aI0
aI0
aI0
aI0
aI0
aI0
aI0
aI0
aI0
aI0
aI0
aF0.4
aa.(lp0
(lp1
I0
aI0
aI0
aI0
aI0
aI2
aI0
aI0
aI0
aI0
aF0.6656666666666666
aF2.08
aI4
aI0
aI0
aI0
aI0
aI0
aI0
aI0
aI0
aI0
aI0
aI0
aI0
aI0
aI0
aI0
aI0
aI0
aI0
aI0
aI0
aI0
aI0
aI0
aI0
aF1.0
aa.(lp0
(lp1
I1
aI0
aI0
aI0
aI0
aI0
aI0
aI0
aI0
aI0
aF0.6733333333333333
aF0.24
aI4
aI0
aI0
aI0
aI0
aI0
aI0
aI0
aI0
aI0
aI0
aI0
aI0
aI0
aI0
aI0
aI0
aI0
aI0
aI0
aI0
aI0
aI0
aI0
aI0
aF0.2
aa.(lp0
(lp1
I1
aI0
aI0
aI0
aI0
aI1
aI0
aI0
aI0
aI0
aF0.5666666666666667
aF2.08
aI3
aI0
aI0
aI0
aI0
aI0
aI0
aI0
aI0
aI0
aI0
aI0
aI0
aI0
aI0
aI0
aI0
aI0
aI0
aI0
aI0
aI0
aI0
aI0
aI0
aF0.6
aa.(lp0
(lp1
I0
aI0
aI0
aI0
aI0
aI1
aI0
aI0
aI0
aI0
aF2.849666666666667
aF0.64
aI4
aI0
aI0
aI0
aI0
aI0
aI0
aI0
aI0
aI0
aI0
aI0
aI0
aI0
aI0
aI0
aI0
aI0
aI0
aI0
aI0
aI0
aI0
aI0
aI0
aF0.8
aa.(lp0
(lp1
I0
aI1
aI0
aI0
aI0
aI1
aI0
aI0
aI0
aI0
aF1.8036666666666668
aF0.4
aI4
aI0
aI0
aI0
aI0
aI0
aI0
aI0
aI0
aI0
aI0
aI0
aI0
aI0
aI0
aI0
aI0
aI0
aI0
aI0
aI0
aI0
aI0
aI0
aI0
aF0.4
aa.(lp0
(lp1
I1
aI0
aI0
aI0
aI0
aI0
aI0
aI0
aI0
aI0
aF0.62
aF0.64
aI3
aI0
aI0
aI0
aI0
aI0
aI0
aI0
aI0
aI0
aI0
aI0
aI0
aI0
aI0
aI0
aI0
aI0
aI0
aI0
aI0
aI0
aI0
aI0
aI0
aF1.0
aa.(lp0
(lp1
I0
aI1
aI0
aI0
aI0
aI1
aI0
aI0
aI0
aI0
aF0.5133333333333333
aF0.56
aI4
aI0
aI0
aI0
aI0
aI0
aI0
aI0
aI0
aI0
aI0
aI0
aI0
aI0
aI0
aI0
aI0
aI0
aI0
aI0
aI0
aI0
aI0
aI0
aI0
aF0.6
aa.(lp0
(lp1
I0
aI0
aI0
aI0
aI0
aI0
aI1
aI0
aI0
aI0
aF2.743
aF1.76
aI4
aI0
aI0
aI0
aI0
aI0
aI0
aI0
aI0
aI0
aI0
aI0
aI0
aI0
aI0
aI0
aI0
aI0
aI0
aI0
aI0
aI0
aI0
aI0
aI0
aF0.8
aa.(lp0
(lp1
I0
aI1
aI0
aI0
aI0
aI1
aI0
aI0
aI0
aI0
aF1.4836666666666667
aF2.4
aI3
aI0
aI0
aI0
aI0
aI0
aI0
aI0
aI0
aI0
aI0
aI0
aI0
aI0
aI0
aI0
aI0
aI0
aI0
aI0
aI0
aI0
aI0
aI0
aI0
aF0.6
aa.(lp0
(lp1
I1
aI0
aI0
aI0
aI0
aI0
aI0
aI0
aI0
aI0
aF0.5666666666666667
aF1.76
aI3
aI0
aI0
aI0
aI0
aI0
aI0
aI0
aI0
aI0
aI0
aI0
aI0
aI0
aI0
aI0
aI0
aI0
aI0
aI0
aI0
aI0
aI0
aI0
aI0
aF0.4
aa.(lp0
(lp1
I1
aI0
aI0
aI0
aI0
aI1
aI0
aI0
aI0
aI0
aF0.4066666666666667
aF2.4
aI2
aI0
aI0
aI0
aI0
aI0
aI0
aI0
aI0
aI0
aI0
aI0
aI0
aI0
aI0
aI0
aI0
aI0
aI0
aI0
aI0
aI0
aI0
aI0
aI0
aF1.0
aa.(lp0
(lp1
I0
aI0
aI0
aI0
aI0
aI1
aI0
aI0
aI0
aI0
aF3.4363333333333332
aF0.8
aI4
aI0
aI0
aI0
aI0
aI0
aI0
aI0
aI0
aI0
aI0
aI0
aI0
aI0
aI0
aI0
aI0
aI0
aI0
aI0
aI0
aI0
aI0
aI0
aI0
aF0.4
aa.(lp0
(lp1
I0
aI1
aI0
aI0
aI0
aI1
aI0
aI0
aI0
aI0
aF1.377
aF0.96
aI3
aI0
aI0
aI0
aI0
aI0
aI0
aI0
aI0
aI0
aI0
aI0
aI0
aI0
aI0
aI0
aI0
aI0
aI0
aI0
aI0
aI0
aI0
aI0
aI0
aF1.0
aa.(lp0
(lp1
I1
aI0
aI0
aI0
aI0
aI0
aI0
aI0
aI0
aI0
aF0.5666666666666667
aF0.8
aI3
aI0
aI0
aI0
aI0
aI0
aI0
aI0
aI0
aI0
aI0
aI0
aI0
aI0
aI0
aI0
aI0
aI0
aI0
aI0
aI0
aI0
aI0
aI0
aI0
aF0.6
aa.(lp0
(lp1
I0
aI1
aI0
aI0
aI0
aI1
aI0
aI0
aI0
aI0
aF0.3
aF0.96
aI3
aI0
aI0
aI0
aI0
aI0
aI0
aI0
aI0
aI0
aI0
aI0
aI0
aI0
aI0
aI0
aI0
aI0
aI0
aI0
aI0
aI0
aI0
aI0
aI0
aF0.8
aa.(lp0
(lp1
I0
aI0
aI0
aI0
aI0
aI0
aI1
aI0
aI0
aI0
aF3.4363333333333332
aF1.92
aI3
aI0
aI0
aI0
aI0
aI0
aI0
aI0
aI0
aI0
aI0
aI0
aI0
aI0
aI0
aI0
aI0
aI0
aI0
aI0
aI0
aI0
aI0
aI0
aI0
aF0.4
aa.(lp0
(lp1
I0
aI0
aI0
aI0
aI0
aI2
aI0
aI0
aI0
aI0
aF0.8436666666666667
aF2.88
aI3
aI0
aI0
aI0
aI0
aI0
aI0
aI0
aI0
aI0
aI0
aI0
aI0
aI0
aI0
aI0
aI0
aI0
aI0
aI0
aI0
aI0
aI0
aI0
aI0
aF0.6
aa.(lp0
(lp1
I1
aI0
aI0
aI0
aI0
aI0
aI0
aI0
aI0
aI0
aF0.5666666666666667
aF0.48
aI3
aI0
aI0
aI0
aI0
aI0
aI0
aI0
aI0
aI0
aI0
aI0
aI0
aI0
aI0
aI0
aI0
aI0
aI0
aI0
aI0
aI0
aI0
aI0
aI0
aF0.8
aa.(lp0
(lp1
I1
aI0
aI0
aI0
aI0
aI1
aI0
aI0
aI0
aI0
aF0.19333333333333333
aF2.88
aI2
aI0
aI0
aI0
aI0
aI0
aI0
aI0
aI0
aI0
aI0
aI0
aI0
aI0
aI0
aI0
aI0
aI0
aI0
aI0
aI0
aI0
aI0
aI0
aI0
aF1.0
aa.(lp0
(lp1
I0
aI0
aI0
aI0
aI0
aI0
aI1
aI0
aI0
aI0
aF2.219333333333333
aF2.08
aI4
aI0
aI0
aI0
aI0
aI0
aI0
aI0
aI0
aI0
aI0
aI0
aI0
aI0
aI0
aI0
aI0
aI0
aI0
aI0
aI0
aI0
aI0
aI0
aI0
aF0.4
aa.(lp0
(lp1
I0
aI1
aI0
aI0
aI0
aI2
aI0
aI0
aI0
aI0
aF2.274
aF2.88
aI3
aI0
aI0
aI0
aI0
aI0
aI0
aI0
aI0
aI0
aI0
aI0
aI0
aI0
aI0
aI0
aI0
aI0
aI0
aI0
aI0
aI0
aI0
aI0
aI0
aF0.8
aa.(lp0
(lp1
I1
aI0
aI0
aI0
aI0
aI0
aI0
aI0
aI0
aI0
aF0.46
aF2.08
aI3
aI0
aI0
aI0
aI0
aI0
aI0
aI0
aI0
aI0
aI0
aI0
aI0
aI0
aI0
aI0
aI0
aI0
aI0
aI0
aI0
aI0
aI0
aI0
aI0
aF1.0
aa.(lp0
(lp1
I1
aI0
aI0
aI0
aI0
aI1
aI0
aI0
aI0
aI0
aF0.08666666666666667
aF2.88
aI2
aI0
aI0
aI0
aI0
aI0
aI0
aI0
aI0
aI0
aI0
aI0
aI0
aI0
aI0
aI0
aI0
aI0
aI0
aI0
aI0
aI0
aI0
aI0
aI0
aF0.6
aa.(lp0
(lp1
I0
aI0
aI0
aI0
aI0
aI0
aI1
aI0
aI0
aI0
aF2.5393333333333334
aF3.14
aI4
aI0
aI0
aI0
aI0
aI0
aI0
aI0
aI0
aI0
aI0
aI0
aI0
aI0
aI0
aI0
aI0
aI0
aI0
aI0
aI0
aI0
aI0
aI0
aI0
aF0.6
aa.(lp0
(lp1
I0
aI1
aI0
aI0
aI0
aI1
aI0
aI0
aI0
aI0
aF1.634
aF4.42
aI3
aI0
aI0
aI0
aI0
aI0
aI0
aI0
aI0
aI0
aI0
aI0
aI0
aI0
aI0
aI0
aI0
aI0
aI0
aI0
aI0
aI0
aI0
aI0
aI0
aF1.0
aa.(lp0
(lp1
I1
aI0
aI0
aI0
aI0
aI0
aI0
aI0
aI0
aI0
aF0.35333333333333333
aF3.14
aI3
aI0
aI0
aI0
aI0
aI0
aI0
aI0
aI0
aI0
aI0
aI0
aI0
aI0
aI0
aI0
aI0
aI0
aI0
aI0
aI0
aI0
aI0
aI0
aI0
aF0.4
aa.(lp0
(lp1
I0
aI0
aI0
aI0
aI0
aI0
aI0
aI0
aI0
aI1
aF0.0
aF1.22
aI4
aI0
aI0
aI0
aI0
aI0
aI0
aI0
aI0
aI0
aI0
aI0
aI0
aI0
aI0
aI0
aI0
aI0
aI0
aI0
aI0
aI0
aI0
aI0
aI0
aF0.8
aa.(lp0
(lp1
I0
aI0
aI1
aI0
aI0
aI1
aI0
aI0
aI0
aI0
aF3.4526666666666666
aF1.6
aI4
aI0
aI0
aI0
aI0
aI0
aI0
aI0
aI0
aI0
aI0
aI0
aI0
aI0
aI0
aI0
aI0
aI0
aI0
aI0
aI0
aI0
aI0
aI0
aI0
aF1.0
aa.(lp0
(lp1
I0
aI0
aI0
aI0
aI0
aI1
aI0
aI0
aI0
aI0
aF1.4206666666666667
aF1.92
aI3
aI0
aI0
aI0
aI0
aI0
aI0
aI0
aI0
aI0
aI0
aI0
aI0
aI0
aI0
aI0
aI0
aI0
aI0
aI0
aI0
aI0
aI0
aI0
aI0
aF0.8
aa.(lp0
(lp1
I1
aI0
aI0
aI0
aI0
aI0
aI0
aI0
aI0
aI0
aF0.35333333333333333
aF1.6
aI3
aI0
aI0
aI0
aI0
aI0
aI0
aI0
aI0
aI0
aI0
aI0
aI0
aI0
aI0
aI0
aI0
aI0
aI0
aI0
aI0
aI0
aI0
aI0
aI0
aF0.6
aa.(lp0
(lp1
I0
aI0
aI0
aI0
aI0
aI1
aI0
aI0
aI0
aI0
aF0.13333333333333333
aF1.92
aI3
aI0
aI0
aI0
aI0
aI0
aI0
aI0
aI0
aI0
aI0
aI0
aI0
aI0
aI0
aI0
aI0
aI0
aI0
aI0
aI0
aI0
aI0
aI0
aI0
aF0.4
aa.(lp0
(lp1
I0
aI1
aI0
aI0
aI0
aI1
aI0
aI0
aI0
aI0
aF3.026
aF1.92
aI3
aI0
aI0
aI0
aI0
aI0
aI0
aI0
aI0
aI0
aI0
aI0
aI0
aI0
aI0
aI0
aI0
aI0
aI0
aI0
aI0
aI0
aI0
aI0
aI0
aF0.8
aa.(lp0
(lp1
I0
aI0
aI0
aI0
aI0
aI1
aI0
aI0
aI0
aI0
aF1.154
aF1.6
aI3
aI0
aI0
aI0
aI0
aI0
aI0
aI0
aI0
aI0
aI0
aI0
aI0
aI0
aI0
aI0
aI0
aI0
aI0
aI0
aI0
aI0
aI0
aI0
aI0
aF0.6
aa.(lp0
(lp1
I1
aI0
aI0
aI0
aI0
aI0
aI0
aI0
aI0
aI0
aF0.35333333333333333
aF0.96
aI3
aI0
aI0
aI0
aI0
aI0
aI0
aI0
aI0
aI0
aI0
aI0
aI0
aI0
aI0
aI0
aI0
aI0
aI0
aI0
aI0
aI0
aI0
aI0
aI0
aF0.4
aa.(lp0
(lp1
I0
aI0
aI0
aI0
aI0
aI1
aI0
aI0
aI0
aI0
aF0.8266666666666667
aF1.92
aI3
aI0
aI0
aI0
aI0
aI0
aI0
aI0
aI0
aI0
aI0
aI0
aI0
aI0
aI0
aI0
aI0
aI0
aI0
aI0
aI0
aI0
aI0
aI0
aI0
aF1.0
aa.(lp0
(lp1
I1
aI0
aI0
aI0
aI0
aI0
aI0
aI0
aI0
aI0
aF1.0
aF0.11
aI6
aI0
aI0
aI0
aI0
aI0
aI0
aI0
aI0
aI0
aI0
aI0
aI0
aI0
aI0
aI0
aI0
aI0
aI0
aI0
aI0
aI0
aI0
aI0
aI0
aF0.5714285714285714
aa.(lp0
(lp1
I1
aI0
aI0
aI0
aI0
aI0
aI0
aI0
aI0
aI0
aF1.0
aF0.46
aI5
aI0
aI0
aI0
aI0
aI0
aI0
aI0
aI0
aI0
aI0
aI0
aI0
aI0
aI0
aI0
aI0
aI0
aI0
aI0
aI0
aI0
aI0
aI0
aI0
aF1.0
aa.(lp0
(lp1
I1
aI0
aI0
aI0
aI0
aI0
aI0
aI0
aI0
aI0
aF1.0
aF0.03
aI7
aI0
aI0
aI0
aI0
aI0
aI0
aI0
aI0
aI0
aI0
aI0
aI0
aI0
aI0
aI0
aI0
aI0
aI0
aI0
aI0
aI0
aI0
aI0
aI0
aF0.8571428571428571
aa.(lp0
(lp1
I0
aI1
aI0
aI0
aI0
aI1
aI1
aI0
aI0
aI0
aF0.91
aF0.9
aI4
aI0
aI0
aI0
aI0
aI0
aI0
aI0
aI0
aI0
aI0
aI0
aI0
aI0
aI0
aI0
aI0
aI0
aI0
aI0
aI0
aI0
aI0
aI0
aI0
aF0.0
aa.(lp0
(lp1
I0
aI0
aI0
aI0
aI0
aI1
aI0
aI0
aI0
aI0
aF0.91
aF0.71
aI4
aI0
aI0
aI0
aI0
aI0
aI0
aI0
aI0
aI0
aI0
aI0
aI0
aI0
aI0
aI0
aI0
aI0
aI0
aI0
aI0
aI0
aI0
aI0
aI0
aF0.14285714285714285
aa.(lp0
(lp1
I0
aI0
aI0
aI0
aI0
aI0
aI1
aI0
aI0
aI0
aF0.91
aF0.46
aI6
aI0
aI0
aI0
aI0
aI0
aI0
aI0
aI0
aI0
aI0
aI0
aI0
aI0
aI0
aI0
aI0
aI0
aI0
aI0
aI0
aI0
aI0
aI0
aI0
aF0.7142857142857143
aa.(lp0
(lp1
I1
aI0
aI0
aI0
aI0
aI0
aI0
aI0
aI0
aI0
aF0.9966666666666667
aF0.46
aI4
aI0
aI0
aI0
aI0
aI0
aI0
aI0
aI0
aI0
aI0
aI0
aI0
aI0
aI0
aI0
aI0
aI0
aI0
aI0
aI0
aI0
aI0
aI0
aI0
aF0.42857142857142855
aa.(lp0
(lp1
I0
aI0
aI0
aI0
aI0
aI2
aI0
aI0
aI0
aI0
aF0.91
aF1.09
aI4
aI0
aI0
aI0
aI0
aI0
aI0
aI0
aI0
aI0
aI0
aI0
aI0
aI0
aI0
aI0
aI0
aI0
aI0
aI0
aI0
aI0
aI0
aI0
aI0
aF0.2857142857142857
aa.(lp0
(lp1
I0
aI0
aI0
aI0
aI0
aI1
aI0
aI0
aI0
aI0
aF0.9933333333333333
aF0.05
aI6
aI0
aI0
aI0
aI0
aI0
aI0
aI0
aI0
aI0
aI0
aI0
aI0
aI0
aI0
aI0
aI0
aI0
aI0
aI0
aI0
aI0
aI0
aI0
aI0
aF0.6428571428571429
aa.(lp0
(lp1
I0
aI1
aI0
aI0
aI0
aI1
aI0
aI0
aI0
aI0
aF0.9933333333333333
aF0.09
aI6
aI0
aI0
aI0
aI0
aI0
aI0
aI0
aI0
aI0
aI0
aI0
aI0
aI0
aI0
aI0
aI0
aI0
aI0
aI0
aI0
aI0
aI0
aI0
aI0
aF0.8571428571428571
aa.(lp0
(lp1
I1
aI0
aI0
aI0
aI0
aI0
aI0
aI0
aI0
aI0
aF0.9966666666666667
aF0.11
aI5
aI0
aI0
aI0
aI0
aI0
aI0
aI0
aI0
aI0
aI0
aI0
aI0
aI0
aI0
aI0
aI0
aI0
aI0
aI0
aI0
aI0
aI0
aI0
aI0
aF1.0
aa.(lp0
(lp1
I0
aI1
aI0
aI0
aI0
aI1
aI0
aI0
aI0
aI0
aF0.8863333333333333
aF0.11
aI5
aI0
aI0
aI0
aI0
aI0
aI0
aI0
aI0
aI0
aI0
aI0
aI0
aI0
aI0
aI0
aI0
aI0
aI0
aI0
aI0
aI0
aI0
aI0
aI0
aF0.42857142857142855
aa.(lp0
(lp1
I0
aI0
aI0
aI0
aI0
aI1
aI0
aI0
aI0
aI0
aF0.99
aF0.11
aI6
aI0
aI0
aI0
aI0
aI0
aI0
aI0
aI0
aI0
aI0
aI0
aI0
aI0
aI0
aI0
aI0
aI0
aI0
aI0
aI0
aI0
aI0
aI0
aI0
aF0.6428571428571429
aa.(lp0
(lp1
I0
aI0
aI0
aI0
aI0
aI1
aI0
aI0
aI0
aI0
aF3.103666666666667
aF0.07
aI6
aI0
aI0
aI0
aI0
aI0
aI0
aI0
aI0
aI0
aI0
aI0
aI0
aI0
aI0
aI0
aI0
aI0
aI0
aI0
aI0
aI0
aI0
aI0
aI0
aF0.2857142857142857
aa.(lp0
(lp1
I0
aI1
aI0
aI0
aI0
aI1
aI0
aI0
aI0
aI0
aF1.39
aF0.75
aI3
aI0
aI0
aI0
aI0
aI0
aI0
aI0
aI0
aI0
aI0
aI0
aI0
aI0
aI0
aI0
aI0
aI0
aI0
aI0
aI0
aI0
aI0
aI0
aI0
aF0.42857142857142855
aa.(lp0
(lp1
I0
aI0
aI0
aI0
aI0
aI0
aI1
aI0
aI0
aI0
aF0.8733333333333333
aF0.41
aI6
aI0
aI0
aI0
aI0
aI0
aI0
aI0
aI0
aI0
aI0
aI0
aI0
aI0
aI0
aI0
aI0
aI0
aI0
aI0
aI0
aI0
aI0
aI0
aI0
aF0.5714285714285714
aa.(lp0
(lp1
I1
aI0
aI0
aI0
aI0
aI0
aI0
aI0
aI0
aI0
aF0.9966666666666667
aF0.41
aI4
aI0
aI0
aI0
aI0
aI0
aI0
aI0
aI0
aI0
aI0
aI0
aI0
aI0
aI0
aI0
aI0
aI0
aI0
aI0
aI0
aI0
aI0
aI0
aI0
aF1.0
aa.(lp0
(lp1
I1
aI0
aI0
aI0
aI0
aI0
aI0
aI0
aI0
aI0
aF0.883
aF0.41
aI3
aI0
aI0
aI0
aI0
aI0
aI0
aI0
aI0
aI0
aI0
aI0
aI0
aI0
aI0
aI0
aI0
aI0
aI0
aI0
aI0
aI0
aI0
aI0
aI0
aF0.2857142857142857
aa.(lp0
(lp1
I1
aI0
aI0
aI0
aI0
aI0
aI0
aI0
aI0
aI0
aF1.5033333333333334
aF0.41
aI5
aI0
aI0
aI0
aI0
aI0
aI0
aI0
aI0
aI0
aI0
aI0
aI0
aI0
aI0
aI0
aI0
aI0
aI0
aI0
aI0
aI0
aI0
aI0
aI0
aF0.8571428571428571
aa.(lp0
(lp1
I0
aI1
aI0
aI0
aI0
aI2
aI0
aI0
aI0
aI0
aF1.9903333333333333
aF1.09
aI3
aI0
aI0
aI0
aI0
aI0
aI0
aI0
aI0
aI0
aI0
aI0
aI0
aI0
aI0
aI0
aI0
aI0
aI0
aI0
aI0
aI0
aI0
aI0
aI0
aF0.7142857142857143
aa.(lp0
(lp1
I0
aI1
aI0
aI0
aI0
aI1
aI0
aI0
aI0
aI0
aF1.3833333333333333
aF0.1
aI5
aI0
aI0
aI0
aI0
aI0
aI0
aI0
aI0
aI0
aI0
aI0
aI0
aI0
aI0
aI0
aI0
aI0
aI0
aI0
aI0
aI0
aI0
aI0
aI0
aF0.2857142857142857
aa.(lp0
(lp1
I0
aI0
aI1
aI0
aI0
aI1
aI0
aI0
aI0
aI0
aF1.23
aF0.05
aI6
aI0
aI0
aI0
aI0
aI0
aI0
aI0
aI0
aI0
aI0
aI0
aI0
aI0
aI0
aI0
aI0
aI0
aI0
aI0
aI0
aI0
aI0
aI0
aI0
aF0.42857142857142855
aa.(lp0
(lp1
I0
aI1
aI0
aI0
aI0
aI1
aI0
aI0
aI0
aI0
aF0.99
aF0.07
aI5
aI0
aI0
aI0
aI0
aI0
aI0
aI0
aI0
aI0
aI0
aI0
aI0
aI0
aI0
aI0
aI0
aI0
aI0
aI0
aI0
aI0
aI0
aI0
aI0
aF0.5714285714285714
aa.(lp0
(lp1
I0
aI0
aI0
aI0
aI0
aI1
aI0
aI0
aI0
aI0
aF0.8763333333333333
aF0.09
aI5
aI0
aI0
aI0
aI0
aI0
aI0
aI0
aI0
aI0
aI0
aI0
aI0
aI0
aI0
aI0
aI0
aI0
aI0
aI0
aI0
aI0
aI0
aI0
aI0
aF1.0
aa.(lp0
(lp1
I1
aI0
aI0
aI0
aI0
aI0
aI0
aI0
aI0
aI0
aF1.5033333333333334
aF0.05
aI5
aI0
aI0
aI0
aI0
aI0
aI0
aI0
aI0
aI0
aI0
aI0
aI0
aI0
aI0
aI0
aI0
aI0
aI0
aI0
aI0
aI0
aI0
aI0
aI0
aF0.7142857142857143
aa.(lp0
(lp1
I0
aI1
aI0
aI0
aI0
aI1
aI0
aI0
aI0
aI0
aF1.9836666666666667
aF0.1
aI5
aI0
aI0
aI0
aI0
aI0
aI0
aI0
aI0
aI0
aI0
aI0
aI0
aI0
aI0
aI0
aI0
aI0
aI0
aI0
aI0
aI0
aI0
aI0
aI0
aF0.8571428571428571
aa.(lp0
(lp1
I1
aI0
aI0
aI0
aI0
aI0
aI0
aI0
aI0
aI0
aF1.3833333333333333
aF0.07
aI4
aI0
aI0
aI0
aI0
aI0
aI0
aI0
aI0
aI0
aI0
aI0
aI0
aI0
aI0
aI0
aI0
aI0
aI0
aI0
aI0
aI0
aI0
aI0
aI0
aF1.0
aa.(lp0
(lp1
I0
aI0
aI0
aI0
aI0
aI1
aI0
aI0
aI0
aI0
aF1.2166666666666666
aF0.08
aI4
aI0
aI0
aI0
aI0
aI0
aI0
aI0
aI0
aI0
aI0
aI0
aI0
aI0
aI0
aI0
aI0
aI0
aI0
aI0
aI0
aI0
aI0
aI0
aI0
aF0.8571428571428571
aa.(lp0
(lp1
I1
aI0
aI0
aI0
aI0
aI0
aI0
aI0
aI0
aI0
aF0.99
aF0.05
aI5
aI0
aI0
aI0
aI0
aI0
aI0
aI0
aI0
aI0
aI0
aI0
aI0
aI0
aI0
aI0
aI0
aI0
aI0
aI0
aI0
aI0
aI0
aI0
aI0
aF0.42857142857142855
aa.(lp0
(lp1
I0
aI1
aI0
aI0
aI0
aI1
aI0
aI0
aI0
aI0
aF0.9096666666666666
aF0.07
aI5
aI0
aI0
aI0
aI0
aI0
aI0
aI0
aI0
aI0
aI0
aI0
aI0
aI0
aI0
aI0
aI0
aI0
aI0
aI0
aI0
aI0
aI0
aI0
aI0
aF0.7142857142857143
aa.(lp0
(lp1
I0
aI1
aI0
aI0
aI0
aI1
aI0
aI0
aI0
aI0
aF1.4966666666666666
aF0.05
aI6
aI0
aI0
aI0
aI0
aI0
aI0
aI0
aI0
aI0
aI0
aI0
aI0
aI0
aI0
aI0
aI0
aI0
aI0
aI0
aI0
aI0
aI0
aI0
aI0
aF0.2857142857142857
aa.(lp0
(lp1
I0
aI1
aI0
aI0
aI0
aI1
aI0
aI0
aI0
aI0
aF1.977
aF0.08
aI4
aI0
aI0
aI0
aI0
aI0
aI0
aI0
aI0
aI0
aI0
aI0
aI0
aI0
aI0
aI0
aI0
aI0
aI0
aI0
aI0
aI0
aI0
aI0
aI0
aF0.5714285714285714
aa.(lp0
(lp1
I1
aI0
aI0
aI0
aI0
aI0
aI0
aI0
aI0
aI0
aF1.3833333333333333
aF0.1
aI5
aI0
aI0
aI0
aI0
aI0
aI0
aI0
aI0
aI0
aI0
aI0
aI0
aI0
aI0
aI0
aI0
aI0
aI0
aI0
aI0
aI0
aI0
aI0
aI0
aF0.7142857142857143
aa.(lp0
(lp1
I0
aI0
aI0
aI0
aI0
aI0
aI1
aI0
aI0
aI0
aF1.12
aF0.5
aI5
aI0
aI0
aI0
aI0
aI0
aI0
aI0
aI0
aI0
aI0
aI0
aI0
aI0
aI0
aI0
aI0
aI0
aI0
aI0
aI0
aI0
aI0
aI0
aI0
aF0.42857142857142855
aa.(lp0
(lp1
I1
aI0
aI0
aI0
aI0
aI0
aI0
aI0
aI0
aI0
aF1.9766666666666666
aF0.5
aI3
aI0
aI0
aI0
aI0
aI0
aI0
aI0
aI0
aI0
aI0
aI0
aI0
aI0
aI0
aI0
aI0
aI0
aI0
aI0
aI0
aI0
aI0
aI0
aI0
aF1.0
aa.(lp0
(lp1
I1
aI0
aI0
aI0
aI0
aI1
aI0
aI0
aI0
aI0
aF0.8963333333333333
aF0.5
aI2
aI0
aI0
aI0
aI0
aI0
aI0
aI0
aI0
aI0
aI0
aI0
aI0
aI0
aI0
aI0
aI0
aI0
aI0
aI0
aI0
aI0
aI0
aI0
aI0
aF0.8571428571428571
aa.(lp0
(lp1
I1
aI0
aI0
aI0
aI0
aI0
aI0
aI0
aI0
aI0
aF1.4833333333333334
aF0.5
aI4
aI0
aI0
aI0
aI0
aI0
aI0
aI0
aI0
aI0
aI0
aI0
aI0
aI0
aI0
aI0
aI0
aI0
aI0
aI0
aI0
aI0
aI0
aI0
aI0
aF0.5714285714285714
aa.(lp0
(lp1
I0
aI1
aI0
aI0
aI0
aI2
aI0
aI0
aI0
aI0
aF0.867
aF0.82
aI2
aI0
aI0
aI0
aI0
aI0
aI0
aI0
aI0
aI0
aI0
aI0
aI0
aI0
aI0
aI0
aI0
aI0
aI0
aI0
aI0
aI0
aI0
aI0
aI0
aF0.2857142857142857
aa.(lp0
(lp1
I1
aI0
aI0
aI0
aI0
aI0
aI0
aI0
aI0
aI0
aF1.3833333333333333
aF0.06
aI5
aI0
aI0
aI0
aI0
aI0
aI0
aI0
aI0
aI0
aI0
aI0
aI0
aI0
aI0
aI0
aI0
aI0
aI0
aI0
aI0
aI0
aI0
aI0
aI0
aF0.5714285714285714
aa.(lp0
(lp1
I0
aI1
aI0
aI0
aI0
aI1
aI0
aI0
aI0
aI0
aF1.38
aF0.14
aI5
aI0
aI0
aI0
aI0
aI0
aI0
aI0
aI0
aI0
aI0
aI0
aI0
aI0
aI0
aI0
aI0
aI0
aI0
aI0
aI0
aI0
aI0
aI0
aI0
aF0.8571428571428571
aa.(lp0
(lp1
I0
aI1
aI0
aI0
aI0
aI1
aI0
aI0
aI0
aI0
aF1.9633333333333334
aF0.2
aI5
aI0
aI0
aI0
aI0
aI0
aI0
aI0
aI0
aI0
aI0
aI0
aI0
aI0
aI0
aI0
aI0
aI0
aI0
aI0
aI0
aI0
aI0
aI0
aI0
aF0.2857142857142857
aa.(lp0
(lp1
I0
aI0
aI0
aI0
aI0
aI1
aI0
aI0
aI0
aI0
aF0.883
aF0.2
aI5
aI0
aI0
aI0
aI0
aI0
aI0
aI0
aI0
aI0
aI0
aI0
aI0
aI0
aI0
aI0
aI0
aI0
aI0
aI0
aI0
aI0
aI0
aI0
aI0
aF0.42857142857142855
aa.(lp0
(lp1
I0
aI1
aI0
aI0
aI0
aI1
aI0
aI0
aI0
aI0
aF1.47
aF0.18
aI5
aI0
aI0
aI0
aI0
aI0
aI0
aI0
aI0
aI0
aI0
aI0
aI0
aI0
aI0
aI0
aI0
aI0
aI0
aI0
aI0
aI0
aI0
aI0
aI0
aF0.7142857142857143
aa.(lp0
(lp1
I0
aI1
aI0
aI0
aI0
aI1
aI0
aI0
aI0
aI0
aF0.8536666666666667
aF0.1
aI5
aI0
aI0
aI0
aI0
aI0
aI0
aI0
aI0
aI0
aI0
aI0
aI0
aI0
aI0
aI0
aI0
aI0
aI0
aI0
aI0
aI0
aI0
aI0
aI0
aF1.0
aa.(lp0
(lp1
I0
aI0
aI0
aI0
aI0
aI1
aI0
aI0
aI0
aI0
aF1.2633333333333334
aF0.78
aI3
aI0
aI0
aI0
aI0
aI0
aI0
aI0
aI0
aI0
aI0
aI0
aI0
aI0
aI0
aI0
aI0
aI0
aI0
aI0
aI0
aI0
aI0
aI0
aI0
aF0.5
aa.(lp0
(lp1
I0
aI1
aI0
aI0
aI0
aI0
aI1
aI0
aI0
aI0
aF1.26
aF0.46
aI6
aI0
aI0
aI0
aI0
aI0
aI0
aI0
aI0
aI0
aI0
aI0
aI0
aI0
aI0
aI0
aI0
aI0
aI0
aI0
aI0
aI0
aI0
aI0
aI0
aF0.2857142857142857
aa.(lp0
(lp1
I1
aI0
aI0
aI0
aI0
aI0
aI0
aI0
aI0
aI0
aF1.9633333333333334
aF0.46
aI4
aI0
aI0
aI0
aI0
aI0
aI0
aI0
aI0
aI0
aI0
aI0
aI0
aI0
aI0
aI0
aI0
aI0
aI0
aI0
aI0
aI0
aI0
aI0
aI0
aF0.5
aa.(lp0
(lp1
I1
aI0
aI0
aI0
aI0
aI0
aI0
aI0
aI0
aI0
aF0.9563333333333334
aF0.46
aI3
aI0
aI0
aI0
aI0
aI0
aI0
aI0
aI0
aI0
aI0
aI0
aI0
aI0
aI0
aI0
aI0
aI0
aI0
aI0
aI0
aI0
aI0
aI0
aI0
aF1.0
aa.(lp0
(lp1
I1
aI0
aI0
aI0
aI0
aI0
aI0
aI0
aI0
aI0
aF1.4566666666666668
aF0.46
aI5
aI0
aI0
aI0
aI0
aI0
aI0
aI0
aI0
aI0
aI0
aI0
aI0
aI0
aI0
aI0
aI0
aI0
aI0
aI0
aI0
aI0
aI0
aI0
aI0
aF0.7142857142857143
aa.(lp0
(lp1
I0
aI1
aI0
aI0
aI0
aI2
aI0
aI0
aI0
aI0
aF0.7336666666666667
aF1.1
aI3
aI0
aI0
aI0
aI0
aI0
aI0
aI0
aI0
aI0
aI0
aI0
aI0
aI0
aI0
aI0
aI0
aI0
aI0
aI0
aI0
aI0
aI0
aI0
aI0
aF0.8571428571428571
aa.(lp0
(lp1
I1
aI0
aI0
aI0
aI0
aI0
aI0
aI0
aI0
aI0
aF1.6233333333333333
aF0.22
aI5
aI0
aI0
aI0
aI0
aI0
aI0
aI0
aI0
aI0
aI0
aI0
aI0
aI0
aI0
aI0
aI0
aI0
aI0
aI0
aI0
aI0
aI0
aI0
aI0
aF0.7142857142857143
aa.(lp0
(lp1
I0
aI0
aI1
aI0
aI0
aI1
aI0
aI0
aI0
aI0
aF1.2466666666666666
aF0.1
aI6
aI0
aI0
aI0
aI0
aI0
aI0
aI0
aI0
aI0
aI0
aI0
aI0
aI0
aI0
aI0
aI0
aI0
aI0
aI0
aI0
aI0
aI0
aI0
aI0
aF0.42857142857142855
aa.(lp0
(lp1
I0
aI1
aI0
aI0
aI0
aI1
aI0
aI0
aI0
aI0
aF1.95
aF0.18
aI6
aI0
aI0
aI0
aI0
aI0
aI0
aI0
aI0
aI0
aI0
aI0
aI0
aI0
aI0
aI0
aI0
aI0
aI0
aI0
aI0
aI0
aI0
aI0
aI0
aF0.8571428571428571
aa.(lp0
(lp1
I0
aI0
aI1
aI0
aI0
aI1
aI0
aI0
aI0
aI0
aF0.943
aF0.22
aI6
aI0
aI0
aI0
aI0
aI0
aI0
aI0
aI0
aI0
aI0
aI0
aI0
aI0
aI0
aI0
aI0
aI0
aI0
aI0
aI0
aI0
aI0
aI0
aI0
aF1.0
aa.(lp0
(lp1
I0
aI0
aI0
aI0
aI0
aI1
aI0
aI0
aI0
aI0
aF1.4433333333333334
aF0.14
aI6
aI0
aI0
aI0
aI0
aI0
aI0
aI0
aI0
aI0
aI0
aI0
aI0
aI0
aI0
aI0
aI0
aI0
aI0
aI0
aI0
aI0
aI0
aI0
aI0
aF0.2857142857142857
aa.(lp0
(lp1
I0
aI1
aI0
aI0
aI0
aI1
aI0
aI0
aI0
aI0
aF0.7203333333333334
aF0.22
aI5
aI0
aI0
aI0
aI0
aI0
aI0
aI0
aI0
aI0
aI0
aI0
aI0
aI0
aI0
aI0
aI0
aI0
aI0
aI0
aI0
aI0
aI0
aI0
aI0
aF0.5714285714285714
aa.(lp0
(lp1
I1
aI0
aI0
aI0
aI0
aI0
aI0
aI0
aI0
aI0
aF1.6233333333333333
aF0.18
aI5
aI0
aI0
aI0
aI0
aI0
aI0
aI0
aI0
aI0
aI0
aI0
aI0
aI0
aI0
aI0
aI0
aI0
aI0
aI0
aI0
aI0
aI0
aI0
aI0
aF0.7142857142857143
aa.(lp0
(lp1
I0
aI1
aI0
aI0
aI0
aI1
aI0
aI0
aI0
aI0
aF1.14
aF0.18
aI4
aI0
aI0
aI0
aI0
aI0
aI0
aI0
aI0
aI0
aI0
aI0
aI0
aI0
aI0
aI0
aI0
aI0
aI0
aI0
aI0
aI0
aI0
aI0
aI0
aF0.8571428571428571
aa.(lp0
(lp1
I0
aI1
aI0
aI0
aI0
aI1
aI0
aI0
aI0
aI0
aF1.9366666666666668
aF0.14
aI6
aI0
aI0
aI0
aI0
aI0
aI0
aI0
aI0
aI0
aI0
aI0
aI0
aI0
aI0
aI0
aI0
aI0
aI0
aI0
aI0
aI0
aI0
aI0
aI0
aF0.5714285714285714
aa.(lp0
(lp1
I0
aI0
aI0
aI0
aI0
aI1
aI0
aI0
aI0
aI0
aF0.9163333333333333
aF0.18
aI6
aI0
aI0
aI0
aI0
aI0
aI0
aI0
aI0
aI0
aI0
aI0
aI0
aI0
aI0
aI0
aI0
aI0
aI0
aI0
aI0
aI0
aI0
aI0
aI0
aF0.42857142857142855
aa.(lp0
(lp1
I0
aI1
aI0
aI0
aI0
aI1
aI0
aI0
aI0
aI0
aF1.61
aF0.1
aI6
aI0
aI0
aI0
aI0
aI0
aI0
aI0
aI0
aI0
aI0
aI0
aI0
aI0
aI0
aI0
aI0
aI0
aI0
aI0
aI0
aI0
aI0
aI0
aI0
aF0.2857142857142857
aa.(lp0
(lp1
I1
aI0
aI0
aI0
aI0
aI0
aI0
aI0
aI0
aI0
aF0.7136666666666667
aF0.18
aI4
aI0
aI0
aI0
aI0
aI0
aI0
aI0
aI0
aI0
aI0
aI0
aI0
aI0
aI0
aI0
aI0
aI0
aI0
aI0
aI0
aI0
aI0
aI0
aI0
aF1.0
aa.(lp0
(lp1
I1
aI0
aI0
aI0
aI0
aI0
aI0
aI0
aI0
aI0
aF1.6233333333333333
aF0.1
aI4
aI0
aI0
aI0
aI0
aI0
aI0
aI0
aI0
aI0
aI0
aI0
aI0
aI0
aI0
aI0
aI0
aI0
aI0
aI0
aI0
aI0
aI0
aI0
aI0
aF0.8571428571428571
aa.(lp0
(lp1
I0
aI1
aI0
aI0
aI0
aI1
aI0
aI0
aI0
aI0
aF1.1266666666666667
aF0.16
aI4
aI0
aI0
aI0
aI0
aI0
aI0
aI0
aI0
aI0
aI0
aI0
aI0
aI0
aI0
aI0
aI0
aI0
aI0
aI0
aI0
aI0
aI0
aI0
aI0
aF0.7142857142857143
aa.(lp0
(lp1
I1
aI0
aI0
aI0
aI0
aI0
aI0
aI0
aI0
aI0
aF1.9366666666666668
aF0.06
aI5
aI0
aI0
aI0
aI0
aI0
aI0
aI0
aI0
aI0
aI0
aI0
aI0
aI0
aI0
aI0
aI0
aI0
aI0
aI0
aI0
aI0
aI0
aI0
aI0
aF0.5714285714285714
aa.(lp0
(lp1
I0
aI0
aI0
aI1
aI0
aI1
aI0
aI0
aI0
aI0
aF0.963
aF0.1
aI5
aI0
aI0
aI0
aI0
aI0
aI0
aI0
aI0
aI0
aI0
aI0
aI0
aI0
aI0
aI0
aI0
aI0
aI0
aI0
aI0
aI0
aI0
aI0
aI0
aF0.2857142857142857
aa.(lp0
(lp1
I0
aI0
aI0
aI0
aI0
aI1
aI0
aI0
aI0
aI0
aF1.5966666666666667
aF0.16
aI4
aI0
aI0
aI0
aI0
aI0
aI0
aI0
aI0
aI0
aI0
aI0
aI0
aI0
aI0
aI0
aI0
aI0
aI0
aI0
aI0
aI0
aI0
aI0
aI0
aF1.0
aa.(lp0
(lp1
I0
aI0
aI0
aI1
aI0
aI1
aI0
aI0
aI0
aI0
aF0.7003333333333334
aF0.14
aI4
aI0
aI0
aI0
aI0
aI0
aI0
aI0
aI0
aI0
aI0
aI0
aI0
aI0
aI0
aI0
aI0
aI0
aI0
aI0
aI0
aI0
aI0
aI0
aI0
aF0.42857142857142855
aa.(lp0
(lp1
I0
aI0
aI0
aI0
aI0
aI2
aI0
aI0
aI0
aI0
aF1.5033333333333334
aF1.0
aI3
aI0
aI0
aI0
aI0
aI0
aI0
aI0
aI0
aI0
aI0
aI0
aI0
aI0
aI0
aI0
aI0
aI0
aI0
aI0
aI0
aI0
aI0
aI0
aI0
aF0.42857142857142855
aa.(lp0
(lp1
I0
aI1
aI0
aI0
aI0
aI0
aI1
aI0
aI0
aI0
aF1.0066666666666666
aF0.72
aI6
aI0
aI0
aI0
aI0
aI0
aI0
aI0
aI0
aI0
aI0
aI0
aI0
aI0
aI0
aI0
aI0
aI0
aI0
aI0
aI0
aI0
aI0
aI0
aI0
aF0.5714285714285714
aa.(lp0
(lp1
I1
aI0
aI0
aI0
aI0
aI0
aI0
aI0
aI0
aI0
aF1.91
aF0.72
aI4
aI0
aI0
aI0
aI0
aI0
aI0
aI0
aI0
aI0
aI0
aI0
aI0
aI0
aI0
aI0
aI0
aI0
aI0
aI0
aI0
aI0
aI0
aI0
aI0
aF0.8571428571428571
aa.(lp0
(lp1
I1
aI0
aI0
aI0
aI0
aI1
aI0
aI0
aI0
aI0
aF0.9096666666666666
aF0.72
aI3
aI0
aI0
aI0
aI0
aI0
aI0
aI0
aI0
aI0
aI0
aI0
aI0
aI0
aI0
aI0
aI0
aI0
aI0
aI0
aI0
aI0
aI0
aI0
aI0
aF0.7142857142857143
aa.(lp0
(lp1
I1
aI0
aI0
aI0
aI0
aI0
aI0
aI0
aI0
aI0
aF1.69
aF0.72
aI5
aI0
aI0
aI0
aI0
aI0
aI0
aI0
aI0
aI0
aI0
aI0
aI0
aI0
aI0
aI0
aI0
aI0
aI0
aI0
aI0
aI0
aI0
aI0
aI0
aF1.0
aa.(lp0
(lp1
I0
aI0
aI0
aI0
aI0
aI2
aI0
aI0
aI0
aI0
aF0.5536666666666666
aF1.28
aI3
aI0
aI0
aI0
aI0
aI0
aI0
aI0
aI0
aI0
aI0
aI0
aI0
aI0
aI0
aI0
aI0
aI0
aI0
aI0
aI0
aI0
aI0
aI0
aI0
aF0.2857142857142857
aa.(lp0
(lp1
I1
aI0
aI0
aI0
aI0
aI0
aI0
aI0
aI0
aI0
aF0.9496666666666667
aF0.12
aI5
aI0
aI0
aI0
aI0
aI0
aI0
aI0
aI0
aI0
aI0
aI0
aI0
aI0
aI0
aI0
aI0
aI0
aI0
aI0
aI0
aI0
aI0
aI0
aI0
aF0.7142857142857143
aa.(lp0
(lp1
I0
aI0
aI1
aI0
aI0
aI2
aI0
aI0
aI0
aI0
aF0.9533333333333334
aF0.6
aI4
aI0
aI0
aI0
aI0
aI0
aI0
aI0
aI0
aI0
aI0
aI0
aI0
aI0
aI0
aI0
aI0
aI0
aI0
aI0
aI0
aI0
aI0
aI0
aI0
aF0.8571428571428571
aa.(lp0
(lp1
I1
aI0
aI0
aI0
aI0
aI0
aI0
aI0
aI0
aI0
aF1.8966666666666667
aF0.36
aI4
aI0
aI0
aI0
aI0
aI0
aI0
aI0
aI0
aI0
aI0
aI0
aI0
aI0
aI0
aI0
aI0
aI0
aI0
aI0
aI0
aI0
aI0
aI0
aI0
aF1.0
aa.(lp0
(lp1
I0
aI1
aI0
aI0
aI0
aI0
aI1
aI0
aI0
aI0
aF0.8563333333333333
aF0.44
aI4
aI0
aI0
aI0
aI0
aI0
aI0
aI0
aI0
aI0
aI0
aI0
aI0
aI0
aI0
aI0
aI0
aI0
aI0
aI0
aI0
aI0
aI0
aI0
aI0
aF0.2857142857142857
aa.(lp0
(lp1
I0
aI0
aI0
aI0
aI0
aI2
aI0
aI0
aI0
aI0
aF1.6366666666666667
aF0.68
aI4
aI0
aI0
aI0
aI0
aI0
aI0
aI0
aI0
aI0
aI0
aI0
aI0
aI0
aI0
aI0
aI0
aI0
aI0
aI0
aI0
aI0
aI0
aI0
aI0
aF0.5714285714285714
aa.(lp0
(lp1
I0
aI0
aI0
aI1
aI0
aI2
aI0
aI0
aI0
aI0
aF1.4806666666666666
aF0.52
aI4
aI0
aI0
aI0
aI0
aI0
aI0
aI0
aI0
aI0
aI0
aI0
aI0
aI0
aI0
aI0
aI0
aI0
aI0
aI0
aI0
aI0
aI0
aI0
aI0
aF0.42857142857142855
aa.(lp0
(lp1
I0
aI0
aI0
aI0
aI0
aI0
aI0
aI1
aI0
aI0
aF0.8963333333333333
aF0.48
aI5
aI0
aI0
aI0
aI0
aI0
aI0
aI0
aI0
aI0
aI0
aI0
aI0
aI0
aI0
aI0
aI0
aI0
aI0
aI0
aI0
aI0
aI0
aI0
aI0
aF0.2857142857142857
aa.(lp0
(lp1
I0
aI1
aI0
aI0
aI0
aI2
aI0
aI0
aI0
aI0
aF0.7266666666666667
aF0.64
aI5
aI0
aI0
aI0
aI0
aI0
aI0
aI0
aI0
aI0
aI0
aI0
aI0
aI0
aI0
aI0
aI0
aI0
aI0
aI0
aI0
aI0
aI0
aI0
aI0
aF0.8571428571428571
aa.(lp0
(lp1
I1
aI0
aI0
aI0
aI0
aI1
aI0
aI0
aI0
aI0
aF1.87
aF0.64
aI4
aI0
aI0
aI0
aI0
aI0
aI0
aI0
aI0
aI0
aI0
aI0
aI0
aI0
aI0
aI0
aI0
aI0
aI0
aI0
aI0
aI0
aI0
aI0
aI0
aF0.7142857142857143
aa.(lp0
(lp1
I0
aI1
aI0
aI0
aI0
aI2
aI0
aI0
aI0
aI0
aF0.803
aF0.72
aI4
aI0
aI0
aI0
aI0
aI0
aI0
aI0
aI0
aI0
aI0
aI0
aI0
aI0
aI0
aI0
aI0
aI0
aI0
aI0
aI0
aI0
aI0
aI0
aI0
aF0.5714285714285714
aa.(lp0
(lp1
I1
aI0
aI0
aI0
aI0
aI0
aI0
aI0
aI0
aI0
aF2.7003333333333335
aF0.28
aI5
aI0
aI0
aI0
aI0
aI0
aI0
aI0
aI0
aI0
aI0
aI0
aI0
aI0
aI0
aI0
aI0
aI0
aI0
aI0
aI0
aI0
aI0
aI0
aI0
aF1.0
aa.(lp0
(lp1
I0
aI1
aI0
aI0
aI0
aI2
aI0
aI0
aI0
aI0
aF0.7636666666666667
aF0.56
aI5
aI0
aI0
aI0
aI0
aI0
aI0
aI0
aI0
aI0
aI0
aI0
aI0
aI0
aI0
aI0
aI0
aI0
aI0
aI0
aI0
aI0
aI0
aI0
aI0
aF0.42857142857142855
aa.(lp0
(lp1
I1
aI0
aI0
aI0
aI0
aI0
aI0
aI0
aI0
aI0
aF1.123
aF0.28
aI3
aI0
aI0
aI0
aI0
aI0
aI0
aI0
aI0
aI0
aI0
aI0
aI0
aI0
aI0
aI0
aI0
aI0
aI0
aI0
aI0
aI0
aI0
aI0
aI0
aF0.5714285714285714
aa.(lp0
(lp1
I0
aI1
aI0
aI0
aI0
aI1
aI0
aI0
aI0
aI0
aF0.7
aF0.2
aI6
aI0
aI0
aI0
aI0
aI0
aI0
aI0
aI0
aI0
aI0
aI0
aI0
aI0
aI0
aI0
aI0
aI0
aI0
aI0
aI0
aI0
aI0
aI0
aI0
aF0.42857142857142855
aa.(lp0
(lp1
I1
aI0
aI0
aI0
aI0
aI0
aI0
aI0
aI0
aI0
aF1.87
aF0.28
aI5
aI0
aI0
aI0
aI0
aI0
aI0
aI0
aI0
aI0
aI0
aI0
aI0
aI0
aI0
aI0
aI0
aI0
aI0
aI0
aI0
aI0
aI0
aI0
aI0
aF0.8571428571428571
aa.(lp0
(lp1
I1
aI0
aI0
aI0
aI0
aI0
aI0
aI0
aI0
aI0
aF0.803
aF0.28
aI4
aI0
aI0
aI0
aI0
aI0
aI0
aI0
aI0
aI0
aI0
aI0
aI0
aI0
aI0
aI0
aI0
aI0
aI0
aI0
aI0
aI0
aI0
aI0
aI0
aF1.0
aa.(lp0
(lp1
I0
aI0
aI0
aI0
aI0
aI1
aI0
aI0
aI0
aI0
aF2.6736666666666666
aF0.28
aI6
aI0
aI0
aI0
aI0
aI0
aI0
aI0
aI0
aI0
aI0
aI0
aI0
aI0
aI0
aI0
aI0
aI0
aI0
aI0
aI0
aI0
aI0
aI0
aI0
aF0.2857142857142857
aa.(lp0
(lp1
I0
aI1
aI0
aI0
aI0
aI1
aI0
aI0
aI0
aI0
aF0.737
aF0.28
aI3
aI0
aI0
aI0
aI0
aI0
aI0
aI0
aI0
aI0
aI0
aI0
aI0
aI0
aI0
aI0
aI0
aI0
aI0
aI0
aI0
aI0
aI0
aI0
aI0
aF0.7142857142857143
aa.